EXPORTS 
	??_R0?AV?$_Ref_count_obj2@VBoolValue@@@std@@@8 	 DATA
	??_R0?AV?$_Ref_count_obj2@VColorValue@@@std@@@8 	 DATA
	??_R0?AV?$_Ref_count_obj2@VFloatValue@@@std@@@8 	 DATA
	??_R0?AV?$_Ref_count_obj2@VIntValue@@@std@@@8 	 DATA
	??_R0?AV?$_Ref_count_obj2@VMatrix44Value@@@std@@@8 	 DATA
	??_R0?AV?$_Ref_count_obj2@VPoint3Value@@@std@@@8 	 DATA
	??_R0?AV?$_Ref_count_obj2@VShotValue@@@std@@@8 	 DATA
	??_R0?AV?$_Ref_count_obj2@VStringValue@@@std@@@8 	 DATA
	??_R0?AVBoolValue@@@8 	 DATA
	??_R0?AVBoolWidget@@@8 	 DATA
	??_R0?AVClickableLabel@@@8 	 DATA
	??_R0?AVColorValue@@@8 	 DATA
	??_R0?AVColorWidget@@@8 	 DATA
	??_R0?AVComboWidget@@@8 	 DATA
	??_R0?AVDirectionWidget@@@8 	 DATA
	??_R0?AVDynamicFloatWidget@@@8 	 DATA
	??_R0?AVEnumWidget@@@8 	 DATA
	??_R0?AVFloatValue@@@8 	 DATA
	??_R0?AVFloatWidget@@@8 	 DATA
	??_R0?AVIOFileWidget@@@8 	 DATA
	??_R0?AVIntValue@@@8 	 DATA
	??_R0?AVIntWidget@@@8 	 DATA
	??_R0?AVLineEditWidget@@@8 	 DATA
	??_R0?AVMatrix44Value@@@8 	 DATA
	??_R0?AVMatrix44Widget@@@8 	 DATA
	??_R0?AVMeshWidget@@@8 	 DATA
	??_R0?AVOpenFileWidget@@@8 	 DATA
	??_R0?AVPercentageWidget@@@8 	 DATA
	??_R0?AVPoint3Value@@@8 	 DATA
	??_R0?AVPoint3Widget@@@8 	 DATA
	??_R0?AVPositionWidget@@@8 	 DATA
	??_R0?AVQAbstractButton@@@8 	 DATA
	??_R0?AVQAbstractScrollArea@@@8 	 DATA
	??_R0?AVQAbstractSlider@@@8 	 DATA
	??_R0?AVQAbstractSpinBox@@@8 	 DATA
	??_R0?AVQBoxLayout@@@8 	 DATA
	??_R0?AVQCheckBox@@@8 	 DATA
	??_R0?AVQComboBox@@@8 	 DATA
	??_R0?AVQDialog@@@8 	 DATA
	??_R0?AVQDialogButtonBox@@@8 	 DATA
	??_R0?AVQDoubleSpinBox@@@8 	 DATA
	??_R0?AVQDoubleValidator@@@8 	 DATA
	??_R0?AVQFrame@@@8 	 DATA
	??_R0?AVQGridLayout@@@8 	 DATA
	??_R0?AVQHBoxLayout@@@8 	 DATA
	??_R0?AVQLabel@@@8 	 DATA
	??_R0?AVQLayout@@@8 	 DATA
	??_R0?AVQLayoutItem@@@8 	 DATA
	??_R0?AVQLineEdit@@@8 	 DATA
	??_R0?AVQObject@@@8 	 DATA
	??_R0?AVQPaintDevice@@@8 	 DATA
	??_R0?AVQPushButton@@@8 	 DATA
	??_R0?AVQScrollArea@@@8 	 DATA
	??_R0?AVQSlider@@@8 	 DATA
	??_R0?AVQSpacerItem@@@8 	 DATA
	??_R0?AVQVBoxLayout@@@8 	 DATA
	??_R0?AVQValidator@@@8 	 DATA
	??_R0?AVQWidget@@@8 	 DATA
	??_R0?AVRichBool@@@8 	 DATA
	??_R0?AVRichColor@@@8 	 DATA
	??_R0?AVRichDirection@@@8 	 DATA
	??_R0?AVRichDynamicFloat@@@8 	 DATA
	??_R0?AVRichEnum@@@8 	 DATA
	??_R0?AVRichFileOpen@@@8 	 DATA
	??_R0?AVRichFileSave@@@8 	 DATA
	??_R0?AVRichFloat@@@8 	 DATA
	??_R0?AVRichInt@@@8 	 DATA
	??_R0?AVRichMatrix44@@@8 	 DATA
	??_R0?AVRichMesh@@@8 	 DATA
	??_R0?AVRichParameter@@@8 	 DATA
	??_R0?AVRichParameterListDialog@@@8 	 DATA
	??_R0?AVRichParameterListFrame@@@8 	 DATA
	??_R0?AVRichParameterWidget@@@8 	 DATA
	??_R0?AVRichPercentage@@@8 	 DATA
	??_R0?AVRichPosition@@@8 	 DATA
	??_R0?AVRichShot@@@8 	 DATA
	??_R0?AVRichString@@@8 	 DATA
	??_R0?AVSaveFileWidget@@@8 	 DATA
	??_R0?AVShotValue@@@8 	 DATA
	??_R0?AVShotWidget@@@8 	 DATA
	??_R0?AVStringValue@@@8 	 DATA
	??_R0?AVStringWidget@@@8 	 DATA
	??_R0?AVValue@@@8 	 DATA
	??_R0?AVVerticalScrollArea@@@8 	 DATA
	??_R0?AV_Ref_count_base@std@@@8 	 DATA
	??_R0?AVbad_alloc@std@@@8 	 DATA
	??_R0?AVbad_array_new_length@std@@@8 	 DATA
	??_R0?AVexception@std@@@8 	 DATA
	?staticMetaObject@ClickableLabel@@2UQMetaObject@@B 	 DATA
	?staticMetaObject@RichParameterListDialog@@2UQMetaObject@@B 	 DATA
	?staticMetaObject@RichParameterListFrame@@2UQMetaObject@@B 	 DATA
	?staticMetaObject@RichParameterWidget@@2UQMetaObject@@B 	 DATA
	?staticMetaObject@VerticalScrollArea@@2UQMetaObject@@B 	 DATA
	??$?0$$V@?$_Compressed_pair@V?$allocator@PEAVQWidget@@@std@@V?$_Vector_val@U?$_Simple_types@PEAVQWidget@@@std@@@2@$00@std@@QEAA@U_Zero_then_variadic_args_t@1@@Z
	??$?0$$V@?$_Compressed_pair@V?$allocator@PEBVRichParameter@@@std@@V?$_Vector_val@U?$_Simple_types@PEBVRichParameter@@@std@@@2@$00@std@@QEAA@U_Zero_then_variadic_args_t@1@@Z
	??$?0$$V@?$_Compressed_pair@V?$allocator@U?$_Tree_node@U?$pair@$$CBVQString@@PEAVQCheckBox@@@std@@PEAX@std@@@std@@V?$_Tree_val@U?$_Tree_simple_types@U?$pair@$$CBVQString@@PEAVQCheckBox@@@std@@@std@@@2@$00@std@@QEAA@U_Zero_then_variadic_args_t@1@@Z
	??$?0$$V@?$_Compressed_pair@V?$allocator@U?$_Tree_node@U?$pair@$$CBVQString@@PEAVRichParameterWidget@@@std@@PEAX@std@@@std@@V?$_Tree_val@U?$_Tree_simple_types@U?$pair@$$CBVQString@@PEAVRichParameterWidget@@@std@@@std@@@2@$00@std@@QEAA@U_Zero_then_variadic_args_t@1@@Z
	??$?0$$V@?$_Compressed_pair@V?$allocator@U?$_Tree_node@U?$pair@$$CBVQString@@V?$vector@PEBVRichParameter@@V?$allocator@PEBVRichParameter@@@std@@@std@@@std@@PEAX@std@@@std@@V?$_Tree_val@U?$_Tree_simple_types@U?$pair@$$CBVQString@@V?$vector@PEBVRichParameter@@V?$allocator@PEBVRichParameter@@@std@@@std@@@std@@@std@@@2@$00@std@@QEAA@U_Zero_then_variadic_args_t@1@@Z
	??$?0$$V@?$_Compressed_pair@V?$allocator@U?$_Tree_node@VQString@@PEAX@std@@@std@@V?$_Tree_val@U?$_Tree_simple_types@VQString@@@std@@@2@$00@std@@QEAA@U_Zero_then_variadic_args_t@1@@Z
	??$?0AEAPEAU?$_Tree_node@VQString@@PEAX@std@@_N$0A@@?$pair@PEAU?$_Tree_node@VQString@@PEAX@std@@_N@std@@QEAA@AEAPEAU?$_Tree_node@VQString@@PEAX@1@$$QEA_N@Z
	??$?0AEAV?$Matrix44@M@vcg@@@?$_Ref_count_obj2@VMatrix44Value@@@std@@QEAA@AEAV?$Matrix44@M@vcg@@@Z
	??$?0AEBQEAU?$_Tree_node@U?$pair@$$CBVQString@@PEAVQCheckBox@@@std@@PEAX@std@@_N$0A@@?$pair@PEAU?$_Tree_node@U?$pair@$$CBVQString@@PEAVQCheckBox@@@std@@PEAX@std@@_N@std@@QEAA@AEBQEAU?$_Tree_node@U?$pair@$$CBVQString@@PEAVQCheckBox@@@std@@PEAX@1@$$QEA_N@Z
	??$?0AEBQEAU?$_Tree_node@U?$pair@$$CBVQString@@PEAVRichParameterWidget@@@std@@PEAX@std@@_N$0A@@?$pair@PEAU?$_Tree_node@U?$pair@$$CBVQString@@PEAVRichParameterWidget@@@std@@PEAX@std@@_N@std@@QEAA@AEBQEAU?$_Tree_node@U?$pair@$$CBVQString@@PEAVRichParameterWidget@@@std@@PEAX@1@$$QEA_N@Z
	??$?0AEBQEAU?$_Tree_node@U?$pair@$$CBVQString@@V?$vector@PEBVRichParameter@@V?$allocator@PEBVRichParameter@@@std@@@std@@@std@@PEAX@std@@_N$0A@@?$pair@PEAU?$_Tree_node@U?$pair@$$CBVQString@@V?$vector@PEBVRichParameter@@V?$allocator@PEBVRichParameter@@@std@@@std@@@std@@PEAX@std@@_N@std@@QEAA@AEBQEAU?$_Tree_node@U?$pair@$$CBVQString@@V?$vector@PEBVRichParameter@@V?$allocator@PEBVRichParameter@@@std@@@std@@@std@@PEAX@1@$$QEA_N@Z
	??$?0AEBU?$less@VQString@@@std@@U_Zero_then_variadic_args_t@1@@?$_Compressed_pair@U?$less@VQString@@@std@@V?$_Compressed_pair@V?$allocator@U?$_Tree_node@U?$pair@$$CBVQString@@PEAVQCheckBox@@@std@@PEAX@std@@@std@@V?$_Tree_val@U?$_Tree_simple_types@U?$pair@$$CBVQString@@PEAVQCheckBox@@@std@@@std@@@2@$00@2@$00@std@@QEAA@U_One_then_variadic_args_t@1@AEBU?$less@VQString@@@1@$$QEAU_Zero_then_variadic_args_t@1@@Z
	??$?0AEBU?$less@VQString@@@std@@U_Zero_then_variadic_args_t@1@@?$_Compressed_pair@U?$less@VQString@@@std@@V?$_Compressed_pair@V?$allocator@U?$_Tree_node@U?$pair@$$CBVQString@@PEAVRichParameterWidget@@@std@@PEAX@std@@@std@@V?$_Tree_val@U?$_Tree_simple_types@U?$pair@$$CBVQString@@PEAVRichParameterWidget@@@std@@@std@@@2@$00@2@$00@std@@QEAA@U_One_then_variadic_args_t@1@AEBU?$less@VQString@@@1@$$QEAU_Zero_then_variadic_args_t@1@@Z
	??$?0AEBU?$less@VQString@@@std@@U_Zero_then_variadic_args_t@1@@?$_Compressed_pair@U?$less@VQString@@@std@@V?$_Compressed_pair@V?$allocator@U?$_Tree_node@U?$pair@$$CBVQString@@V?$vector@PEBVRichParameter@@V?$allocator@PEBVRichParameter@@@std@@@std@@@std@@PEAX@std@@@std@@V?$_Tree_val@U?$_Tree_simple_types@U?$pair@$$CBVQString@@V?$vector@PEBVRichParameter@@V?$allocator@PEBVRichParameter@@@std@@@std@@@std@@@std@@@2@$00@2@$00@std@@QEAA@U_One_then_variadic_args_t@1@AEBU?$less@VQString@@@1@$$QEAU_Zero_then_variadic_args_t@1@@Z
	??$?0AEBU?$less@VQString@@@std@@U_Zero_then_variadic_args_t@1@@?$_Compressed_pair@U?$less@VQString@@@std@@V?$_Compressed_pair@V?$allocator@U?$_Tree_node@VQString@@PEAX@std@@@std@@V?$_Tree_val@U?$_Tree_simple_types@VQString@@@std@@@2@$00@2@$00@std@@QEAA@U_One_then_variadic_args_t@1@AEBU?$less@VQString@@@1@$$QEAU_Zero_then_variadic_args_t@1@@Z
	??$?0AEBUpiecewise_construct_t@std@@V?$tuple@AEBVQString@@@1@V?$tuple@$$V@1@@?$_Tree_temp_node@V?$allocator@U?$_Tree_node@U?$pair@$$CBVQString@@PEAVQCheckBox@@@std@@PEAX@std@@@std@@@std@@QEAA@AEAV?$allocator@U?$_Tree_node@U?$pair@$$CBVQString@@PEAVQCheckBox@@@std@@PEAX@std@@@1@PEAU?$_Tree_node@U?$pair@$$CBVQString@@PEAVQCheckBox@@@std@@PEAX@1@AEBUpiecewise_construct_t@1@$$QEAV?$tuple@AEBVQString@@@1@$$QEAV?$tuple@$$V@1@@Z
	??$?0AEBUpiecewise_construct_t@std@@V?$tuple@AEBVQString@@@1@V?$tuple@$$V@1@@?$_Tree_temp_node@V?$allocator@U?$_Tree_node@U?$pair@$$CBVQString@@PEAVRichParameterWidget@@@std@@PEAX@std@@@std@@@std@@QEAA@AEAV?$allocator@U?$_Tree_node@U?$pair@$$CBVQString@@PEAVRichParameterWidget@@@std@@PEAX@std@@@1@PEAU?$_Tree_node@U?$pair@$$CBVQString@@PEAVRichParameterWidget@@@std@@PEAX@1@AEBUpiecewise_construct_t@1@$$QEAV?$tuple@AEBVQString@@@1@$$QEAV?$tuple@$$V@1@@Z
	??$?0AEBUpiecewise_construct_t@std@@V?$tuple@AEBVQString@@@1@V?$tuple@$$V@1@@?$_Tree_temp_node@V?$allocator@U?$_Tree_node@U?$pair@$$CBVQString@@V?$vector@PEBVRichParameter@@V?$allocator@PEBVRichParameter@@@std@@@std@@@std@@PEAX@std@@@std@@@std@@QEAA@AEAV?$allocator@U?$_Tree_node@U?$pair@$$CBVQString@@V?$vector@PEBVRichParameter@@V?$allocator@PEBVRichParameter@@@std@@@std@@@std@@PEAX@std@@@1@PEAU?$_Tree_node@U?$pair@$$CBVQString@@V?$vector@PEBVRichParameter@@V?$allocator@PEBVRichParameter@@@std@@@std@@@std@@PEAX@1@AEBUpiecewise_construct_t@1@$$QEAV?$tuple@AEBVQString@@@1@$$QEAV?$tuple@$$V@1@@Z
	??$?0AEBV?$Matrix44@M@vcg@@@?$_Ref_count_obj2@VMatrix44Value@@@std@@QEAA@AEBV?$Matrix44@M@vcg@@@Z
	??$?0AEBV?$Shot@MV?$Matrix44@M@vcg@@@vcg@@@?$_Ref_count_obj2@VShotValue@@@std@@QEAA@AEBV?$Shot@MV?$Matrix44@M@vcg@@@vcg@@@Z
	??$?0AEBVQColor@@@?$_Ref_count_obj2@VColorValue@@@std@@QEAA@AEBVQColor@@@Z
	??$?0AEBVQString@@$$Z$$V@?$pair@$$CBVQString@@PEAVQCheckBox@@@std@@QEAA@Upiecewise_construct_t@1@V?$tuple@AEBVQString@@@1@V?$tuple@$$V@1@@Z
	??$?0AEBVQString@@$$Z$$V@?$pair@$$CBVQString@@PEAVRichParameterWidget@@@std@@QEAA@Upiecewise_construct_t@1@V?$tuple@AEBVQString@@@1@V?$tuple@$$V@1@@Z
	??$?0AEBVQString@@$$Z$$V@?$pair@$$CBVQString@@V?$vector@PEBVRichParameter@@V?$allocator@PEBVRichParameter@@@std@@@std@@@std@@QEAA@Upiecewise_construct_t@1@V?$tuple@AEBVQString@@@1@V?$tuple@$$V@1@@Z
	??$?0AEBVQString@@$0A@@?$tuple@AEBVQString@@@std@@QEAA@AEBVQString@@@Z
	??$?0AEBVQString@@@?$_Tree_temp_node@V?$allocator@U?$_Tree_node@VQString@@PEAX@std@@@std@@@std@@QEAA@AEAV?$allocator@U?$_Tree_node@VQString@@PEAX@std@@@1@PEAU?$_Tree_node@VQString@@PEAX@1@AEBVQString@@@Z
	??$?0AEBVQString@@@?$_Tuple_val@AEBVQString@@@std@@QEAA@AEBVQString@@@Z
	??$?0H@?$_Ref_count_obj2@VIntValue@@@std@@QEAA@$$QEAH@Z
	??$?0M@?$_Ref_count_obj2@VFloatValue@@@std@@QEAA@$$QEAM@Z
	??$?0N@?$_Ref_count_obj2@VFloatValue@@@std@@QEAA@$$QEAN@Z
	??$?0PEAU?$_Tree_node@U?$pair@$$CBVQString@@PEAVQCheckBox@@@std@@PEAX@std@@_N$0A@@?$pair@PEAU?$_Tree_node@U?$pair@$$CBVQString@@PEAVQCheckBox@@@std@@PEAX@std@@_N@std@@QEAA@$$QEAPEAU?$_Tree_node@U?$pair@$$CBVQString@@PEAVQCheckBox@@@std@@PEAX@1@$$QEA_N@Z
	??$?0PEAU?$_Tree_node@U?$pair@$$CBVQString@@PEAVRichParameterWidget@@@std@@PEAX@std@@_N$0A@@?$pair@PEAU?$_Tree_node@U?$pair@$$CBVQString@@PEAVRichParameterWidget@@@std@@PEAX@std@@_N@std@@QEAA@$$QEAPEAU?$_Tree_node@U?$pair@$$CBVQString@@PEAVRichParameterWidget@@@std@@PEAX@1@$$QEA_N@Z
	??$?0PEAU?$_Tree_node@U?$pair@$$CBVQString@@V?$vector@PEBVRichParameter@@V?$allocator@PEBVRichParameter@@@std@@@std@@@std@@PEAX@std@@_N$0A@@?$pair@PEAU?$_Tree_node@U?$pair@$$CBVQString@@V?$vector@PEBVRichParameter@@V?$allocator@PEBVRichParameter@@@std@@@std@@@std@@PEAX@std@@_N@std@@QEAA@$$QEAPEAU?$_Tree_node@U?$pair@$$CBVQString@@V?$vector@PEBVRichParameter@@V?$allocator@PEBVRichParameter@@@std@@@std@@@std@@PEAX@1@$$QEA_N@Z
	??$?0PEAU?$_Tree_node@VQString@@PEAX@std@@_N$0A@@?$pair@PEAU?$_Tree_node@VQString@@PEAX@std@@_N@std@@QEAA@$$QEAPEAU?$_Tree_node@VQString@@PEAX@1@$$QEA_N@Z
	??$?0PEAVQWidget@@@?$allocator@U_Container_proxy@std@@@std@@QEAA@AEBV?$allocator@PEAVQWidget@@@1@@Z
	??$?0PEBVRichParameter@@@?$allocator@U_Container_proxy@std@@@std@@QEAA@AEBV?$allocator@PEBVRichParameter@@@1@@Z
	??$?0U?$_Tree_node@U?$pair@$$CBVQString@@PEAVQCheckBox@@@std@@PEAX@std@@@?$allocator@U_Container_proxy@std@@@std@@QEAA@AEBV?$allocator@U?$_Tree_node@U?$pair@$$CBVQString@@PEAVQCheckBox@@@std@@PEAX@std@@@1@@Z
	??$?0U?$_Tree_node@U?$pair@$$CBVQString@@PEAVRichParameterWidget@@@std@@PEAX@std@@@?$allocator@U_Container_proxy@std@@@std@@QEAA@AEBV?$allocator@U?$_Tree_node@U?$pair@$$CBVQString@@PEAVRichParameterWidget@@@std@@PEAX@std@@@1@@Z
	??$?0U?$_Tree_node@U?$pair@$$CBVQString@@V?$vector@PEBVRichParameter@@V?$allocator@PEBVRichParameter@@@std@@@std@@@std@@PEAX@std@@@?$allocator@U_Container_proxy@std@@@std@@QEAA@AEBV?$allocator@U?$_Tree_node@U?$pair@$$CBVQString@@V?$vector@PEBVRichParameter@@V?$allocator@PEBVRichParameter@@@std@@@std@@@std@@PEAX@std@@@1@@Z
	??$?0U?$_Tree_node@VQString@@PEAX@std@@@?$allocator@U_Container_proxy@std@@@std@@QEAA@AEBV?$allocator@U?$_Tree_node@VQString@@PEAX@std@@@1@@Z
	??$?0U_Exact_args_t@std@@$0A@@?$tuple@$$V@std@@QEAA@U_Exact_args_t@1@@Z
	??$?0U_Exact_args_t@std@@AEBVQString@@$$V$0A@@?$tuple@AEBVQString@@@std@@QEAA@U_Exact_args_t@1@AEBVQString@@@Z
	??$?0V?$Point3@M@vcg@@@?$_Ref_count_obj2@VPoint3Value@@@std@@QEAA@$$QEAV?$Point3@M@vcg@@@Z
	??$?0V?$_Tree_const_iterator@V?$_Tree_val@U?$_Tree_simple_types@VQString@@@std@@@std@@@std@@AEB_N$0A@@?$pair@V?$_Tree_const_iterator@V?$_Tree_val@U?$_Tree_simple_types@VQString@@@std@@@std@@@std@@_N@std@@QEAA@$$QEAV?$_Tree_const_iterator@V?$_Tree_val@U?$_Tree_simple_types@VQString@@@std@@@std@@@1@AEB_N@Z
	??$?0V?$tuple@AEBVQString@@@std@@V?$tuple@$$V@1@$0A@$$Z$S@?$pair@$$CBVQString@@PEAVQCheckBox@@@std@@QEAA@AEAV?$tuple@AEBVQString@@@1@AEAV?$tuple@$$V@1@U?$integer_sequence@_K$0A@@1@U?$integer_sequence@_K$S@1@@Z
	??$?0V?$tuple@AEBVQString@@@std@@V?$tuple@$$V@1@$0A@$$Z$S@?$pair@$$CBVQString@@PEAVRichParameterWidget@@@std@@QEAA@AEAV?$tuple@AEBVQString@@@1@AEAV?$tuple@$$V@1@U?$integer_sequence@_K$0A@@1@U?$integer_sequence@_K$S@1@@Z
	??$?0V?$tuple@AEBVQString@@@std@@V?$tuple@$$V@1@$0A@$$Z$S@?$pair@$$CBVQString@@V?$vector@PEBVRichParameter@@V?$allocator@PEBVRichParameter@@@std@@@std@@@std@@QEAA@AEAV?$tuple@AEBVQString@@@1@AEAV?$tuple@$$V@1@U?$integer_sequence@_K$0A@@1@U?$integer_sequence@_K$S@1@@Z
	??$?0VBoolValue@@$0A@@?$shared_ptr@VValue@@@std@@QEAA@$$QEAV?$shared_ptr@VBoolValue@@@1@@Z
	??$?0VColorValue@@$0A@@?$shared_ptr@VValue@@@std@@QEAA@$$QEAV?$shared_ptr@VColorValue@@@1@@Z
	??$?0VFloatValue@@$0A@@?$shared_ptr@VValue@@@std@@QEAA@$$QEAV?$shared_ptr@VFloatValue@@@1@@Z
	??$?0VIntValue@@$0A@@?$shared_ptr@VValue@@@std@@QEAA@$$QEAV?$shared_ptr@VIntValue@@@1@@Z
	??$?0VMatrix44Value@@$0A@@?$shared_ptr@VValue@@@std@@QEAA@$$QEAV?$shared_ptr@VMatrix44Value@@@1@@Z
	??$?0VPoint3Value@@$0A@@?$shared_ptr@VValue@@@std@@QEAA@$$QEAV?$shared_ptr@VPoint3Value@@@1@@Z
	??$?0VQString@@@?$_Ref_count_obj2@VStringValue@@@std@@QEAA@$$QEAVQString@@@Z
	??$?0VShotValue@@$0A@@?$shared_ptr@VValue@@@std@@QEAA@$$QEAV?$shared_ptr@VShotValue@@@1@@Z
	??$?0VStringValue@@$0A@@?$shared_ptr@VValue@@@std@@QEAA@$$QEAV?$shared_ptr@VStringValue@@@1@@Z
	??$?0_N@?$_Ref_count_obj2@VBoolValue@@@std@@QEAA@$$QEA_N@Z
	??$?6U?$char_traits@D@std@@@std@@YAAEAV?$basic_ostream@DU?$char_traits@D@std@@@0@AEAV10@PEBD@Z
	??$?DVValue@@$0A@@?$shared_ptr@VValue@@@std@@QEBAAEAVValue@@XZ
	??$_Alloc_proxy@V?$allocator@U_Container_proxy@std@@@std@@@_Container_base12@std@@QEAAX$$QEAV?$allocator@U_Container_proxy@std@@@1@@Z
	??$_Allocate@$0BA@U_Default_allocate_traits@std@@$0A@@std@@YAPEAX_K@Z
	??$_Allocate_manually_vector_aligned@U_Default_allocate_traits@std@@@std@@YAPEAX_K@Z
	??$_Atomic_address_as@HU?$_Atomic_padded@H@std@@@std@@YAPEDHAEBU?$_Atomic_padded@H@0@@Z
	??$_Atomic_address_as@JU?$_Atomic_padded@H@std@@@std@@YAPECJAEAU?$_Atomic_padded@H@0@@Z
	??$_Buyheadnode@V?$allocator@U?$_Tree_node@U?$pair@$$CBVQString@@PEAVQCheckBox@@@std@@PEAX@std@@@std@@@?$_Tree_node@U?$pair@$$CBVQString@@PEAVQCheckBox@@@std@@PEAX@std@@SAPEAU01@AEAV?$allocator@U?$_Tree_node@U?$pair@$$CBVQString@@PEAVQCheckBox@@@std@@PEAX@std@@@1@@Z
	??$_Buyheadnode@V?$allocator@U?$_Tree_node@U?$pair@$$CBVQString@@PEAVRichParameterWidget@@@std@@PEAX@std@@@std@@@?$_Tree_node@U?$pair@$$CBVQString@@PEAVRichParameterWidget@@@std@@PEAX@std@@SAPEAU01@AEAV?$allocator@U?$_Tree_node@U?$pair@$$CBVQString@@PEAVRichParameterWidget@@@std@@PEAX@std@@@1@@Z
	??$_Buyheadnode@V?$allocator@U?$_Tree_node@U?$pair@$$CBVQString@@V?$vector@PEBVRichParameter@@V?$allocator@PEBVRichParameter@@@std@@@std@@@std@@PEAX@std@@@std@@@?$_Tree_node@U?$pair@$$CBVQString@@V?$vector@PEBVRichParameter@@V?$allocator@PEBVRichParameter@@@std@@@std@@@std@@PEAX@std@@SAPEAU01@AEAV?$allocator@U?$_Tree_node@U?$pair@$$CBVQString@@V?$vector@PEBVRichParameter@@V?$allocator@PEBVRichParameter@@@std@@@std@@@std@@PEAX@std@@@1@@Z
	??$_Buyheadnode@V?$allocator@U?$_Tree_node@VQString@@PEAX@std@@@std@@@?$_Tree_node@VQString@@PEAX@std@@SAPEAU01@AEAV?$allocator@U?$_Tree_node@VQString@@PEAX@std@@@1@@Z
	??$_Construct_in_place@PEAU?$_Tree_node@U?$pair@$$CBVQString@@PEAVQCheckBox@@@std@@PEAX@std@@AEAPEAU12@@std@@YAXAEAPEAU?$_Tree_node@U?$pair@$$CBVQString@@PEAVQCheckBox@@@std@@PEAX@0@0@Z
	??$_Construct_in_place@PEAU?$_Tree_node@U?$pair@$$CBVQString@@PEAVQCheckBox@@@std@@PEAX@std@@AEBQEAU12@@std@@YAXAEAPEAU?$_Tree_node@U?$pair@$$CBVQString@@PEAVQCheckBox@@@std@@PEAX@0@AEBQEAU10@@Z
	??$_Construct_in_place@PEAU?$_Tree_node@U?$pair@$$CBVQString@@PEAVRichParameterWidget@@@std@@PEAX@std@@AEAPEAU12@@std@@YAXAEAPEAU?$_Tree_node@U?$pair@$$CBVQString@@PEAVRichParameterWidget@@@std@@PEAX@0@0@Z
	??$_Construct_in_place@PEAU?$_Tree_node@U?$pair@$$CBVQString@@PEAVRichParameterWidget@@@std@@PEAX@std@@AEBQEAU12@@std@@YAXAEAPEAU?$_Tree_node@U?$pair@$$CBVQString@@PEAVRichParameterWidget@@@std@@PEAX@0@AEBQEAU10@@Z
	??$_Construct_in_place@PEAU?$_Tree_node@U?$pair@$$CBVQString@@V?$vector@PEBVRichParameter@@V?$allocator@PEBVRichParameter@@@std@@@std@@@std@@PEAX@std@@AEAPEAU12@@std@@YAXAEAPEAU?$_Tree_node@U?$pair@$$CBVQString@@V?$vector@PEBVRichParameter@@V?$allocator@PEBVRichParameter@@@std@@@std@@@std@@PEAX@0@0@Z
	??$_Construct_in_place@PEAU?$_Tree_node@U?$pair@$$CBVQString@@V?$vector@PEBVRichParameter@@V?$allocator@PEBVRichParameter@@@std@@@std@@@std@@PEAX@std@@AEBQEAU12@@std@@YAXAEAPEAU?$_Tree_node@U?$pair@$$CBVQString@@V?$vector@PEBVRichParameter@@V?$allocator@PEBVRichParameter@@@std@@@std@@@std@@PEAX@0@AEBQEAU10@@Z
	??$_Construct_in_place@PEAU?$_Tree_node@VQString@@PEAX@std@@AEAPEAU12@@std@@YAXAEAPEAU?$_Tree_node@VQString@@PEAX@0@0@Z
	??$_Construct_in_place@PEAU?$_Tree_node@VQString@@PEAX@std@@AEBQEAU12@@std@@YAXAEAPEAU?$_Tree_node@VQString@@PEAX@0@AEBQEAU10@@Z
	??$_Construct_in_place@U_Container_proxy@std@@PEAU_Container_base12@2@@std@@YAXAEAU_Container_proxy@0@$$QEAPEAU_Container_base12@0@@Z
	??$_Construct_in_place@VBoolValue@@_N@std@@YAXAEAVBoolValue@@$$QEA_N@Z
	??$_Construct_in_place@VColorValue@@AEBVQColor@@@std@@YAXAEAVColorValue@@AEBVQColor@@@Z
	??$_Construct_in_place@VFloatValue@@M@std@@YAXAEAVFloatValue@@$$QEAM@Z
	??$_Construct_in_place@VFloatValue@@N@std@@YAXAEAVFloatValue@@$$QEAN@Z
	??$_Construct_in_place@VIntValue@@H@std@@YAXAEAVIntValue@@$$QEAH@Z
	??$_Construct_in_place@VMatrix44Value@@AEAV?$Matrix44@M@vcg@@@std@@YAXAEAVMatrix44Value@@AEAV?$Matrix44@M@vcg@@@Z
	??$_Construct_in_place@VMatrix44Value@@AEBV?$Matrix44@M@vcg@@@std@@YAXAEAVMatrix44Value@@AEBV?$Matrix44@M@vcg@@@Z
	??$_Construct_in_place@VPoint3Value@@V?$Point3@M@vcg@@@std@@YAXAEAVPoint3Value@@$$QEAV?$Point3@M@vcg@@@Z
	??$_Construct_in_place@VShotValue@@AEBV?$Shot@MV?$Matrix44@M@vcg@@@vcg@@@std@@YAXAEAVShotValue@@AEBV?$Shot@MV?$Matrix44@M@vcg@@@vcg@@@Z
	??$_Construct_in_place@VStringValue@@VQString@@@std@@YAXAEAVStringValue@@$$QEAVQString@@@Z
	??$_Copy_memmove@PEAPEAVQWidget@@PEAPEAV1@@std@@YAPEAPEAVQWidget@@PEAPEAV1@00@Z
	??$_Copy_memmove@PEAPEBVRichParameter@@PEAPEBV1@@std@@YAPEAPEBVRichParameter@@PEAPEBV1@00@Z
	??$_Deallocate@$0BA@$0A@@std@@YAXPEAX_K@Z
	??$_Deallocate_plain@V?$allocator@U_Container_proxy@std@@@std@@@std@@YAXAEAV?$allocator@U_Container_proxy@std@@@0@QEAU_Container_proxy@0@@Z
	??$_Debug_lt_pred@AEBU?$less@VQString@@@std@@AEBVQString@@AEBV3@$0A@@std@@YA_NAEBU?$less@VQString@@@0@AEBVQString@@1@Z
	??$_Delete_plain_internal@V?$allocator@U_Container_proxy@std@@@std@@@std@@YAXAEAV?$allocator@U_Container_proxy@std@@@0@QEAU_Container_proxy@0@@Z
	??$_Destroy_in_place@PEAU?$_Tree_node@U?$pair@$$CBVQString@@PEAVQCheckBox@@@std@@PEAX@std@@@std@@YAXAEAPEAU?$_Tree_node@U?$pair@$$CBVQString@@PEAVQCheckBox@@@std@@PEAX@0@@Z
	??$_Destroy_in_place@PEAU?$_Tree_node@U?$pair@$$CBVQString@@PEAVRichParameterWidget@@@std@@PEAX@std@@@std@@YAXAEAPEAU?$_Tree_node@U?$pair@$$CBVQString@@PEAVRichParameterWidget@@@std@@PEAX@0@@Z
	??$_Destroy_in_place@PEAU?$_Tree_node@U?$pair@$$CBVQString@@V?$vector@PEBVRichParameter@@V?$allocator@PEBVRichParameter@@@std@@@std@@@std@@PEAX@std@@@std@@YAXAEAPEAU?$_Tree_node@U?$pair@$$CBVQString@@V?$vector@PEBVRichParameter@@V?$allocator@PEBVRichParameter@@@std@@@std@@@std@@PEAX@0@@Z
	??$_Destroy_in_place@PEAU?$_Tree_node@VQString@@PEAX@std@@@std@@YAXAEAPEAU?$_Tree_node@VQString@@PEAX@0@@Z
	??$_Destroy_in_place@VBoolValue@@@std@@YAXAEAVBoolValue@@@Z
	??$_Destroy_in_place@VColorValue@@@std@@YAXAEAVColorValue@@@Z
	??$_Destroy_in_place@VFloatValue@@@std@@YAXAEAVFloatValue@@@Z
	??$_Destroy_in_place@VIntValue@@@std@@YAXAEAVIntValue@@@Z
	??$_Destroy_in_place@VMatrix44Value@@@std@@YAXAEAVMatrix44Value@@@Z
	??$_Destroy_in_place@VPoint3Value@@@std@@YAXAEAVPoint3Value@@@Z
	??$_Destroy_in_place@VShotValue@@@std@@YAXAEAVShotValue@@@Z
	??$_Destroy_in_place@VStringValue@@@std@@YAXAEAVStringValue@@@Z
	??$_Destroy_range@V?$allocator@PEAVQWidget@@@std@@@std@@YAXPEAPEAVQWidget@@QEAPEAV1@AEAV?$allocator@PEAVQWidget@@@0@@Z
	??$_Destroy_range@V?$allocator@PEBVRichParameter@@@std@@@std@@YAXPEAPEBVRichParameter@@QEAPEBV1@AEAV?$allocator@PEBVRichParameter@@@0@@Z
	??$_Emplace@AEBVQString@@@?$_Tree@V?$_Tset_traits@VQString@@U?$less@VQString@@@std@@V?$allocator@VQString@@@3@$0A@@std@@@std@@IEAA?AU?$pair@PEAU?$_Tree_node@VQString@@PEAX@std@@_N@1@AEBVQString@@@Z
	??$_Emplace_back@PEAVQWidget@@@?$_Uninitialized_backout_al@V?$allocator@PEAVQWidget@@@std@@@std@@QEAAX$$QEAPEAVQWidget@@@Z
	??$_Emplace_back@PEBVRichParameter@@@?$_Uninitialized_backout_al@V?$allocator@PEBVRichParameter@@@std@@@std@@QEAAX$$QEAPEBVRichParameter@@@Z
	??$_Emplace_back_with_unused_capacity@PEAVQWidget@@@?$vector@PEAVQWidget@@V?$allocator@PEAVQWidget@@@std@@@std@@AEAA?A_T$$QEAPEAVQWidget@@@Z
	??$_Emplace_back_with_unused_capacity@PEBVRichParameter@@@?$vector@PEBVRichParameter@@V?$allocator@PEBVRichParameter@@@std@@@std@@AEAA?A_T$$QEAPEBVRichParameter@@@Z
	??$_Emplace_reallocate@PEAVQWidget@@@?$vector@PEAVQWidget@@V?$allocator@PEAVQWidget@@@std@@@std@@QEAAPEAPEAVQWidget@@QEAPEAV2@$$QEAPEAV2@@Z
	??$_Emplace_reallocate@PEBVRichParameter@@@?$vector@PEBVRichParameter@@V?$allocator@PEBVRichParameter@@@std@@@std@@QEAAPEAPEBVRichParameter@@QEAPEBV2@$$QEAPEBV2@@Z
	??$_Erase_head@V?$allocator@U?$_Tree_node@U?$pair@$$CBVQString@@PEAVQCheckBox@@@std@@PEAX@std@@@std@@@?$_Tree_val@U?$_Tree_simple_types@U?$pair@$$CBVQString@@PEAVQCheckBox@@@std@@@std@@@std@@QEAAXAEAV?$allocator@U?$_Tree_node@U?$pair@$$CBVQString@@PEAVQCheckBox@@@std@@PEAX@std@@@1@@Z
	??$_Erase_head@V?$allocator@U?$_Tree_node@U?$pair@$$CBVQString@@PEAVRichParameterWidget@@@std@@PEAX@std@@@std@@@?$_Tree_val@U?$_Tree_simple_types@U?$pair@$$CBVQString@@PEAVRichParameterWidget@@@std@@@std@@@std@@QEAAXAEAV?$allocator@U?$_Tree_node@U?$pair@$$CBVQString@@PEAVRichParameterWidget@@@std@@PEAX@std@@@1@@Z
	??$_Erase_head@V?$allocator@U?$_Tree_node@U?$pair@$$CBVQString@@V?$vector@PEBVRichParameter@@V?$allocator@PEBVRichParameter@@@std@@@std@@@std@@PEAX@std@@@std@@@?$_Tree_val@U?$_Tree_simple_types@U?$pair@$$CBVQString@@V?$vector@PEBVRichParameter@@V?$allocator@PEBVRichParameter@@@std@@@std@@@std@@@std@@@std@@QEAAXAEAV?$allocator@U?$_Tree_node@U?$pair@$$CBVQString@@V?$vector@PEBVRichParameter@@V?$allocator@PEBVRichParameter@@@std@@@std@@@std@@PEAX@std@@@1@@Z
	??$_Erase_head@V?$allocator@U?$_Tree_node@VQString@@PEAX@std@@@std@@@?$_Tree_val@U?$_Tree_simple_types@VQString@@@std@@@std@@QEAAXAEAV?$allocator@U?$_Tree_node@VQString@@PEAX@std@@@1@@Z
	??$_Erase_tree@V?$allocator@U?$_Tree_node@U?$pair@$$CBVQString@@PEAVQCheckBox@@@std@@PEAX@std@@@std@@@?$_Tree_val@U?$_Tree_simple_types@U?$pair@$$CBVQString@@PEAVQCheckBox@@@std@@@std@@@std@@QEAAXAEAV?$allocator@U?$_Tree_node@U?$pair@$$CBVQString@@PEAVQCheckBox@@@std@@PEAX@std@@@1@PEAU?$_Tree_node@U?$pair@$$CBVQString@@PEAVQCheckBox@@@std@@PEAX@1@@Z
	??$_Erase_tree@V?$allocator@U?$_Tree_node@U?$pair@$$CBVQString@@PEAVRichParameterWidget@@@std@@PEAX@std@@@std@@@?$_Tree_val@U?$_Tree_simple_types@U?$pair@$$CBVQString@@PEAVRichParameterWidget@@@std@@@std@@@std@@QEAAXAEAV?$allocator@U?$_Tree_node@U?$pair@$$CBVQString@@PEAVRichParameterWidget@@@std@@PEAX@std@@@1@PEAU?$_Tree_node@U?$pair@$$CBVQString@@PEAVRichParameterWidget@@@std@@PEAX@1@@Z
	??$_Erase_tree@V?$allocator@U?$_Tree_node@U?$pair@$$CBVQString@@V?$vector@PEBVRichParameter@@V?$allocator@PEBVRichParameter@@@std@@@std@@@std@@PEAX@std@@@std@@@?$_Tree_val@U?$_Tree_simple_types@U?$pair@$$CBVQString@@V?$vector@PEBVRichParameter@@V?$allocator@PEBVRichParameter@@@std@@@std@@@std@@@std@@@std@@QEAAXAEAV?$allocator@U?$_Tree_node@U?$pair@$$CBVQString@@V?$vector@PEBVRichParameter@@V?$allocator@PEBVRichParameter@@@std@@@std@@@std@@PEAX@std@@@1@PEAU?$_Tree_node@U?$pair@$$CBVQString@@V?$vector@PEBVRichParameter@@V?$allocator@PEBVRichParameter@@@std@@@std@@@std@@PEAX@1@@Z
	??$_Erase_tree@V?$allocator@U?$_Tree_node@VQString@@PEAX@std@@@std@@@?$_Tree_val@U?$_Tree_simple_types@VQString@@@std@@@std@@QEAAXAEAV?$allocator@U?$_Tree_node@VQString@@PEAX@std@@@1@PEAU?$_Tree_node@VQString@@PEAX@1@@Z
	??$_Fill_zero_memset@PEAM@std@@YAXPEAM_K@Z
	??$_Find_lower_bound@VQString@@@?$_Tree@V?$_Tmap_traits@VQString@@PEAVQCheckBox@@U?$less@VQString@@@std@@V?$allocator@U?$pair@$$CBVQString@@PEAVQCheckBox@@@std@@@4@$0A@@std@@@std@@IEBA?AU?$_Tree_find_result@PEAU?$_Tree_node@U?$pair@$$CBVQString@@PEAVQCheckBox@@@std@@PEAX@std@@@1@AEBVQString@@@Z
	??$_Find_lower_bound@VQString@@@?$_Tree@V?$_Tmap_traits@VQString@@PEAVRichParameterWidget@@U?$less@VQString@@@std@@V?$allocator@U?$pair@$$CBVQString@@PEAVRichParameterWidget@@@std@@@4@$0A@@std@@@std@@IEBA?AU?$_Tree_find_result@PEAU?$_Tree_node@U?$pair@$$CBVQString@@PEAVRichParameterWidget@@@std@@PEAX@std@@@1@AEBVQString@@@Z
	??$_Find_lower_bound@VQString@@@?$_Tree@V?$_Tmap_traits@VQString@@V?$vector@PEBVRichParameter@@V?$allocator@PEBVRichParameter@@@std@@@std@@U?$less@VQString@@@3@V?$allocator@U?$pair@$$CBVQString@@V?$vector@PEBVRichParameter@@V?$allocator@PEBVRichParameter@@@std@@@std@@@std@@@3@$0A@@std@@@std@@IEBA?AU?$_Tree_find_result@PEAU?$_Tree_node@U?$pair@$$CBVQString@@V?$vector@PEBVRichParameter@@V?$allocator@PEBVRichParameter@@@std@@@std@@@std@@PEAX@std@@@1@AEBVQString@@@Z
	??$_Find_lower_bound@VQString@@@?$_Tree@V?$_Tset_traits@VQString@@U?$less@VQString@@@std@@V?$allocator@VQString@@@3@$0A@@std@@@std@@IEBA?AU?$_Tree_find_result@PEAU?$_Tree_node@VQString@@PEAX@std@@@1@AEBVQString@@@Z
	??$_Freenode0@V?$allocator@U?$_Tree_node@U?$pair@$$CBVQString@@PEAVQCheckBox@@@std@@PEAX@std@@@std@@@?$_Tree_node@U?$pair@$$CBVQString@@PEAVQCheckBox@@@std@@PEAX@std@@SAXAEAV?$allocator@U?$_Tree_node@U?$pair@$$CBVQString@@PEAVQCheckBox@@@std@@PEAX@std@@@1@PEAU01@@Z
	??$_Freenode0@V?$allocator@U?$_Tree_node@U?$pair@$$CBVQString@@PEAVRichParameterWidget@@@std@@PEAX@std@@@std@@@?$_Tree_node@U?$pair@$$CBVQString@@PEAVRichParameterWidget@@@std@@PEAX@std@@SAXAEAV?$allocator@U?$_Tree_node@U?$pair@$$CBVQString@@PEAVRichParameterWidget@@@std@@PEAX@std@@@1@PEAU01@@Z
	??$_Freenode0@V?$allocator@U?$_Tree_node@U?$pair@$$CBVQString@@V?$vector@PEBVRichParameter@@V?$allocator@PEBVRichParameter@@@std@@@std@@@std@@PEAX@std@@@std@@@?$_Tree_node@U?$pair@$$CBVQString@@V?$vector@PEBVRichParameter@@V?$allocator@PEBVRichParameter@@@std@@@std@@@std@@PEAX@std@@SAXAEAV?$allocator@U?$_Tree_node@U?$pair@$$CBVQString@@V?$vector@PEBVRichParameter@@V?$allocator@PEBVRichParameter@@@std@@@std@@@std@@PEAX@std@@@1@PEAU01@@Z
	??$_Freenode0@V?$allocator@U?$_Tree_node@VQString@@PEAX@std@@@std@@@?$_Tree_node@VQString@@PEAX@std@@SAXAEAV?$allocator@U?$_Tree_node@VQString@@PEAX@std@@@1@PEAU01@@Z
	??$_Freenode@V?$allocator@U?$_Tree_node@U?$pair@$$CBVQString@@PEAVQCheckBox@@@std@@PEAX@std@@@std@@@?$_Tree_node@U?$pair@$$CBVQString@@PEAVQCheckBox@@@std@@PEAX@std@@SAXAEAV?$allocator@U?$_Tree_node@U?$pair@$$CBVQString@@PEAVQCheckBox@@@std@@PEAX@std@@@1@PEAU01@@Z
	??$_Freenode@V?$allocator@U?$_Tree_node@U?$pair@$$CBVQString@@PEAVRichParameterWidget@@@std@@PEAX@std@@@std@@@?$_Tree_node@U?$pair@$$CBVQString@@PEAVRichParameterWidget@@@std@@PEAX@std@@SAXAEAV?$allocator@U?$_Tree_node@U?$pair@$$CBVQString@@PEAVRichParameterWidget@@@std@@PEAX@std@@@1@PEAU01@@Z
	??$_Freenode@V?$allocator@U?$_Tree_node@U?$pair@$$CBVQString@@V?$vector@PEBVRichParameter@@V?$allocator@PEBVRichParameter@@@std@@@std@@@std@@PEAX@std@@@std@@@?$_Tree_node@U?$pair@$$CBVQString@@V?$vector@PEBVRichParameter@@V?$allocator@PEBVRichParameter@@@std@@@std@@@std@@PEAX@std@@SAXAEAV?$allocator@U?$_Tree_node@U?$pair@$$CBVQString@@V?$vector@PEBVRichParameter@@V?$allocator@PEBVRichParameter@@@std@@@std@@@std@@PEAX@std@@@1@PEAU01@@Z
	??$_Freenode@V?$allocator@U?$_Tree_node@VQString@@PEAX@std@@@std@@@?$_Tree_node@VQString@@PEAX@std@@SAXAEAV?$allocator@U?$_Tree_node@VQString@@PEAX@std@@@1@PEAU01@@Z
	??$_Get_size_of_n@$07@std@@YA_K_K@Z
	??$_Get_size_of_n@$0BA@@std@@YA_K_K@Z
	??$_Get_size_of_n@$0CI@@std@@YA_K_K@Z
	??$_Get_size_of_n@$0DA@@std@@YA_K_K@Z
	??$_Get_size_of_n@$0EI@@std@@YA_K_K@Z
	??$_Get_unwrapped@AEBQEAPEAVQWidget@@@std@@YA?A_TAEBQEAPEAVQWidget@@@Z
	??$_Get_unwrapped@AEBQEAPEBVRichParameter@@@std@@YA?A_TAEBQEAPEBVRichParameter@@@Z
	??$_Get_unwrapped_n@AEAPEAM_K@std@@YA?A_TAEAPEAM_K@Z
	??$_Get_unwrapped_n@V?$_List_const_iterator@V?$_List_val@U?$_List_simple_types@VMeshModel@@@std@@@std@@@std@@H@std@@YA?A_T$$QEAV?$_List_const_iterator@V?$_List_val@U?$_List_simple_types@VMeshModel@@@std@@@std@@@0@H@Z
	??$_Is_all_bits_zero@M@std@@YA_NAEBM@Z
	??$_Kfn@$$CBVQString@@PEAVQCheckBox@@@?$_Tmap_traits@VQString@@PEAVQCheckBox@@U?$less@VQString@@@std@@V?$allocator@U?$pair@$$CBVQString@@PEAVQCheckBox@@@std@@@4@$0A@@std@@SAAEBVQString@@AEBU?$pair@$$CBVQString@@PEAVQCheckBox@@@1@@Z
	??$_Kfn@$$CBVQString@@PEAVRichParameterWidget@@@?$_Tmap_traits@VQString@@PEAVRichParameterWidget@@U?$less@VQString@@@std@@V?$allocator@U?$pair@$$CBVQString@@PEAVRichParameterWidget@@@std@@@4@$0A@@std@@SAAEBVQString@@AEBU?$pair@$$CBVQString@@PEAVRichParameterWidget@@@1@@Z
	??$_Kfn@$$CBVQString@@V?$vector@PEBVRichParameter@@V?$allocator@PEBVRichParameter@@@std@@@std@@@?$_Tmap_traits@VQString@@V?$vector@PEBVRichParameter@@V?$allocator@PEBVRichParameter@@@std@@@std@@U?$less@VQString@@@3@V?$allocator@U?$pair@$$CBVQString@@V?$vector@PEBVRichParameter@@V?$allocator@PEBVRichParameter@@@std@@@std@@@std@@@3@$0A@@std@@SAAEBVQString@@AEBU?$pair@$$CBVQString@@V?$vector@PEBVRichParameter@@V?$allocator@PEBVRichParameter@@@std@@@std@@@1@@Z
	??$_Lower_bound_duplicate@VQString@@@?$_Tree@V?$_Tmap_traits@VQString@@PEAVQCheckBox@@U?$less@VQString@@@std@@V?$allocator@U?$pair@$$CBVQString@@PEAVQCheckBox@@@std@@@4@$0A@@std@@@std@@IEBA_NQEAU?$_Tree_node@U?$pair@$$CBVQString@@PEAVQCheckBox@@@std@@PEAX@1@AEBVQString@@@Z
	??$_Lower_bound_duplicate@VQString@@@?$_Tree@V?$_Tmap_traits@VQString@@PEAVRichParameterWidget@@U?$less@VQString@@@std@@V?$allocator@U?$pair@$$CBVQString@@PEAVRichParameterWidget@@@std@@@4@$0A@@std@@@std@@IEBA_NQEAU?$_Tree_node@U?$pair@$$CBVQString@@PEAVRichParameterWidget@@@std@@PEAX@1@AEBVQString@@@Z
	??$_Lower_bound_duplicate@VQString@@@?$_Tree@V?$_Tmap_traits@VQString@@V?$vector@PEBVRichParameter@@V?$allocator@PEBVRichParameter@@@std@@@std@@U?$less@VQString@@@3@V?$allocator@U?$pair@$$CBVQString@@V?$vector@PEBVRichParameter@@V?$allocator@PEBVRichParameter@@@std@@@std@@@std@@@3@$0A@@std@@@std@@IEBA_NQEAU?$_Tree_node@U?$pair@$$CBVQString@@V?$vector@PEBVRichParameter@@V?$allocator@PEBVRichParameter@@@std@@@std@@@std@@PEAX@1@AEBVQString@@@Z
	??$_Lower_bound_duplicate@VQString@@@?$_Tree@V?$_Tset_traits@VQString@@U?$less@VQString@@@std@@V?$allocator@VQString@@@3@$0A@@std@@@std@@IEBA_NQEAU?$_Tree_node@VQString@@PEAX@1@AEBVQString@@@Z
	??$_Move_construct_from@VBoolValue@@@?$_Ptr_base@VBoolValue@@@std@@IEAAX$$QEAV01@@Z
	??$_Move_construct_from@VBoolValue@@@?$_Ptr_base@VValue@@@std@@IEAAX$$QEAV?$_Ptr_base@VBoolValue@@@1@@Z
	??$_Move_construct_from@VColorValue@@@?$_Ptr_base@VColorValue@@@std@@IEAAX$$QEAV01@@Z
	??$_Move_construct_from@VColorValue@@@?$_Ptr_base@VValue@@@std@@IEAAX$$QEAV?$_Ptr_base@VColorValue@@@1@@Z
	??$_Move_construct_from@VFloatValue@@@?$_Ptr_base@VFloatValue@@@std@@IEAAX$$QEAV01@@Z
	??$_Move_construct_from@VFloatValue@@@?$_Ptr_base@VValue@@@std@@IEAAX$$QEAV?$_Ptr_base@VFloatValue@@@1@@Z
	??$_Move_construct_from@VIntValue@@@?$_Ptr_base@VIntValue@@@std@@IEAAX$$QEAV01@@Z
	??$_Move_construct_from@VIntValue@@@?$_Ptr_base@VValue@@@std@@IEAAX$$QEAV?$_Ptr_base@VIntValue@@@1@@Z
	??$_Move_construct_from@VMatrix44Value@@@?$_Ptr_base@VMatrix44Value@@@std@@IEAAX$$QEAV01@@Z
	??$_Move_construct_from@VMatrix44Value@@@?$_Ptr_base@VValue@@@std@@IEAAX$$QEAV?$_Ptr_base@VMatrix44Value@@@1@@Z
	??$_Move_construct_from@VPoint3Value@@@?$_Ptr_base@VPoint3Value@@@std@@IEAAX$$QEAV01@@Z
	??$_Move_construct_from@VPoint3Value@@@?$_Ptr_base@VValue@@@std@@IEAAX$$QEAV?$_Ptr_base@VPoint3Value@@@1@@Z
	??$_Move_construct_from@VShotValue@@@?$_Ptr_base@VShotValue@@@std@@IEAAX$$QEAV01@@Z
	??$_Move_construct_from@VShotValue@@@?$_Ptr_base@VValue@@@std@@IEAAX$$QEAV?$_Ptr_base@VShotValue@@@1@@Z
	??$_Move_construct_from@VStringValue@@@?$_Ptr_base@VStringValue@@@std@@IEAAX$$QEAV01@@Z
	??$_Move_construct_from@VStringValue@@@?$_Ptr_base@VValue@@@std@@IEAAX$$QEAV?$_Ptr_base@VStringValue@@@1@@Z
	??$_Seek_wrapped@PEAMAEAPEAM@std@@YAXAEAPEAM0@Z
	??$_Seek_wrapped@PEAMPEAM@std@@YAXAEAPEAM$$QEAPEAM@Z
	??$_Set_ptr_rep_and_enable_shared@VBoolValue@@@?$shared_ptr@VBoolValue@@@std@@AEAAXQEAVBoolValue@@QEAV_Ref_count_base@1@@Z
	??$_Set_ptr_rep_and_enable_shared@VColorValue@@@?$shared_ptr@VColorValue@@@std@@AEAAXQEAVColorValue@@QEAV_Ref_count_base@1@@Z
	??$_Set_ptr_rep_and_enable_shared@VFloatValue@@@?$shared_ptr@VFloatValue@@@std@@AEAAXQEAVFloatValue@@QEAV_Ref_count_base@1@@Z
	??$_Set_ptr_rep_and_enable_shared@VIntValue@@@?$shared_ptr@VIntValue@@@std@@AEAAXQEAVIntValue@@QEAV_Ref_count_base@1@@Z
	??$_Set_ptr_rep_and_enable_shared@VMatrix44Value@@@?$shared_ptr@VMatrix44Value@@@std@@AEAAXQEAVMatrix44Value@@QEAV_Ref_count_base@1@@Z
	??$_Set_ptr_rep_and_enable_shared@VPoint3Value@@@?$shared_ptr@VPoint3Value@@@std@@AEAAXQEAVPoint3Value@@QEAV_Ref_count_base@1@@Z
	??$_Set_ptr_rep_and_enable_shared@VShotValue@@@?$shared_ptr@VShotValue@@@std@@AEAAXQEAVShotValue@@QEAV_Ref_count_base@1@@Z
	??$_Set_ptr_rep_and_enable_shared@VStringValue@@@?$shared_ptr@VStringValue@@@std@@AEAAXQEAVStringValue@@QEAV_Ref_count_base@1@@Z
	??$_To_address@PEAM@std@@YA?A_PAEBQEAM@Z
	??$_To_address@PEAPEAVQWidget@@@std@@YA?A_PAEBQEAPEAVQWidget@@@Z
	??$_To_address@PEAPEBVRichParameter@@@std@@YA?A_PAEBQEAPEBVRichParameter@@@Z
	??$_Try_emplace@AEBVQString@@$$V@?$map@VQString@@PEAVQCheckBox@@U?$less@VQString@@@std@@V?$allocator@U?$pair@$$CBVQString@@PEAVQCheckBox@@@std@@@4@@std@@AEAA?AU?$pair@PEAU?$_Tree_node@U?$pair@$$CBVQString@@PEAVQCheckBox@@@std@@PEAX@std@@_N@1@AEBVQString@@@Z
	??$_Try_emplace@AEBVQString@@$$V@?$map@VQString@@PEAVRichParameterWidget@@U?$less@VQString@@@std@@V?$allocator@U?$pair@$$CBVQString@@PEAVRichParameterWidget@@@std@@@4@@std@@AEAA?AU?$pair@PEAU?$_Tree_node@U?$pair@$$CBVQString@@PEAVRichParameterWidget@@@std@@PEAX@std@@_N@1@AEBVQString@@@Z
	??$_Try_emplace@AEBVQString@@$$V@?$map@VQString@@V?$vector@PEBVRichParameter@@V?$allocator@PEBVRichParameter@@@std@@@std@@U?$less@VQString@@@3@V?$allocator@U?$pair@$$CBVQString@@V?$vector@PEBVRichParameter@@V?$allocator@PEBVRichParameter@@@std@@@std@@@std@@@3@@std@@AEAA?AU?$pair@PEAU?$_Tree_node@U?$pair@$$CBVQString@@V?$vector@PEBVRichParameter@@V?$allocator@PEBVRichParameter@@@std@@@std@@@std@@PEAX@std@@_N@1@AEBVQString@@@Z
	??$_Tuple_get@$0A@AEBVQString@@@std@@YA$$QEA_P$$QEAV?$tuple@AEBVQString@@@0@@Z
	??$_Unfancy@PEAVQWidget@@@std@@YAPEAPEAVQWidget@@PEAPEAV1@@Z
	??$_Unfancy@PEBVRichParameter@@@std@@YAPEAPEBVRichParameter@@PEAPEBV1@@Z
	??$_Unfancy@U_Container_proxy@std@@@std@@YAPEAU_Container_proxy@0@PEAU10@@Z
	??$_Uninitialized_move@PEAPEAVQWidget@@V?$allocator@PEAVQWidget@@@std@@@std@@YAPEAPEAVQWidget@@QEAPEAV1@0PEAPEAV1@AEAV?$allocator@PEAVQWidget@@@0@@Z
	??$_Uninitialized_move@PEAPEBVRichParameter@@V?$allocator@PEBVRichParameter@@@std@@@std@@YAPEAPEBVRichParameter@@QEAPEBV1@0PEAPEBV1@AEAV?$allocator@PEBVRichParameter@@@0@@Z
	??$_Voidify_iter@PEAPEAU?$_Tree_node@U?$pair@$$CBVQString@@PEAVQCheckBox@@@std@@PEAX@std@@@std@@YAPEAXPEAPEAU?$_Tree_node@U?$pair@$$CBVQString@@PEAVQCheckBox@@@std@@PEAX@0@@Z
	??$_Voidify_iter@PEAPEAU?$_Tree_node@U?$pair@$$CBVQString@@PEAVRichParameterWidget@@@std@@PEAX@std@@@std@@YAPEAXPEAPEAU?$_Tree_node@U?$pair@$$CBVQString@@PEAVRichParameterWidget@@@std@@PEAX@0@@Z
	??$_Voidify_iter@PEAPEAU?$_Tree_node@U?$pair@$$CBVQString@@V?$vector@PEBVRichParameter@@V?$allocator@PEBVRichParameter@@@std@@@std@@@std@@PEAX@std@@@std@@YAPEAXPEAPEAU?$_Tree_node@U?$pair@$$CBVQString@@V?$vector@PEBVRichParameter@@V?$allocator@PEBVRichParameter@@@std@@@std@@@std@@PEAX@0@@Z
	??$_Voidify_iter@PEAPEAU?$_Tree_node@VQString@@PEAX@std@@@std@@YAPEAXPEAPEAU?$_Tree_node@VQString@@PEAX@0@@Z
	??$_Voidify_iter@PEAPEAVQWidget@@@std@@YAPEAXPEAPEAVQWidget@@@Z
	??$_Voidify_iter@PEAPEBVRichParameter@@@std@@YAPEAXPEAPEBVRichParameter@@@Z
	??$_Voidify_iter@PEAU?$pair@$$CBVQString@@PEAVQCheckBox@@@std@@@std@@YAPEAXPEAU?$pair@$$CBVQString@@PEAVQCheckBox@@@0@@Z
	??$_Voidify_iter@PEAU?$pair@$$CBVQString@@PEAVRichParameterWidget@@@std@@@std@@YAPEAXPEAU?$pair@$$CBVQString@@PEAVRichParameterWidget@@@0@@Z
	??$_Voidify_iter@PEAU?$pair@$$CBVQString@@V?$vector@PEBVRichParameter@@V?$allocator@PEBVRichParameter@@@std@@@std@@@std@@@std@@YAPEAXPEAU?$pair@$$CBVQString@@V?$vector@PEBVRichParameter@@V?$allocator@PEBVRichParameter@@@std@@@std@@@0@@Z
	??$_Voidify_iter@PEAU_Container_proxy@std@@@std@@YAPEAXPEAU_Container_proxy@0@@Z
	??$_Voidify_iter@PEAVBoolValue@@@std@@YAPEAXPEAVBoolValue@@@Z
	??$_Voidify_iter@PEAVColorValue@@@std@@YAPEAXPEAVColorValue@@@Z
	??$_Voidify_iter@PEAVFloatValue@@@std@@YAPEAXPEAVFloatValue@@@Z
	??$_Voidify_iter@PEAVIntValue@@@std@@YAPEAXPEAVIntValue@@@Z
	??$_Voidify_iter@PEAVMatrix44Value@@@std@@YAPEAXPEAVMatrix44Value@@@Z
	??$_Voidify_iter@PEAVPoint3Value@@@std@@YAPEAXPEAVPoint3Value@@@Z
	??$_Voidify_iter@PEAVQString@@@std@@YAPEAXPEAVQString@@@Z
	??$_Voidify_iter@PEAVShotValue@@@std@@YAPEAXPEAVShotValue@@@Z
	??$_Voidify_iter@PEAVStringValue@@@std@@YAPEAXPEAVStringValue@@@Z
	??$addressof@$$CBV?$_Tree_val@U?$_Tree_simple_types@U?$pair@$$CBVQString@@PEAVQCheckBox@@@std@@@std@@@std@@@std@@YAPEBV?$_Tree_val@U?$_Tree_simple_types@U?$pair@$$CBVQString@@PEAVQCheckBox@@@std@@@std@@@0@AEBV10@@Z
	??$addressof@$$CBV?$_Tree_val@U?$_Tree_simple_types@U?$pair@$$CBVQString@@PEAVRichParameterWidget@@@std@@@std@@@std@@@std@@YAPEBV?$_Tree_val@U?$_Tree_simple_types@U?$pair@$$CBVQString@@PEAVRichParameterWidget@@@std@@@std@@@0@AEBV10@@Z
	??$addressof@$$CBV?$_Tree_val@U?$_Tree_simple_types@U?$pair@$$CBVQString@@V?$vector@PEBVRichParameter@@V?$allocator@PEBVRichParameter@@@std@@@std@@@std@@@std@@@std@@@std@@YAPEBV?$_Tree_val@U?$_Tree_simple_types@U?$pair@$$CBVQString@@V?$vector@PEBVRichParameter@@V?$allocator@PEBVRichParameter@@@std@@@std@@@std@@@std@@@0@AEBV10@@Z
	??$addressof@$$CBV?$_Tree_val@U?$_Tree_simple_types@VQString@@@std@@@std@@@std@@YAPEBV?$_Tree_val@U?$_Tree_simple_types@VQString@@@std@@@0@AEBV10@@Z
	??$addressof@PEAU?$_Tree_node@U?$pair@$$CBVQString@@PEAVQCheckBox@@@std@@PEAX@std@@@std@@YAPEAPEAU?$_Tree_node@U?$pair@$$CBVQString@@PEAVQCheckBox@@@std@@PEAX@0@AEAPEAU10@@Z
	??$addressof@PEAU?$_Tree_node@U?$pair@$$CBVQString@@PEAVRichParameterWidget@@@std@@PEAX@std@@@std@@YAPEAPEAU?$_Tree_node@U?$pair@$$CBVQString@@PEAVRichParameterWidget@@@std@@PEAX@0@AEAPEAU10@@Z
	??$addressof@PEAU?$_Tree_node@U?$pair@$$CBVQString@@V?$vector@PEBVRichParameter@@V?$allocator@PEBVRichParameter@@@std@@@std@@@std@@PEAX@std@@@std@@YAPEAPEAU?$_Tree_node@U?$pair@$$CBVQString@@V?$vector@PEBVRichParameter@@V?$allocator@PEBVRichParameter@@@std@@@std@@@std@@PEAX@0@AEAPEAU10@@Z
	??$addressof@PEAU?$_Tree_node@VQString@@PEAX@std@@@std@@YAPEAPEAU?$_Tree_node@VQString@@PEAX@0@AEAPEAU10@@Z
	??$addressof@U?$pair@$$CBVQString@@PEAVQCheckBox@@@std@@@std@@YAPEAU?$pair@$$CBVQString@@PEAVQCheckBox@@@0@AEAU10@@Z
	??$addressof@U?$pair@$$CBVQString@@PEAVRichParameterWidget@@@std@@@std@@YAPEAU?$pair@$$CBVQString@@PEAVRichParameterWidget@@@0@AEAU10@@Z
	??$addressof@U?$pair@$$CBVQString@@V?$vector@PEBVRichParameter@@V?$allocator@PEBVRichParameter@@@std@@@std@@@std@@@std@@YAPEAU?$pair@$$CBVQString@@V?$vector@PEBVRichParameter@@V?$allocator@PEBVRichParameter@@@std@@@std@@@0@AEAU10@@Z
	??$addressof@U_Container_base12@std@@@std@@YAPEAU_Container_base12@0@AEAU10@@Z
	??$addressof@U_Container_proxy@std@@@std@@YAPEAU_Container_proxy@0@AEAU10@@Z
	??$addressof@V?$_Tree_val@U?$_Tree_simple_types@U?$pair@$$CBVQString@@PEAVQCheckBox@@@std@@@std@@@std@@@std@@YAPEAV?$_Tree_val@U?$_Tree_simple_types@U?$pair@$$CBVQString@@PEAVQCheckBox@@@std@@@std@@@0@AEAV10@@Z
	??$addressof@V?$_Tree_val@U?$_Tree_simple_types@U?$pair@$$CBVQString@@PEAVRichParameterWidget@@@std@@@std@@@std@@@std@@YAPEAV?$_Tree_val@U?$_Tree_simple_types@U?$pair@$$CBVQString@@PEAVRichParameterWidget@@@std@@@std@@@0@AEAV10@@Z
	??$addressof@V?$_Tree_val@U?$_Tree_simple_types@U?$pair@$$CBVQString@@V?$vector@PEBVRichParameter@@V?$allocator@PEBVRichParameter@@@std@@@std@@@std@@@std@@@std@@@std@@YAPEAV?$_Tree_val@U?$_Tree_simple_types@U?$pair@$$CBVQString@@V?$vector@PEBVRichParameter@@V?$allocator@PEBVRichParameter@@@std@@@std@@@std@@@std@@@0@AEAV10@@Z
	??$addressof@V?$_Tree_val@U?$_Tree_simple_types@VQString@@@std@@@std@@@std@@YAPEAV?$_Tree_val@U?$_Tree_simple_types@VQString@@@std@@@0@AEAV10@@Z
	??$addressof@VBoolValue@@@std@@YAPEAVBoolValue@@AEAV1@@Z
	??$addressof@VColorValue@@@std@@YAPEAVColorValue@@AEAV1@@Z
	??$addressof@VFloatValue@@@std@@YAPEAVFloatValue@@AEAV1@@Z
	??$addressof@VIntValue@@@std@@YAPEAVIntValue@@AEAV1@@Z
	??$addressof@VMatrix44Value@@@std@@YAPEAVMatrix44Value@@AEAV1@@Z
	??$addressof@VPoint3Value@@@std@@YAPEAVPoint3Value@@AEAV1@@Z
	??$addressof@VQString@@@std@@YAPEAVQString@@AEAV1@@Z
	??$addressof@VShotValue@@@std@@YAPEAVShotValue@@AEAV1@@Z
	??$addressof@VStringValue@@@std@@YAPEAVStringValue@@AEAV1@@Z
	??$advance@V?$_List_const_iterator@V?$_List_val@U?$_List_simple_types@VMeshModel@@@std@@@std@@@std@@H@std@@YAXAEAV?$_List_const_iterator@V?$_List_val@U?$_List_simple_types@VMeshModel@@@std@@@std@@@0@H@Z
	??$construct@PEAVQWidget@@PEAV1@@?$_Default_allocator_traits@V?$allocator@PEAVQWidget@@@std@@@std@@SAXAEAV?$allocator@PEAVQWidget@@@1@QEAPEAVQWidget@@$$QEAPEAV3@@Z
	??$construct@PEBVRichParameter@@PEBV1@@?$_Default_allocator_traits@V?$allocator@PEBVRichParameter@@@std@@@std@@SAXAEAV?$allocator@PEBVRichParameter@@@1@QEAPEBVRichParameter@@$$QEAPEBV3@@Z
	??$construct@U?$pair@$$CBVQString@@PEAVQCheckBox@@@std@@AEBUpiecewise_construct_t@2@V?$tuple@AEBVQString@@@2@V?$tuple@$$V@2@@?$_Default_allocator_traits@V?$allocator@U?$_Tree_node@U?$pair@$$CBVQString@@PEAVQCheckBox@@@std@@PEAX@std@@@std@@@std@@SAXAEAV?$allocator@U?$_Tree_node@U?$pair@$$CBVQString@@PEAVQCheckBox@@@std@@PEAX@std@@@1@QEAU?$pair@$$CBVQString@@PEAVQCheckBox@@@1@AEBUpiecewise_construct_t@1@$$QEAV?$tuple@AEBVQString@@@1@$$QEAV?$tuple@$$V@1@@Z
	??$construct@U?$pair@$$CBVQString@@PEAVRichParameterWidget@@@std@@AEBUpiecewise_construct_t@2@V?$tuple@AEBVQString@@@2@V?$tuple@$$V@2@@?$_Default_allocator_traits@V?$allocator@U?$_Tree_node@U?$pair@$$CBVQString@@PEAVRichParameterWidget@@@std@@PEAX@std@@@std@@@std@@SAXAEAV?$allocator@U?$_Tree_node@U?$pair@$$CBVQString@@PEAVRichParameterWidget@@@std@@PEAX@std@@@1@QEAU?$pair@$$CBVQString@@PEAVRichParameterWidget@@@1@AEBUpiecewise_construct_t@1@$$QEAV?$tuple@AEBVQString@@@1@$$QEAV?$tuple@$$V@1@@Z
	??$construct@U?$pair@$$CBVQString@@V?$vector@PEBVRichParameter@@V?$allocator@PEBVRichParameter@@@std@@@std@@@std@@AEBUpiecewise_construct_t@2@V?$tuple@AEBVQString@@@2@V?$tuple@$$V@2@@?$_Default_allocator_traits@V?$allocator@U?$_Tree_node@U?$pair@$$CBVQString@@V?$vector@PEBVRichParameter@@V?$allocator@PEBVRichParameter@@@std@@@std@@@std@@PEAX@std@@@std@@@std@@SAXAEAV?$allocator@U?$_Tree_node@U?$pair@$$CBVQString@@V?$vector@PEBVRichParameter@@V?$allocator@PEBVRichParameter@@@std@@@std@@@std@@PEAX@std@@@1@QEAU?$pair@$$CBVQString@@V?$vector@PEBVRichParameter@@V?$allocator@PEBVRichParameter@@@std@@@std@@@1@AEBUpiecewise_construct_t@1@$$QEAV?$tuple@AEBVQString@@@1@$$QEAV?$tuple@$$V@1@@Z
	??$construct@VQString@@AEBV1@@?$_Default_allocator_traits@V?$allocator@U?$_Tree_node@VQString@@PEAX@std@@@std@@@std@@SAXAEAV?$allocator@U?$_Tree_node@VQString@@PEAX@std@@@1@QEAVQString@@AEBV3@@Z
	??$deref@H@?$QAtomicOps@H@@SA_NAEAU?$atomic@H@std@@@Z
	??$destroy@U?$pair@$$CBVQString@@PEAVQCheckBox@@@std@@@?$_Default_allocator_traits@V?$allocator@U?$_Tree_node@U?$pair@$$CBVQString@@PEAVQCheckBox@@@std@@PEAX@std@@@std@@@std@@SAXAEAV?$allocator@U?$_Tree_node@U?$pair@$$CBVQString@@PEAVQCheckBox@@@std@@PEAX@std@@@1@QEAU?$pair@$$CBVQString@@PEAVQCheckBox@@@1@@Z
	??$destroy@U?$pair@$$CBVQString@@PEAVRichParameterWidget@@@std@@@?$_Default_allocator_traits@V?$allocator@U?$_Tree_node@U?$pair@$$CBVQString@@PEAVRichParameterWidget@@@std@@PEAX@std@@@std@@@std@@SAXAEAV?$allocator@U?$_Tree_node@U?$pair@$$CBVQString@@PEAVRichParameterWidget@@@std@@PEAX@std@@@1@QEAU?$pair@$$CBVQString@@PEAVRichParameterWidget@@@1@@Z
	??$destroy@U?$pair@$$CBVQString@@V?$vector@PEBVRichParameter@@V?$allocator@PEBVRichParameter@@@std@@@std@@@std@@@?$_Default_allocator_traits@V?$allocator@U?$_Tree_node@U?$pair@$$CBVQString@@V?$vector@PEBVRichParameter@@V?$allocator@PEBVRichParameter@@@std@@@std@@@std@@PEAX@std@@@std@@@std@@SAXAEAV?$allocator@U?$_Tree_node@U?$pair@$$CBVQString@@V?$vector@PEBVRichParameter@@V?$allocator@PEBVRichParameter@@@std@@@std@@@std@@PEAX@std@@@1@QEAU?$pair@$$CBVQString@@V?$vector@PEBVRichParameter@@V?$allocator@PEBVRichParameter@@@std@@@std@@@1@@Z
	??$destroy@VQString@@@?$_Default_allocator_traits@V?$allocator@U?$_Tree_node@VQString@@PEAX@std@@@std@@@std@@SAXAEAV?$allocator@U?$_Tree_node@VQString@@PEAX@std@@@1@QEAVQString@@@Z
	??$emplace_back@PEAVQWidget@@@?$vector@PEAVQWidget@@V?$allocator@PEAVQWidget@@@std@@@std@@QEAA?A_T$$QEAPEAVQWidget@@@Z
	??$emplace_back@PEBVRichParameter@@@?$vector@PEBVRichParameter@@V?$allocator@PEBVRichParameter@@@std@@@std@@QEAA?A_T$$QEAPEBVRichParameter@@@Z
	??$exchange@PEAU?$_Tree_node@U?$pair@$$CBVQString@@PEAVQCheckBox@@@std@@PEAX@std@@$$T@std@@YAPEAU?$_Tree_node@U?$pair@$$CBVQString@@PEAVQCheckBox@@@std@@PEAX@0@AEAPEAU10@$$QEA$$T@Z
	??$exchange@PEAU?$_Tree_node@U?$pair@$$CBVQString@@PEAVQCheckBox@@@std@@PEAX@std@@AEAPEAU12@@std@@YAPEAU?$_Tree_node@U?$pair@$$CBVQString@@PEAVQCheckBox@@@std@@PEAX@0@AEAPEAU10@0@Z
	??$exchange@PEAU?$_Tree_node@U?$pair@$$CBVQString@@PEAVRichParameterWidget@@@std@@PEAX@std@@$$T@std@@YAPEAU?$_Tree_node@U?$pair@$$CBVQString@@PEAVRichParameterWidget@@@std@@PEAX@0@AEAPEAU10@$$QEA$$T@Z
	??$exchange@PEAU?$_Tree_node@U?$pair@$$CBVQString@@PEAVRichParameterWidget@@@std@@PEAX@std@@AEAPEAU12@@std@@YAPEAU?$_Tree_node@U?$pair@$$CBVQString@@PEAVRichParameterWidget@@@std@@PEAX@0@AEAPEAU10@0@Z
	??$exchange@PEAU?$_Tree_node@U?$pair@$$CBVQString@@V?$vector@PEBVRichParameter@@V?$allocator@PEBVRichParameter@@@std@@@std@@@std@@PEAX@std@@$$T@std@@YAPEAU?$_Tree_node@U?$pair@$$CBVQString@@V?$vector@PEBVRichParameter@@V?$allocator@PEBVRichParameter@@@std@@@std@@@std@@PEAX@0@AEAPEAU10@$$QEA$$T@Z
	??$exchange@PEAU?$_Tree_node@U?$pair@$$CBVQString@@V?$vector@PEBVRichParameter@@V?$allocator@PEBVRichParameter@@@std@@@std@@@std@@PEAX@std@@AEAPEAU12@@std@@YAPEAU?$_Tree_node@U?$pair@$$CBVQString@@V?$vector@PEBVRichParameter@@V?$allocator@PEBVRichParameter@@@std@@@std@@@std@@PEAX@0@AEAPEAU10@0@Z
	??$exchange@PEAU?$_Tree_node@VQString@@PEAX@std@@$$T@std@@YAPEAU?$_Tree_node@VQString@@PEAX@0@AEAPEAU10@$$QEA$$T@Z
	??$exchange@PEAU?$_Tree_node@VQString@@PEAX@std@@AEAPEAU12@@std@@YAPEAU?$_Tree_node@VQString@@PEAX@0@AEAPEAU10@0@Z
	??$exchange@PEAU_Container_proxy@std@@$$T@std@@YAPEAU_Container_proxy@0@AEAPEAU10@$$QEA$$T@Z
	??$fill_n@PEAM_KM@std@@YAPEAMPEAM_KAEBM@Z
	??$forward@AEAPEAM@std@@YAAEAPEAMAEAPEAM@Z
	??$forward@AEAPEAU?$_Tree_node@U?$pair@$$CBVQString@@PEAVQCheckBox@@@std@@PEAX@std@@@std@@YAAEAPEAU?$_Tree_node@U?$pair@$$CBVQString@@PEAVQCheckBox@@@std@@PEAX@0@AEAPEAU10@@Z
	??$forward@AEAPEAU?$_Tree_node@U?$pair@$$CBVQString@@PEAVRichParameterWidget@@@std@@PEAX@std@@@std@@YAAEAPEAU?$_Tree_node@U?$pair@$$CBVQString@@PEAVRichParameterWidget@@@std@@PEAX@0@AEAPEAU10@@Z
	??$forward@AEAPEAU?$_Tree_node@U?$pair@$$CBVQString@@V?$vector@PEBVRichParameter@@V?$allocator@PEBVRichParameter@@@std@@@std@@@std@@PEAX@std@@@std@@YAAEAPEAU?$_Tree_node@U?$pair@$$CBVQString@@V?$vector@PEBVRichParameter@@V?$allocator@PEBVRichParameter@@@std@@@std@@@std@@PEAX@0@AEAPEAU10@@Z
	??$forward@AEAPEAU?$_Tree_node@VQString@@PEAX@std@@@std@@YAAEAPEAU?$_Tree_node@VQString@@PEAX@0@AEAPEAU10@@Z
	??$forward@AEAV?$Matrix44@M@vcg@@@std@@YAAEAV?$Matrix44@M@vcg@@AEAV12@@Z
	??$forward@AEBQEAU?$_Tree_node@U?$pair@$$CBVQString@@PEAVQCheckBox@@@std@@PEAX@std@@@std@@YAAEBQEAU?$_Tree_node@U?$pair@$$CBVQString@@PEAVQCheckBox@@@std@@PEAX@0@AEBQEAU10@@Z
	??$forward@AEBQEAU?$_Tree_node@U?$pair@$$CBVQString@@PEAVRichParameterWidget@@@std@@PEAX@std@@@std@@YAAEBQEAU?$_Tree_node@U?$pair@$$CBVQString@@PEAVRichParameterWidget@@@std@@PEAX@0@AEBQEAU10@@Z
	??$forward@AEBQEAU?$_Tree_node@U?$pair@$$CBVQString@@V?$vector@PEBVRichParameter@@V?$allocator@PEBVRichParameter@@@std@@@std@@@std@@PEAX@std@@@std@@YAAEBQEAU?$_Tree_node@U?$pair@$$CBVQString@@V?$vector@PEBVRichParameter@@V?$allocator@PEBVRichParameter@@@std@@@std@@@std@@PEAX@0@AEBQEAU10@@Z
	??$forward@AEBQEAU?$_Tree_node@VQString@@PEAX@std@@@std@@YAAEBQEAU?$_Tree_node@VQString@@PEAX@0@AEBQEAU10@@Z
	??$forward@AEBU?$less@VQString@@@std@@@std@@YAAEBU?$less@VQString@@@0@AEBU10@@Z
	??$forward@AEBUpiecewise_construct_t@std@@@std@@YAAEBUpiecewise_construct_t@0@AEBU10@@Z
	??$forward@AEBV?$Matrix44@M@vcg@@@std@@YAAEBV?$Matrix44@M@vcg@@AEBV12@@Z
	??$forward@AEBV?$Shot@MV?$Matrix44@M@vcg@@@vcg@@@std@@YAAEBV?$Shot@MV?$Matrix44@M@vcg@@@vcg@@AEBV12@@Z
	??$forward@AEBVQColor@@@std@@YAAEBVQColor@@AEBV1@@Z
	??$forward@AEBVQString@@@std@@YAAEBVQString@@AEBV1@@Z
	??$forward@AEB_N@std@@YAAEB_NAEB_N@Z
	??$forward@H@std@@YA$$QEAHAEAH@Z
	??$forward@M@std@@YA$$QEAMAEAM@Z
	??$forward@N@std@@YA$$QEANAEAN@Z
	??$forward@PEAM@std@@YA$$QEAPEAMAEAPEAM@Z
	??$forward@PEAU?$_Tree_node@U?$pair@$$CBVQString@@PEAVQCheckBox@@@std@@PEAX@std@@@std@@YA$$QEAPEAU?$_Tree_node@U?$pair@$$CBVQString@@PEAVQCheckBox@@@std@@PEAX@0@AEAPEAU10@@Z
	??$forward@PEAU?$_Tree_node@U?$pair@$$CBVQString@@PEAVRichParameterWidget@@@std@@PEAX@std@@@std@@YA$$QEAPEAU?$_Tree_node@U?$pair@$$CBVQString@@PEAVRichParameterWidget@@@std@@PEAX@0@AEAPEAU10@@Z
	??$forward@PEAU?$_Tree_node@U?$pair@$$CBVQString@@V?$vector@PEBVRichParameter@@V?$allocator@PEBVRichParameter@@@std@@@std@@@std@@PEAX@std@@@std@@YA$$QEAPEAU?$_Tree_node@U?$pair@$$CBVQString@@V?$vector@PEBVRichParameter@@V?$allocator@PEBVRichParameter@@@std@@@std@@@std@@PEAX@0@AEAPEAU10@@Z
	??$forward@PEAU?$_Tree_node@VQString@@PEAX@std@@@std@@YA$$QEAPEAU?$_Tree_node@VQString@@PEAX@0@AEAPEAU10@@Z
	??$forward@PEAU_Container_base12@std@@@std@@YA$$QEAPEAU_Container_base12@0@AEAPEAU10@@Z
	??$forward@PEAVQWidget@@@std@@YA$$QEAPEAVQWidget@@AEAPEAV1@@Z
	??$forward@PEBVRichParameter@@@std@@YA$$QEAPEBVRichParameter@@AEAPEBV1@@Z
	??$forward@U_Zero_then_variadic_args_t@std@@@std@@YA$$QEAU_Zero_then_variadic_args_t@0@AEAU10@@Z
	??$forward@V?$Point3@M@vcg@@@std@@YA$$QEAV?$Point3@M@vcg@@AEAV12@@Z
	??$forward@V?$_Tree_const_iterator@V?$_Tree_val@U?$_Tree_simple_types@VQString@@@std@@@std@@@std@@@std@@YA$$QEAV?$_Tree_const_iterator@V?$_Tree_val@U?$_Tree_simple_types@VQString@@@std@@@std@@@0@AEAV10@@Z
	??$forward@V?$tuple@$$V@std@@@std@@YA$$QEAV?$tuple@$$V@0@AEAV10@@Z
	??$forward@V?$tuple@AEBVQString@@@std@@@std@@YA$$QEAV?$tuple@AEBVQString@@@0@AEAV10@@Z
	??$forward@VQString@@@std@@YA$$QEAVQString@@AEAV1@@Z
	??$forward@_N@std@@YA$$QEA_NAEA_N@Z
	??$forward_as_tuple@$$V@std@@YA?AV?$tuple@$$V@0@XZ
	??$forward_as_tuple@AEBVQString@@@std@@YA?AV?$tuple@AEBVQString@@@0@AEBVQString@@@Z
	??$insert@$0A@$0A@@?$_Tree@V?$_Tset_traits@VQString@@U?$less@VQString@@@std@@V?$allocator@VQString@@@3@$0A@@std@@@std@@QEAA?AU?$pair@V?$_Tree_const_iterator@V?$_Tree_val@U?$_Tree_simple_types@VQString@@@std@@@std@@@std@@_N@1@AEBVQString@@@Z
	??$isOfType@VBoolValue@@@Value@@QEBA_NXZ
	??$isOfType@VColorValue@@@Value@@QEBA_NXZ
	??$isOfType@VFloatValue@@@Value@@QEBA_NXZ
	??$isOfType@VIntValue@@@Value@@QEBA_NXZ
	??$isOfType@VMatrix44Value@@@Value@@QEBA_NXZ
	??$isOfType@VPoint3Value@@@Value@@QEBA_NXZ
	??$isOfType@VRichBool@@@RichParameter@@QEBA_NXZ
	??$isOfType@VRichColor@@@RichParameter@@QEBA_NXZ
	??$isOfType@VRichDirection@@@RichParameter@@QEBA_NXZ
	??$isOfType@VRichDynamicFloat@@@RichParameter@@QEBA_NXZ
	??$isOfType@VRichEnum@@@RichParameter@@QEBA_NXZ
	??$isOfType@VRichFileOpen@@@RichParameter@@QEBA_NXZ
	??$isOfType@VRichFileSave@@@RichParameter@@QEBA_NXZ
	??$isOfType@VRichFloat@@@RichParameter@@QEBA_NXZ
	??$isOfType@VRichInt@@@RichParameter@@QEBA_NXZ
	??$isOfType@VRichMatrix44@@@RichParameter@@QEBA_NXZ
	??$isOfType@VRichMesh@@@RichParameter@@QEBA_NXZ
	??$isOfType@VRichPercentage@@@RichParameter@@QEBA_NXZ
	??$isOfType@VRichPosition@@@RichParameter@@QEBA_NXZ
	??$isOfType@VRichShot@@@RichParameter@@QEBA_NXZ
	??$isOfType@VRichString@@@RichParameter@@QEBA_NXZ
	??$isOfType@VShotValue@@@Value@@QEBA_NXZ
	??$isOfType@VStringValue@@@Value@@QEBA_NXZ
	??$link@$1?staticMetaObject@QDialog@@2UQMetaObject@@B@SuperData@QMetaObject@@SA?AU01@XZ
	??$link@$1?staticMetaObject@QFrame@@2UQMetaObject@@B@SuperData@QMetaObject@@SA?AU01@XZ
	??$link@$1?staticMetaObject@QLabel@@2UQMetaObject@@B@SuperData@QMetaObject@@SA?AU01@XZ
	??$link@$1?staticMetaObject@QScrollArea@@2UQMetaObject@@B@SuperData@QMetaObject@@SA?AU01@XZ
	??$link@$1?staticMetaObject@QWidget@@2UQMetaObject@@B@SuperData@QMetaObject@@SA?AU01@XZ
	??$loadRelaxed@H@?$QAtomicOps@H@@SAHAEBU?$atomic@H@std@@@Z
	??$make_shared@VBoolValue@@_N@std@@YA?AV?$shared_ptr@VBoolValue@@@0@$$QEA_N@Z
	??$make_shared@VColorValue@@AEBVQColor@@@std@@YA?AV?$shared_ptr@VColorValue@@@0@AEBVQColor@@@Z
	??$make_shared@VFloatValue@@M@std@@YA?AV?$shared_ptr@VFloatValue@@@0@$$QEAM@Z
	??$make_shared@VFloatValue@@N@std@@YA?AV?$shared_ptr@VFloatValue@@@0@$$QEAN@Z
	??$make_shared@VIntValue@@H@std@@YA?AV?$shared_ptr@VIntValue@@@0@$$QEAH@Z
	??$make_shared@VMatrix44Value@@AEAV?$Matrix44@M@vcg@@@std@@YA?AV?$shared_ptr@VMatrix44Value@@@0@AEAV?$Matrix44@M@vcg@@@Z
	??$make_shared@VMatrix44Value@@AEBV?$Matrix44@M@vcg@@@std@@YA?AV?$shared_ptr@VMatrix44Value@@@0@AEBV?$Matrix44@M@vcg@@@Z
	??$make_shared@VPoint3Value@@V?$Point3@M@vcg@@@std@@YA?AV?$shared_ptr@VPoint3Value@@@0@$$QEAV?$Point3@M@vcg@@@Z
	??$make_shared@VShotValue@@AEBV?$Shot@MV?$Matrix44@M@vcg@@@vcg@@@std@@YA?AV?$shared_ptr@VShotValue@@@0@AEBV?$Shot@MV?$Matrix44@M@vcg@@@vcg@@@Z
	??$make_shared@VStringValue@@VQString@@@std@@YA?AV?$shared_ptr@VStringValue@@@0@$$QEAVQString@@@Z
	??$min@_K@std@@YAAEB_KAEB_K0@Z
	??$move@AEAPEAVQWidget@@@std@@YA$$QEAPEAVQWidget@@AEAPEAV1@@Z
	??$move@AEAPEBVRichParameter@@@std@@YA$$QEAPEBVRichParameter@@AEAPEBV1@@Z
	??$move@AEAV?$_List_const_iterator@V?$_List_val@U?$_List_simple_types@VMeshModel@@@std@@@std@@@std@@@std@@YA$$QEAV?$_List_const_iterator@V?$_List_val@U?$_List_simple_types@VMeshModel@@@std@@@std@@@0@AEAV10@@Z
	??$move@AEAV?$shared_ptr@VBoolValue@@@std@@@std@@YA$$QEAV?$shared_ptr@VBoolValue@@@0@AEAV10@@Z
	??$move@AEAV?$shared_ptr@VColorValue@@@std@@@std@@YA$$QEAV?$shared_ptr@VColorValue@@@0@AEAV10@@Z
	??$move@AEAV?$shared_ptr@VFloatValue@@@std@@@std@@YA$$QEAV?$shared_ptr@VFloatValue@@@0@AEAV10@@Z
	??$move@AEAV?$shared_ptr@VIntValue@@@std@@@std@@YA$$QEAV?$shared_ptr@VIntValue@@@0@AEAV10@@Z
	??$move@AEAV?$shared_ptr@VMatrix44Value@@@std@@@std@@YA$$QEAV?$shared_ptr@VMatrix44Value@@@0@AEAV10@@Z
	??$move@AEAV?$shared_ptr@VPoint3Value@@@std@@@std@@YA$$QEAV?$shared_ptr@VPoint3Value@@@0@AEAV10@@Z
	??$move@AEAV?$shared_ptr@VShotValue@@@std@@@std@@YA$$QEAV?$shared_ptr@VShotValue@@@0@AEAV10@@Z
	??$move@AEAV?$shared_ptr@VStringValue@@@std@@@std@@YA$$QEAV?$shared_ptr@VStringValue@@@0@AEAV10@@Z
	??$move@AEAV?$tuple@AEBVQString@@@std@@@std@@YA$$QEAV?$tuple@AEBVQString@@@0@AEAV10@@Z
	??$ref@H@?$QAtomicOps@H@@SA_NAEAU?$atomic@H@std@@@Z
	??$staticMetaObject@$1?staticMetaObject@QDialog@@2UQMetaObject@@B@QMetaObject@@SAPEBU0@XZ
	??$staticMetaObject@$1?staticMetaObject@QFrame@@2UQMetaObject@@B@QMetaObject@@SAPEBU0@XZ
	??$staticMetaObject@$1?staticMetaObject@QLabel@@2UQMetaObject@@B@QMetaObject@@SAPEBU0@XZ
	??$staticMetaObject@$1?staticMetaObject@QScrollArea@@2UQMetaObject@@B@QMetaObject@@SAPEBU0@XZ
	??$staticMetaObject@$1?staticMetaObject@QWidget@@2UQMetaObject@@B@QMetaObject@@SAPEBU0@XZ
	??0?$Camera@M@vcg@@QEAA@XZ
	??0?$Matrix44@M@vcg@@QEAA@QEBM@Z
	??0?$Matrix44@M@vcg@@QEAA@XZ
	??0?$Point2@H@vcg@@QEAA@HH@Z
	??0?$Point2@M@vcg@@QEAA@MM@Z
	??0?$Point3@M@vcg@@QEAA@MMM@Z
	??0?$Point3@M@vcg@@QEAA@XZ
	??0?$QFlags@W4AlignmentFlag@Qt@@@@QEAA@W4AlignmentFlag@Qt@@@Z
	??0?$QFlags@W4AlignmentFlag@Qt@@@@QEAA@XZ
	??0?$QFlags@W4ColorDialogOption@QColorDialog@@@@QEAA@VQFlag@@@Z
	??0?$QFlags@W4ColorDialogOption@QColorDialog@@@@QEAA@W4ColorDialogOption@QColorDialog@@@Z
	??0?$QFlags@W4OpenModeFlag@QIODevice@@@@QEAA@W4OpenModeFlag@QIODevice@@@Z
	??0?$QFlags@W4Option@QFileDialog@@@@QEAA@XZ
	??0?$QFlags@W4SplitBehaviorFlags@Qt@@@@QEAA@W4SplitBehaviorFlags@Qt@@@Z
	??0?$QFlags@W4StandardButton@QDialogButtonBox@@@@QEAA@VQFlag@@@Z
	??0?$QFlags@W4StandardButton@QDialogButtonBox@@@@QEAA@W4StandardButton@QDialogButtonBox@@@Z
	??0?$QFlags@W4WindowType@Qt@@@@QEAA@XZ
	??0?$QList@VQString@@@@QEAA@AEBV0@@Z
	??0?$QList@VQString@@@@QEAA@XZ
	??0?$Shot@MV?$Matrix44@M@vcg@@@vcg@@QEAA@XZ
	??0?$_Alloc_construct_ptr@V?$allocator@U?$_Tree_node@U?$pair@$$CBVQString@@PEAVQCheckBox@@@std@@PEAX@std@@@std@@@std@@QEAA@AEAV?$allocator@U?$_Tree_node@U?$pair@$$CBVQString@@PEAVQCheckBox@@@std@@PEAX@std@@@1@@Z
	??0?$_Alloc_construct_ptr@V?$allocator@U?$_Tree_node@U?$pair@$$CBVQString@@PEAVRichParameterWidget@@@std@@PEAX@std@@@std@@@std@@QEAA@AEAV?$allocator@U?$_Tree_node@U?$pair@$$CBVQString@@PEAVRichParameterWidget@@@std@@PEAX@std@@@1@@Z
	??0?$_Alloc_construct_ptr@V?$allocator@U?$_Tree_node@U?$pair@$$CBVQString@@V?$vector@PEBVRichParameter@@V?$allocator@PEBVRichParameter@@@std@@@std@@@std@@PEAX@std@@@std@@@std@@QEAA@AEAV?$allocator@U?$_Tree_node@U?$pair@$$CBVQString@@V?$vector@PEBVRichParameter@@V?$allocator@PEBVRichParameter@@@std@@@std@@@std@@PEAX@std@@@1@@Z
	??0?$_Alloc_construct_ptr@V?$allocator@U?$_Tree_node@VQString@@PEAX@std@@@std@@@std@@QEAA@AEAV?$allocator@U?$_Tree_node@VQString@@PEAX@std@@@1@@Z
	??0?$_Container_proxy_ptr12@V?$allocator@U_Container_proxy@std@@@std@@@std@@QEAA@AEAV?$allocator@U_Container_proxy@std@@@1@AEAU_Container_base12@1@@Z
	??0?$_Ptr_base@VBoolValue@@@std@@IEAA@XZ
	??0?$_Ptr_base@VColorValue@@@std@@IEAA@XZ
	??0?$_Ptr_base@VFloatValue@@@std@@IEAA@XZ
	??0?$_Ptr_base@VIntValue@@@std@@IEAA@XZ
	??0?$_Ptr_base@VMatrix44Value@@@std@@IEAA@XZ
	??0?$_Ptr_base@VPoint3Value@@@std@@IEAA@XZ
	??0?$_Ptr_base@VShotValue@@@std@@IEAA@XZ
	??0?$_Ptr_base@VStringValue@@@std@@IEAA@XZ
	??0?$_Ptr_base@VValue@@@std@@IEAA@XZ
	??0?$_Tree@V?$_Tmap_traits@VQString@@PEAVQCheckBox@@U?$less@VQString@@@std@@V?$allocator@U?$pair@$$CBVQString@@PEAVQCheckBox@@@std@@@4@$0A@@std@@@std@@QEAA@AEBU?$less@VQString@@@1@@Z
	??0?$_Tree@V?$_Tmap_traits@VQString@@PEAVRichParameterWidget@@U?$less@VQString@@@std@@V?$allocator@U?$pair@$$CBVQString@@PEAVRichParameterWidget@@@std@@@4@$0A@@std@@@std@@QEAA@AEBU?$less@VQString@@@1@@Z
	??0?$_Tree@V?$_Tmap_traits@VQString@@V?$vector@PEBVRichParameter@@V?$allocator@PEBVRichParameter@@@std@@@std@@U?$less@VQString@@@3@V?$allocator@U?$pair@$$CBVQString@@V?$vector@PEBVRichParameter@@V?$allocator@PEBVRichParameter@@@std@@@std@@@std@@@3@$0A@@std@@@std@@QEAA@AEBU?$less@VQString@@@1@@Z
	??0?$_Tree@V?$_Tset_traits@VQString@@U?$less@VQString@@@std@@V?$allocator@VQString@@@3@$0A@@std@@@std@@QEAA@AEBU?$less@VQString@@@1@@Z
	??0?$_Tree_const_iterator@V?$_Tree_val@U?$_Tree_simple_types@U?$pair@$$CBVQString@@PEAVRichParameterWidget@@@std@@@std@@@std@@@std@@QEAA@PEAU?$_Tree_node@U?$pair@$$CBVQString@@PEAVRichParameterWidget@@@std@@PEAX@1@PEBV?$_Tree_val@U?$_Tree_simple_types@U?$pair@$$CBVQString@@PEAVRichParameterWidget@@@std@@@std@@@1@@Z
	??0?$_Tree_const_iterator@V?$_Tree_val@U?$_Tree_simple_types@VQString@@@std@@@std@@@std@@QEAA@$$QEAV01@@Z
	??0?$_Tree_const_iterator@V?$_Tree_val@U?$_Tree_simple_types@VQString@@@std@@@std@@@std@@QEAA@PEAU?$_Tree_node@VQString@@PEAX@1@PEBV?$_Tree_val@U?$_Tree_simple_types@VQString@@@std@@@1@@Z
	??0?$_Tree_iterator@V?$_Tree_val@U?$_Tree_simple_types@U?$pair@$$CBVQString@@PEAVRichParameterWidget@@@std@@@std@@@std@@@std@@QEAA@PEAU?$_Tree_node@U?$pair@$$CBVQString@@PEAVRichParameterWidget@@@std@@PEAX@1@PEBV?$_Tree_val@U?$_Tree_simple_types@U?$pair@$$CBVQString@@PEAVRichParameterWidget@@@std@@@std@@@1@@Z
	??0?$_Tree_temp_node_alloc@V?$allocator@U?$_Tree_node@U?$pair@$$CBVQString@@PEAVQCheckBox@@@std@@PEAX@std@@@std@@@std@@QEAA@AEAV?$allocator@U?$_Tree_node@U?$pair@$$CBVQString@@PEAVQCheckBox@@@std@@PEAX@std@@@1@@Z
	??0?$_Tree_temp_node_alloc@V?$allocator@U?$_Tree_node@U?$pair@$$CBVQString@@PEAVRichParameterWidget@@@std@@PEAX@std@@@std@@@std@@QEAA@AEAV?$allocator@U?$_Tree_node@U?$pair@$$CBVQString@@PEAVRichParameterWidget@@@std@@PEAX@std@@@1@@Z
	??0?$_Tree_temp_node_alloc@V?$allocator@U?$_Tree_node@U?$pair@$$CBVQString@@V?$vector@PEBVRichParameter@@V?$allocator@PEBVRichParameter@@@std@@@std@@@std@@PEAX@std@@@std@@@std@@QEAA@AEAV?$allocator@U?$_Tree_node@U?$pair@$$CBVQString@@V?$vector@PEBVRichParameter@@V?$allocator@PEBVRichParameter@@@std@@@std@@@std@@PEAX@std@@@1@@Z
	??0?$_Tree_temp_node_alloc@V?$allocator@U?$_Tree_node@VQString@@PEAX@std@@@std@@@std@@QEAA@AEAV?$allocator@U?$_Tree_node@VQString@@PEAX@std@@@1@@Z
	??0?$_Tree_unchecked_const_iterator@V?$_Tree_val@U?$_Tree_simple_types@U?$pair@$$CBVQString@@PEAVRichParameterWidget@@@std@@@std@@@std@@U_Iterator_base0@2@@std@@QEAA@PEAU?$_Tree_node@U?$pair@$$CBVQString@@PEAVRichParameterWidget@@@std@@PEAX@1@PEBV?$_Tree_val@U?$_Tree_simple_types@U?$pair@$$CBVQString@@PEAVRichParameterWidget@@@std@@@std@@@1@@Z
	??0?$_Tree_unchecked_const_iterator@V?$_Tree_val@U?$_Tree_simple_types@U?$pair@$$CBVQString@@PEAVRichParameterWidget@@@std@@@std@@@std@@U_Iterator_base12@2@@std@@QEAA@PEAU?$_Tree_node@U?$pair@$$CBVQString@@PEAVRichParameterWidget@@@std@@PEAX@1@PEBV?$_Tree_val@U?$_Tree_simple_types@U?$pair@$$CBVQString@@PEAVRichParameterWidget@@@std@@@std@@@1@@Z
	??0?$_Tree_unchecked_const_iterator@V?$_Tree_val@U?$_Tree_simple_types@U?$pair@$$CBVQString@@V?$vector@PEBVRichParameter@@V?$allocator@PEBVRichParameter@@@std@@@std@@@std@@@std@@@std@@U_Iterator_base0@2@@std@@QEAA@PEAU?$_Tree_node@U?$pair@$$CBVQString@@V?$vector@PEBVRichParameter@@V?$allocator@PEBVRichParameter@@@std@@@std@@@std@@PEAX@1@PEBV?$_Tree_val@U?$_Tree_simple_types@U?$pair@$$CBVQString@@V?$vector@PEBVRichParameter@@V?$allocator@PEBVRichParameter@@@std@@@std@@@std@@@std@@@1@@Z
	??0?$_Tree_unchecked_const_iterator@V?$_Tree_val@U?$_Tree_simple_types@VQString@@@std@@@std@@U_Iterator_base0@2@@std@@QEAA@PEAU?$_Tree_node@VQString@@PEAX@1@PEBV?$_Tree_val@U?$_Tree_simple_types@VQString@@@std@@@1@@Z
	??0?$_Tree_unchecked_const_iterator@V?$_Tree_val@U?$_Tree_simple_types@VQString@@@std@@@std@@U_Iterator_base12@2@@std@@QEAA@$$QEAV01@@Z
	??0?$_Tree_unchecked_const_iterator@V?$_Tree_val@U?$_Tree_simple_types@VQString@@@std@@@std@@U_Iterator_base12@2@@std@@QEAA@PEAU?$_Tree_node@VQString@@PEAX@1@PEBV?$_Tree_val@U?$_Tree_simple_types@VQString@@@std@@@1@@Z
	??0?$_Tree_unchecked_iterator@V?$_Tree_val@U?$_Tree_simple_types@U?$pair@$$CBVQString@@PEAVRichParameterWidget@@@std@@@std@@@std@@@std@@QEAA@PEAU?$_Tree_node@U?$pair@$$CBVQString@@PEAVRichParameterWidget@@@std@@PEAX@1@PEBV?$_Tree_val@U?$_Tree_simple_types@U?$pair@$$CBVQString@@PEAVRichParameterWidget@@@std@@@std@@@1@@Z
	??0?$_Tree_unchecked_iterator@V?$_Tree_val@U?$_Tree_simple_types@U?$pair@$$CBVQString@@V?$vector@PEBVRichParameter@@V?$allocator@PEBVRichParameter@@@std@@@std@@@std@@@std@@@std@@@std@@QEAA@PEAU?$_Tree_node@U?$pair@$$CBVQString@@V?$vector@PEBVRichParameter@@V?$allocator@PEBVRichParameter@@@std@@@std@@@std@@PEAX@1@PEBV?$_Tree_val@U?$_Tree_simple_types@U?$pair@$$CBVQString@@V?$vector@PEBVRichParameter@@V?$allocator@PEBVRichParameter@@@std@@@std@@@std@@@std@@@1@@Z
	??0?$_Tree_val@U?$_Tree_simple_types@U?$pair@$$CBVQString@@PEAVQCheckBox@@@std@@@std@@@std@@QEAA@XZ
	??0?$_Tree_val@U?$_Tree_simple_types@U?$pair@$$CBVQString@@PEAVRichParameterWidget@@@std@@@std@@@std@@QEAA@XZ
	??0?$_Tree_val@U?$_Tree_simple_types@U?$pair@$$CBVQString@@V?$vector@PEBVRichParameter@@V?$allocator@PEBVRichParameter@@@std@@@std@@@std@@@std@@@std@@QEAA@XZ
	??0?$_Tree_val@U?$_Tree_simple_types@VQString@@@std@@@std@@QEAA@XZ
	??0?$_Uninitialized_backout_al@V?$allocator@PEAVQWidget@@@std@@@std@@QEAA@PEAPEAVQWidget@@AEAV?$allocator@PEAVQWidget@@@1@@Z
	??0?$_Uninitialized_backout_al@V?$allocator@PEBVRichParameter@@@std@@@std@@QEAA@PEAPEBVRichParameter@@AEAV?$allocator@PEBVRichParameter@@@1@@Z
	??0?$_Vector_val@U?$_Simple_types@PEAVQWidget@@@std@@@std@@QEAA@XZ
	??0?$_Vector_val@U?$_Simple_types@PEBVRichParameter@@@std@@@std@@QEAA@XZ
	??0?$allocator@PEAVQWidget@@@std@@QEAA@XZ
	??0?$allocator@PEBVRichParameter@@@std@@QEAA@XZ
	??0?$allocator@U?$_Tree_node@U?$pair@$$CBVQString@@PEAVQCheckBox@@@std@@PEAX@std@@@std@@QEAA@XZ
	??0?$allocator@U?$_Tree_node@U?$pair@$$CBVQString@@PEAVRichParameterWidget@@@std@@PEAX@std@@@std@@QEAA@XZ
	??0?$allocator@U?$_Tree_node@U?$pair@$$CBVQString@@V?$vector@PEBVRichParameter@@V?$allocator@PEBVRichParameter@@@std@@@std@@@std@@PEAX@std@@@std@@QEAA@XZ
	??0?$allocator@U?$_Tree_node@VQString@@PEAX@std@@@std@@QEAA@XZ
	??0?$map@VQString@@PEAVQCheckBox@@U?$less@VQString@@@std@@V?$allocator@U?$pair@$$CBVQString@@PEAVQCheckBox@@@std@@@4@@std@@QEAA@XZ
	??0?$map@VQString@@PEAVRichParameterWidget@@U?$less@VQString@@@std@@V?$allocator@U?$pair@$$CBVQString@@PEAVRichParameterWidget@@@std@@@4@@std@@QEAA@XZ
	??0?$map@VQString@@V?$vector@PEBVRichParameter@@V?$allocator@PEBVRichParameter@@@std@@@std@@U?$less@VQString@@@3@V?$allocator@U?$pair@$$CBVQString@@V?$vector@PEBVRichParameter@@V?$allocator@PEBVRichParameter@@@std@@@std@@@std@@@3@@std@@QEAA@XZ
	??0?$set@VQString@@U?$less@VQString@@@std@@V?$allocator@VQString@@@3@@std@@QEAA@XZ
	??0?$shared_ptr@VBoolValue@@@std@@QEAA@$$QEAV01@@Z
	??0?$shared_ptr@VBoolValue@@@std@@QEAA@XZ
	??0?$shared_ptr@VColorValue@@@std@@QEAA@$$QEAV01@@Z
	??0?$shared_ptr@VColorValue@@@std@@QEAA@XZ
	??0?$shared_ptr@VFloatValue@@@std@@QEAA@$$QEAV01@@Z
	??0?$shared_ptr@VFloatValue@@@std@@QEAA@XZ
	??0?$shared_ptr@VIntValue@@@std@@QEAA@$$QEAV01@@Z
	??0?$shared_ptr@VIntValue@@@std@@QEAA@XZ
	??0?$shared_ptr@VMatrix44Value@@@std@@QEAA@$$QEAV01@@Z
	??0?$shared_ptr@VMatrix44Value@@@std@@QEAA@XZ
	??0?$shared_ptr@VPoint3Value@@@std@@QEAA@$$QEAV01@@Z
	??0?$shared_ptr@VPoint3Value@@@std@@QEAA@XZ
	??0?$shared_ptr@VShotValue@@@std@@QEAA@$$QEAV01@@Z
	??0?$shared_ptr@VShotValue@@@std@@QEAA@XZ
	??0?$shared_ptr@VStringValue@@@std@@QEAA@$$QEAV01@@Z
	??0?$shared_ptr@VStringValue@@@std@@QEAA@XZ
	??0?$tuple@$$V@std@@QEAA@AEBV01@@Z
	??0?$tuple@AEBVQString@@@std@@QEAA@$$QEAV01@@Z
	??0?$vector@PEAVQWidget@@V?$allocator@PEAVQWidget@@@std@@@std@@QEAA@XZ
	??0?$vector@PEBVRichParameter@@V?$allocator@PEBVRichParameter@@@std@@@std@@QEAA@XZ
	??0BoolWidget@@QEAA@PEAVQWidget@@AEBVRichBool@@AEBVBoolValue@@@Z
	??0ClickableLabel@@QEAA@AEBVQString@@PEAVQWidget@@V?$QFlags@W4WindowType@Qt@@@@@Z
	??0ClickableLabel@@QEAA@PEAVQWidget@@V?$QFlags@W4WindowType@Qt@@@@@Z
	??0ColorWidget@@QEAA@PEAVQWidget@@AEBVRichColor@@AEBVColorValue@@@Z
	??0ComboWidget@@QEAA@PEAVQWidget@@AEBVRichParameter@@AEBVValue@@@Z
	??0ComboWidget@@QEAA@PEAVQWidget@@AEBVRichParameter@@AEBVValue@@AEBVQStringList@@H@Z
	??0DirectionWidget@@QEAA@PEAVQWidget@@AEBVRichDirection@@AEBVPoint3Value@@0@Z
	??0DynamicFloatWidget@@QEAA@PEAVQWidget@@AEBVRichDynamicFloat@@AEBVFloatValue@@@Z
	??0EnumWidget@@QEAA@PEAVQWidget@@AEBVRichEnum@@AEBVIntValue@@@Z
	??0FloatWidget@@QEAA@PEAVQWidget@@AEBVRichFloat@@AEBVFloatValue@@@Z
	??0IOFileWidget@@IEAA@PEAVQWidget@@AEBVRichParameter@@AEBVStringValue@@@Z
	??0IntWidget@@QEAA@PEAVQWidget@@AEBVRichInt@@AEBVIntValue@@@Z
	??0LineEditWidget@@QEAA@PEAVQWidget@@AEBVRichParameter@@AEBVValue@@@Z
	??0Matrix44Widget@@QEAA@PEAVQWidget@@AEBVRichMatrix44@@AEBVMatrix44Value@@0@Z
	??0MeshWidget@@QEAA@PEAVQWidget@@AEBVRichMesh@@AEBVIntValue@@@Z
	??0OpenFileWidget@@QEAA@PEAVQWidget@@AEBVRichFileOpen@@AEBVStringValue@@@Z
	??0PercentageWidget@@QEAA@PEAVQWidget@@AEBVRichPercentage@@AEBVFloatValue@@@Z
	??0Point3Widget@@QEAA@PEAVQWidget@@AEBVRichParameter@@AEBVPoint3Value@@0@Z
	??0PositionWidget@@QEAA@PEAVQWidget@@AEBVRichPosition@@AEBVPoint3Value@@0@Z
	??0QFlag@@QEAA@H@Z
	??0QLatin1Char@@QEAA@D@Z
	??0QStringList@@QEAA@AEBV0@@Z
	??0QStringList@@QEAA@XZ
	??0ReferenceFrame@?$Shot@MV?$Matrix44@M@vcg@@@vcg@@QEAA@XZ
	??0RichParameterListDialog@@QEAA@PEAVQWidget@@AEAVRichParameterList@@AEBVQString@@@Z
	??0RichParameterListFrame@@QEAA@AEBVRichParameter@@0PEAVQWidget@@1@Z
	??0RichParameterListFrame@@QEAA@AEBVRichParameterList@@0PEAVQWidget@@1@Z
	??0RichParameterListFrame@@QEAA@AEBVRichParameterList@@PEAVQWidget@@1@Z
	??0RichParameterListFrame@@QEAA@PEAVQWidget@@@Z
	??0RichParameterWidget@@QEAA@PEAVQWidget@@AEBVRichParameter@@AEBVValue@@@Z
	??0SaveFileWidget@@QEAA@PEAVQWidget@@AEBVRichFileSave@@AEBVStringValue@@@Z
	??0ShotWidget@@QEAA@PEAVQWidget@@AEBVRichShot@@AEBVShotValue@@0@Z
	??0StringWidget@@QEAA@PEAVQWidget@@AEBVRichString@@AEBVStringValue@@@Z
	??0SuperData@QMetaObject@@QEAA@PEBU1@@Z
	??0VerticalScrollArea@@QEAA@PEAVQWidget@@@Z
	??0_Basic_container_proxy_ptr12@std@@IEAA@XZ
	??0_Container_base12@std@@QEAA@XZ
	??0_Container_proxy@std@@QEAA@PEAU_Container_base12@1@@Z
	??0_Iterator_base12@std@@QEAA@AEBU01@@Z
	??0_Iterator_base12@std@@QEAA@XZ
	??0_Ref_count_base@std@@IEAA@XZ
	??0_Sentry_base@?$basic_ostream@DU?$char_traits@D@std@@@std@@QEAA@AEAV12@@Z
	??0bad_alloc@std@@AEAA@QEBD@Z
	??0bad_alloc@std@@QEAA@AEBV01@@Z
	??0bad_array_new_length@std@@QEAA@AEBV01@@Z
	??0bad_array_new_length@std@@QEAA@XZ
	??0exception@std@@QEAA@AEBV01@@Z
	??0exception@std@@QEAA@QEBDH@Z
	??0iterator@?$QList@VQString@@@@QEAA@PEAUNode@1@@Z
	??0sentry@?$basic_ostream@DU?$char_traits@D@std@@@std@@QEAA@AEAV12@@Z
	??1?$Matrix44@M@vcg@@QEAA@XZ
	??1?$QList@VQString@@@@QEAA@XZ
	??1?$Shot@MV?$Matrix44@M@vcg@@@vcg@@QEAA@XZ
	??1?$_Alloc_construct_ptr@V?$allocator@U?$_Tree_node@U?$pair@$$CBVQString@@PEAVQCheckBox@@@std@@PEAX@std@@@std@@@std@@QEAA@XZ
	??1?$_Alloc_construct_ptr@V?$allocator@U?$_Tree_node@U?$pair@$$CBVQString@@PEAVRichParameterWidget@@@std@@PEAX@std@@@std@@@std@@QEAA@XZ
	??1?$_Alloc_construct_ptr@V?$allocator@U?$_Tree_node@U?$pair@$$CBVQString@@V?$vector@PEBVRichParameter@@V?$allocator@PEBVRichParameter@@@std@@@std@@@std@@PEAX@std@@@std@@@std@@QEAA@XZ
	??1?$_Alloc_construct_ptr@V?$allocator@U?$_Tree_node@VQString@@PEAX@std@@@std@@@std@@QEAA@XZ
	??1?$_Container_proxy_ptr12@V?$allocator@U_Container_proxy@std@@@std@@@std@@QEAA@XZ
	??1?$_List_const_iterator@V?$_List_val@U?$_List_simple_types@PEAVRichParameter@@@std@@@std@@@std@@QEAA@XZ
	??1?$_List_const_iterator@V?$_List_val@U?$_List_simple_types@VMeshModel@@@std@@@std@@@std@@QEAA@XZ
	??1?$_List_unchecked_const_iterator@V?$_List_val@U?$_List_simple_types@PEAVRichParameter@@@std@@@std@@U_Iterator_base12@2@@std@@QEAA@XZ
	??1?$_List_unchecked_const_iterator@V?$_List_val@U?$_List_simple_types@VMeshModel@@@std@@@std@@U_Iterator_base12@2@@std@@QEAA@XZ
	??1?$_Ref_count_obj2@VBoolValue@@@std@@UEAA@XZ
	??1?$_Ref_count_obj2@VColorValue@@@std@@UEAA@XZ
	??1?$_Ref_count_obj2@VFloatValue@@@std@@UEAA@XZ
	??1?$_Ref_count_obj2@VIntValue@@@std@@UEAA@XZ
	??1?$_Ref_count_obj2@VMatrix44Value@@@std@@UEAA@XZ
	??1?$_Ref_count_obj2@VPoint3Value@@@std@@UEAA@XZ
	??1?$_Ref_count_obj2@VShotValue@@@std@@UEAA@XZ
	??1?$_Ref_count_obj2@VStringValue@@@std@@UEAA@XZ
	??1?$_Tree@V?$_Tmap_traits@VQString@@PEAVQCheckBox@@U?$less@VQString@@@std@@V?$allocator@U?$pair@$$CBVQString@@PEAVQCheckBox@@@std@@@4@$0A@@std@@@std@@QEAA@XZ
	??1?$_Tree@V?$_Tmap_traits@VQString@@PEAVRichParameterWidget@@U?$less@VQString@@@std@@V?$allocator@U?$pair@$$CBVQString@@PEAVRichParameterWidget@@@std@@@4@$0A@@std@@@std@@QEAA@XZ
	??1?$_Tree@V?$_Tmap_traits@VQString@@V?$vector@PEBVRichParameter@@V?$allocator@PEBVRichParameter@@@std@@@std@@U?$less@VQString@@@3@V?$allocator@U?$pair@$$CBVQString@@V?$vector@PEBVRichParameter@@V?$allocator@PEBVRichParameter@@@std@@@std@@@std@@@3@$0A@@std@@@std@@QEAA@XZ
	??1?$_Tree@V?$_Tset_traits@VQString@@U?$less@VQString@@@std@@V?$allocator@VQString@@@3@$0A@@std@@@std@@QEAA@XZ
	??1?$_Tree_const_iterator@V?$_Tree_val@U?$_Tree_simple_types@U?$pair@$$CBVQString@@PEAVRichParameterWidget@@@std@@@std@@@std@@@std@@QEAA@XZ
	??1?$_Tree_const_iterator@V?$_Tree_val@U?$_Tree_simple_types@VQString@@@std@@@std@@@std@@QEAA@XZ
	??1?$_Tree_temp_node@V?$allocator@U?$_Tree_node@U?$pair@$$CBVQString@@PEAVQCheckBox@@@std@@PEAX@std@@@std@@@std@@QEAA@XZ
	??1?$_Tree_temp_node@V?$allocator@U?$_Tree_node@U?$pair@$$CBVQString@@PEAVRichParameterWidget@@@std@@PEAX@std@@@std@@@std@@QEAA@XZ
	??1?$_Tree_temp_node@V?$allocator@U?$_Tree_node@U?$pair@$$CBVQString@@V?$vector@PEBVRichParameter@@V?$allocator@PEBVRichParameter@@@std@@@std@@@std@@PEAX@std@@@std@@@std@@QEAA@XZ
	??1?$_Tree_temp_node@V?$allocator@U?$_Tree_node@VQString@@PEAX@std@@@std@@@std@@QEAA@XZ
	??1?$_Tree_temp_node_alloc@V?$allocator@U?$_Tree_node@U?$pair@$$CBVQString@@PEAVQCheckBox@@@std@@PEAX@std@@@std@@@std@@QEAA@XZ
	??1?$_Tree_temp_node_alloc@V?$allocator@U?$_Tree_node@U?$pair@$$CBVQString@@PEAVRichParameterWidget@@@std@@PEAX@std@@@std@@@std@@QEAA@XZ
	??1?$_Tree_temp_node_alloc@V?$allocator@U?$_Tree_node@U?$pair@$$CBVQString@@V?$vector@PEBVRichParameter@@V?$allocator@PEBVRichParameter@@@std@@@std@@@std@@PEAX@std@@@std@@@std@@QEAA@XZ
	??1?$_Tree_temp_node_alloc@V?$allocator@U?$_Tree_node@VQString@@PEAX@std@@@std@@@std@@QEAA@XZ
	??1?$_Tree_unchecked_const_iterator@V?$_Tree_val@U?$_Tree_simple_types@U?$pair@$$CBVQString@@PEAVRichParameterWidget@@@std@@@std@@@std@@U_Iterator_base12@2@@std@@QEAA@XZ
	??1?$_Tree_unchecked_const_iterator@V?$_Tree_val@U?$_Tree_simple_types@VQString@@@std@@@std@@U_Iterator_base12@2@@std@@QEAA@XZ
	??1?$_Uninitialized_backout_al@V?$allocator@PEAVQWidget@@@std@@@std@@QEAA@XZ
	??1?$_Uninitialized_backout_al@V?$allocator@PEBVRichParameter@@@std@@@std@@QEAA@XZ
	??1?$map@VQString@@PEAVQCheckBox@@U?$less@VQString@@@std@@V?$allocator@U?$pair@$$CBVQString@@PEAVQCheckBox@@@std@@@4@@std@@QEAA@XZ
	??1?$map@VQString@@PEAVRichParameterWidget@@U?$less@VQString@@@std@@V?$allocator@U?$pair@$$CBVQString@@PEAVRichParameterWidget@@@std@@@4@@std@@QEAA@XZ
	??1?$map@VQString@@V?$vector@PEBVRichParameter@@V?$allocator@PEBVRichParameter@@@std@@@std@@U?$less@VQString@@@3@V?$allocator@U?$pair@$$CBVQString@@V?$vector@PEBVRichParameter@@V?$allocator@PEBVRichParameter@@@std@@@std@@@std@@@3@@std@@QEAA@XZ
	??1?$pair@$$CBVQString@@PEAVQCheckBox@@@std@@QEAA@XZ
	??1?$pair@$$CBVQString@@PEAVRichParameterWidget@@@std@@QEAA@XZ
	??1?$pair@$$CBVQString@@V?$vector@PEBVRichParameter@@V?$allocator@PEBVRichParameter@@@std@@@std@@@std@@QEAA@XZ
	??1?$pair@V?$_Tree_const_iterator@V?$_Tree_val@U?$_Tree_simple_types@VQString@@@std@@@std@@@std@@_N@std@@QEAA@XZ
	??1?$set@VQString@@U?$less@VQString@@@std@@V?$allocator@VQString@@@3@@std@@QEAA@XZ
	??1?$shared_ptr@VBoolValue@@@std@@QEAA@XZ
	??1?$shared_ptr@VColorValue@@@std@@QEAA@XZ
	??1?$shared_ptr@VFloatValue@@@std@@QEAA@XZ
	??1?$shared_ptr@VIntValue@@@std@@QEAA@XZ
	??1?$shared_ptr@VMatrix44Value@@@std@@QEAA@XZ
	??1?$shared_ptr@VPoint3Value@@@std@@QEAA@XZ
	??1?$shared_ptr@VShotValue@@@std@@QEAA@XZ
	??1?$shared_ptr@VStringValue@@@std@@QEAA@XZ
	??1?$shared_ptr@VValue@@@std@@QEAA@XZ
	??1?$vector@PEAVQWidget@@V?$allocator@PEAVQWidget@@@std@@@std@@QEAA@XZ
	??1?$vector@PEBVRichParameter@@V?$allocator@PEBVRichParameter@@@std@@@std@@QEAA@XZ
	??1BoolWidget@@UEAA@XZ
	??1ClickableLabel@@UEAA@XZ
	??1ColorValue@@UEAA@XZ
	??1ColorWidget@@UEAA@XZ
	??1ComboWidget@@UEAA@XZ
	??1DirectionWidget@@UEAA@XZ
	??1DynamicFloatWidget@@UEAA@XZ
	??1EnumWidget@@UEAA@XZ
	??1FloatWidget@@UEAA@XZ
	??1IOFileWidget@@MEAA@XZ
	??1IntWidget@@UEAA@XZ
	??1LineEditWidget@@UEAA@XZ
	??1Matrix44Widget@@UEAA@XZ
	??1MeshWidget@@UEAA@XZ
	??1OpenFileWidget@@UEAA@XZ
	??1PercentageWidget@@UEAA@XZ
	??1Point3Value@@UEAA@XZ
	??1Point3Widget@@UEAA@XZ
	??1PositionWidget@@UEAA@XZ
	??1QStringList@@QEAA@XZ
	??1ReferenceFrame@?$Shot@MV?$Matrix44@M@vcg@@@vcg@@QEAA@XZ
	??1RichParameterListDialog@@UEAA@XZ
	??1RichParameterListFrame@@UEAA@XZ
	??1RichParameterWidget@@UEAA@XZ
	??1SaveFileWidget@@UEAA@XZ
	??1ShotWidget@@UEAA@XZ
	??1StringValue@@UEAA@XZ
	??1StringWidget@@UEAA@XZ
	??1Value@@UEAA@XZ
	??1VerticalScrollArea@@UEAA@XZ
	??1_Iterator_base12@std@@QEAA@XZ
	??1_Ref_count_base@std@@UEAA@XZ
	??1_Sentry_base@?$basic_ostream@DU?$char_traits@D@std@@@std@@QEAA@XZ
	??1bad_alloc@std@@UEAA@XZ
	??1bad_array_new_length@std@@UEAA@XZ
	??1const_iterator@RichParameterList@@QEAA@XZ
	??1exception@std@@UEAA@XZ
	??1sentry@?$basic_ostream@DU?$char_traits@D@std@@@std@@QEAA@XZ
	??2@YAPEAX_KPEAX@Z
	??4_Iterator_base12@std@@QEAAAEAU01@AEBU01@@Z
	??6QStringList@@QEAAAEAV0@AEBVQString@@@Z
	??8?$_List_const_iterator@V?$_List_val@U?$_List_simple_types@PEAVRichParameter@@@std@@@std@@@std@@QEBA_NAEBV01@@Z
	??8?$_List_const_iterator@V?$_List_val@U?$_List_simple_types@VMeshModel@@@std@@@std@@@std@@QEBA_NAEBV01@@Z
	??8?$_Tree_const_iterator@V?$_Tree_val@U?$_Tree_simple_types@U?$pair@$$CBVQString@@PEAVRichParameterWidget@@@std@@@std@@@std@@@std@@QEBA_NAEBV01@@Z
	??9?$_List_const_iterator@V?$_List_val@U?$_List_simple_types@PEAVRichParameter@@@std@@@std@@@std@@QEBA_NAEBV01@@Z
	??9?$_List_const_iterator@V?$_List_val@U?$_List_simple_types@VMeshModel@@@std@@@std@@@std@@QEBA_NAEBV01@@Z
	??9?$_Tree_const_iterator@V?$_Tree_val@U?$_Tree_simple_types@U?$pair@$$CBVQString@@PEAVRichParameterWidget@@@std@@@std@@@std@@@std@@QEBA_NAEBV01@@Z
	??9?$_Tree_unchecked_const_iterator@V?$_Tree_val@U?$_Tree_simple_types@U?$pair@$$CBVQString@@PEAVRichParameterWidget@@@std@@@std@@@std@@U_Iterator_base0@2@@std@@QEBA_NU_Default_sentinel@1@@Z
	??9?$_Tree_unchecked_const_iterator@V?$_Tree_val@U?$_Tree_simple_types@U?$pair@$$CBVQString@@V?$vector@PEBVRichParameter@@V?$allocator@PEBVRichParameter@@@std@@@std@@@std@@@std@@@std@@U_Iterator_base0@2@@std@@QEBA_NU_Default_sentinel@1@@Z
	??9?$_Tree_unchecked_const_iterator@V?$_Tree_val@U?$_Tree_simple_types@VQString@@@std@@@std@@U_Iterator_base0@2@@std@@QEBA_NU_Default_sentinel@1@@Z
	??9@YA_NAEBVQString@@0@Z
	??9const_iterator@RichParameterList@@QEAA_NAEBV01@@Z
	??9iterator@?$QList@VQString@@@@QEBA_NAEBV01@@Z
	??A?$Matrix44@M@vcg@@QEAAPEAMH@Z
	??A?$Point3@M@vcg@@QEAAAEAMH@Z
	??A?$array@M$03@std@@QEAAAEAM_K@Z
	??A?$array@M$0BA@@std@@QEAAAEAM_K@Z
	??A?$map@VQString@@PEAVQCheckBox@@U?$less@VQString@@@std@@V?$allocator@U?$pair@$$CBVQString@@PEAVQCheckBox@@@std@@@4@@std@@QEAAAEAPEAVQCheckBox@@AEBVQString@@@Z
	??A?$map@VQString@@PEAVRichParameterWidget@@U?$less@VQString@@@std@@V?$allocator@U?$pair@$$CBVQString@@PEAVRichParameterWidget@@@std@@@4@@std@@QEAAAEAPEAVRichParameterWidget@@AEBVQString@@@Z
	??A?$map@VQString@@V?$vector@PEBVRichParameter@@V?$allocator@PEBVRichParameter@@@std@@@std@@U?$less@VQString@@@3@V?$allocator@U?$pair@$$CBVQString@@V?$vector@PEBVRichParameter@@V?$allocator@PEBVRichParameter@@@std@@@std@@@std@@@3@@std@@QEAAAEAV?$vector@PEBVRichParameter@@V?$allocator@PEBVRichParameter@@@std@@@1@AEBVQString@@@Z
	??BQFlag@@QEBAHXZ
	??Bsentry@?$basic_ostream@DU?$char_traits@D@std@@@std@@QEBA_NXZ
	??C?$QScopedPointer@VQObjectData@@U?$QScopedPointerDeleter@VQObjectData@@@@@@QEBAPEAVQObjectData@@XZ
	??D?$_List_const_iterator@V?$_List_val@U?$_List_simple_types@PEAVRichParameter@@@std@@@std@@@std@@QEBAAEBQEAVRichParameter@@XZ
	??D?$_List_const_iterator@V?$_List_val@U?$_List_simple_types@VMeshModel@@@std@@@std@@@std@@QEBAAEBVMeshModel@@XZ
	??D?$_Tree_const_iterator@V?$_Tree_val@U?$_Tree_simple_types@U?$pair@$$CBVQString@@PEAVRichParameterWidget@@@std@@@std@@@std@@@std@@QEBAAEBU?$pair@$$CBVQString@@PEAVRichParameterWidget@@@1@XZ
	??D?$_Tree_unchecked_const_iterator@V?$_Tree_val@U?$_Tree_simple_types@U?$pair@$$CBVQString@@PEAVRichParameterWidget@@@std@@@std@@@std@@U_Iterator_base0@2@@std@@QEBAAEBU?$pair@$$CBVQString@@PEAVRichParameterWidget@@@1@XZ
	??D?$_Tree_unchecked_const_iterator@V?$_Tree_val@U?$_Tree_simple_types@U?$pair@$$CBVQString@@V?$vector@PEBVRichParameter@@V?$allocator@PEBVRichParameter@@@std@@@std@@@std@@@std@@@std@@U_Iterator_base0@2@@std@@QEBAAEBU?$pair@$$CBVQString@@V?$vector@PEBVRichParameter@@V?$allocator@PEBVRichParameter@@@std@@@std@@@1@XZ
	??D?$_Tree_unchecked_const_iterator@V?$_Tree_val@U?$_Tree_simple_types@VQString@@@std@@@std@@U_Iterator_base0@2@@std@@QEBAAEBVQString@@XZ
	??D?$_Tree_unchecked_iterator@V?$_Tree_val@U?$_Tree_simple_types@U?$pair@$$CBVQString@@PEAVRichParameterWidget@@@std@@@std@@@std@@@std@@QEBAAEAU?$pair@$$CBVQString@@PEAVRichParameterWidget@@@1@XZ
	??D?$_Tree_unchecked_iterator@V?$_Tree_val@U?$_Tree_simple_types@U?$pair@$$CBVQString@@V?$vector@PEBVRichParameter@@V?$allocator@PEBVRichParameter@@@std@@@std@@@std@@@std@@@std@@@std@@QEBAAEAU?$pair@$$CBVQString@@V?$vector@PEBVRichParameter@@V?$allocator@PEBVRichParameter@@@std@@@std@@@1@XZ
	??Dconst_iterator@RichParameterList@@QEAAAEBVRichParameter@@XZ
	??Diterator@?$QList@VQString@@@@QEBAAEAVQString@@XZ
	??E?$_Atomic_integral@H$03@std@@QEAAHXZ
	??E?$_List_const_iterator@V?$_List_val@U?$_List_simple_types@PEAVRichParameter@@@std@@@std@@@std@@QEAAAEAV01@XZ
	??E?$_List_const_iterator@V?$_List_val@U?$_List_simple_types@VMeshModel@@@std@@@std@@@std@@QEAAAEAV01@XZ
	??E?$_Tree_const_iterator@V?$_Tree_val@U?$_Tree_simple_types@U?$pair@$$CBVQString@@PEAVRichParameterWidget@@@std@@@std@@@std@@@std@@QEAAAEAV01@XZ
	??E?$_Tree_unchecked_const_iterator@V?$_Tree_val@U?$_Tree_simple_types@U?$pair@$$CBVQString@@PEAVRichParameterWidget@@@std@@@std@@@std@@U_Iterator_base0@2@@std@@QEAAAEAV01@XZ
	??E?$_Tree_unchecked_const_iterator@V?$_Tree_val@U?$_Tree_simple_types@U?$pair@$$CBVQString@@PEAVRichParameterWidget@@@std@@@std@@@std@@U_Iterator_base12@2@@std@@QEAAAEAV01@XZ
	??E?$_Tree_unchecked_const_iterator@V?$_Tree_val@U?$_Tree_simple_types@U?$pair@$$CBVQString@@V?$vector@PEBVRichParameter@@V?$allocator@PEBVRichParameter@@@std@@@std@@@std@@@std@@@std@@U_Iterator_base0@2@@std@@QEAAAEAV01@XZ
	??E?$_Tree_unchecked_const_iterator@V?$_Tree_val@U?$_Tree_simple_types@VQString@@@std@@@std@@U_Iterator_base0@2@@std@@QEAAAEAV01@XZ
	??E?$_Tree_unchecked_iterator@V?$_Tree_val@U?$_Tree_simple_types@U?$pair@$$CBVQString@@PEAVRichParameterWidget@@@std@@@std@@@std@@@std@@QEAAAEAV01@XZ
	??E?$_Tree_unchecked_iterator@V?$_Tree_val@U?$_Tree_simple_types@U?$pair@$$CBVQString@@V?$vector@PEBVRichParameter@@V?$allocator@PEBVRichParameter@@@std@@@std@@@std@@@std@@@std@@@std@@QEAAAEAV01@XZ
	??Econst_iterator@RichParameterList@@QEAAAEAV01@XZ
	??Eiterator@?$QList@VQString@@@@QEAAAEAV01@XZ
	??F?$_Atomic_integral@H$03@std@@QEAAHXZ
	??F?$_List_const_iterator@V?$_List_val@U?$_List_simple_types@VMeshModel@@@std@@@std@@@std@@QEAAAEAV01@XZ
	??H@YA?BVQString@@AEBV0@PEBD@Z
	??H@YA?BVQString@@PEBDAEBV0@@Z
	??R?$less@VQString@@@std@@QEBA_NAEBVQString@@0@Z
	??U?$QFlags@W4ColorDialogOption@QColorDialog@@@@QEBA?AV0@W4ColorDialogOption@QColorDialog@@@Z
	??U?$QFlags@W4StandardButton@QDialogButtonBox@@@@QEBA?AV0@W4StandardButton@QDialogButtonBox@@@Z
	??U@YA?AV?$QFlags@W4ColorDialogOption@QColorDialog@@@@W4ColorDialogOption@QColorDialog@@0@Z
	??U@YA?AV?$QFlags@W4StandardButton@QDialogButtonBox@@@@W4StandardButton@QDialogButtonBox@@0@Z
	?ElementAt@?$Matrix44@M@vcg@@QEAAAEAMHH@Z
	?GetViewPoint@?$Shot@MV?$Matrix44@M@vcg@@@vcg@@QEBA?BV?$Point3@M@2@XZ
	?SetDiagonal@?$Matrix44@M@vcg@@QEAAXM@Z
	?SetIdentity@?$Matrix44@M@vcg@@QEAAXXZ
	?SetIdentity@ReferenceFrame@?$Shot@MV?$Matrix44@M@vcg@@@vcg@@QEAAXXZ
	?SetZero@?$Matrix44@M@vcg@@QEAAXXZ
	?V@?$Matrix44@M@vcg@@QEAAPEAMXZ
	?_Adjust_manually_vector_aligned@std@@YAXAEAPEAXAEA_K@Z
	?_Adopt@_Iterator_base0@std@@QEAAXPEBX@Z
	?_Adopt@_Iterator_base12@std@@QEAAXPEBU_Container_base12@2@@Z
	?_Adopt_locked@_Iterator_base12@std@@AEAAXPEBU_Container_base12@2@@Z
	?_Adopt_unlocked@_Iterator_base12@std@@AEAAXPEBU_Container_base12@2@@Z
	?_Alloc_sentinel_and_proxy@?$_Tree@V?$_Tmap_traits@VQString@@PEAVQCheckBox@@U?$less@VQString@@@std@@V?$allocator@U?$pair@$$CBVQString@@PEAVQCheckBox@@@std@@@4@$0A@@std@@@std@@IEAAXXZ
	?_Alloc_sentinel_and_proxy@?$_Tree@V?$_Tmap_traits@VQString@@PEAVRichParameterWidget@@U?$less@VQString@@@std@@V?$allocator@U?$pair@$$CBVQString@@PEAVRichParameterWidget@@@std@@@4@$0A@@std@@@std@@IEAAXXZ
	?_Alloc_sentinel_and_proxy@?$_Tree@V?$_Tmap_traits@VQString@@V?$vector@PEBVRichParameter@@V?$allocator@PEBVRichParameter@@@std@@@std@@U?$less@VQString@@@3@V?$allocator@U?$pair@$$CBVQString@@V?$vector@PEBVRichParameter@@V?$allocator@PEBVRichParameter@@@std@@@std@@@std@@@3@$0A@@std@@@std@@IEAAXXZ
	?_Alloc_sentinel_and_proxy@?$_Tree@V?$_Tset_traits@VQString@@U?$less@VQString@@@std@@V?$allocator@VQString@@@3@$0A@@std@@@std@@IEAAXXZ
	?_Allocate@?$_Alloc_construct_ptr@V?$allocator@U?$_Tree_node@U?$pair@$$CBVQString@@PEAVQCheckBox@@@std@@PEAX@std@@@std@@@std@@QEAAXXZ
	?_Allocate@?$_Alloc_construct_ptr@V?$allocator@U?$_Tree_node@U?$pair@$$CBVQString@@PEAVRichParameterWidget@@@std@@PEAX@std@@@std@@@std@@QEAAXXZ
	?_Allocate@?$_Alloc_construct_ptr@V?$allocator@U?$_Tree_node@U?$pair@$$CBVQString@@V?$vector@PEBVRichParameter@@V?$allocator@PEBVRichParameter@@@std@@@std@@@std@@PEAX@std@@@std@@@std@@QEAAXXZ
	?_Allocate@?$_Alloc_construct_ptr@V?$allocator@U?$_Tree_node@VQString@@PEAX@std@@@std@@@std@@QEAAXXZ
	?_Allocate@_Default_allocate_traits@std@@SAPEAX_K@Z
	?_Assign_locked@_Iterator_base12@std@@AEAAXAEBU12@@Z
	?_Assign_unlocked@_Iterator_base12@std@@AEAAXAEBU12@@Z
	?_Calculate_growth@?$vector@PEAVQWidget@@V?$allocator@PEAVQWidget@@@std@@@std@@AEBA_K_K@Z
	?_Calculate_growth@?$vector@PEBVRichParameter@@V?$allocator@PEBVRichParameter@@@std@@@std@@AEBA_K_K@Z
	?_Change_array@?$vector@PEAVQWidget@@V?$allocator@PEAVQWidget@@@std@@@std@@AEAAXQEAPEAVQWidget@@_K1@Z
	?_Change_array@?$vector@PEBVRichParameter@@V?$allocator@PEBVRichParameter@@@std@@@std@@AEAAXQEAPEBVRichParameter@@_K1@Z
	?_Check_grow_by_1@?$_Tree@V?$_Tmap_traits@VQString@@PEAVQCheckBox@@U?$less@VQString@@@std@@V?$allocator@U?$pair@$$CBVQString@@PEAVQCheckBox@@@std@@@4@$0A@@std@@@std@@IEAAXXZ
	?_Check_grow_by_1@?$_Tree@V?$_Tmap_traits@VQString@@PEAVRichParameterWidget@@U?$less@VQString@@@std@@V?$allocator@U?$pair@$$CBVQString@@PEAVRichParameterWidget@@@std@@@4@$0A@@std@@@std@@IEAAXXZ
	?_Check_grow_by_1@?$_Tree@V?$_Tmap_traits@VQString@@V?$vector@PEBVRichParameter@@V?$allocator@PEBVRichParameter@@@std@@@std@@U?$less@VQString@@@3@V?$allocator@U?$pair@$$CBVQString@@V?$vector@PEBVRichParameter@@V?$allocator@PEBVRichParameter@@@std@@@std@@@std@@@3@$0A@@std@@@std@@IEAAXXZ
	?_Check_grow_by_1@?$_Tree@V?$_Tset_traits@VQString@@U?$less@VQString@@@std@@V?$allocator@VQString@@@3@$0A@@std@@@std@@IEAAXXZ
	?_Decref@?$_Ptr_base@VBoolValue@@@std@@IEAAXXZ
	?_Decref@?$_Ptr_base@VColorValue@@@std@@IEAAXXZ
	?_Decref@?$_Ptr_base@VFloatValue@@@std@@IEAAXXZ
	?_Decref@?$_Ptr_base@VIntValue@@@std@@IEAAXXZ
	?_Decref@?$_Ptr_base@VMatrix44Value@@@std@@IEAAXXZ
	?_Decref@?$_Ptr_base@VPoint3Value@@@std@@IEAAXXZ
	?_Decref@?$_Ptr_base@VShotValue@@@std@@IEAAXXZ
	?_Decref@?$_Ptr_base@VStringValue@@@std@@IEAAXXZ
	?_Decref@?$_Ptr_base@VValue@@@std@@IEAAXXZ
	?_Decref@_Ref_count_base@std@@QEAAXXZ
	?_Decwref@_Ref_count_base@std@@QEAAXXZ
	?_Delete_this@?$_Ref_count_obj2@VBoolValue@@@std@@EEAAXXZ
	?_Delete_this@?$_Ref_count_obj2@VColorValue@@@std@@EEAAXXZ
	?_Delete_this@?$_Ref_count_obj2@VFloatValue@@@std@@EEAAXXZ
	?_Delete_this@?$_Ref_count_obj2@VIntValue@@@std@@EEAAXXZ
	?_Delete_this@?$_Ref_count_obj2@VMatrix44Value@@@std@@EEAAXXZ
	?_Delete_this@?$_Ref_count_obj2@VPoint3Value@@@std@@EEAAXXZ
	?_Delete_this@?$_Ref_count_obj2@VShotValue@@@std@@EEAAXXZ
	?_Delete_this@?$_Ref_count_obj2@VStringValue@@@std@@EEAAXXZ
	?_Destroy@?$_Ref_count_obj2@VBoolValue@@@std@@EEAAXXZ
	?_Destroy@?$_Ref_count_obj2@VColorValue@@@std@@EEAAXXZ
	?_Destroy@?$_Ref_count_obj2@VFloatValue@@@std@@EEAAXXZ
	?_Destroy@?$_Ref_count_obj2@VIntValue@@@std@@EEAAXXZ
	?_Destroy@?$_Ref_count_obj2@VMatrix44Value@@@std@@EEAAXXZ
	?_Destroy@?$_Ref_count_obj2@VPoint3Value@@@std@@EEAAXXZ
	?_Destroy@?$_Ref_count_obj2@VShotValue@@@std@@EEAAXXZ
	?_Destroy@?$_Ref_count_obj2@VStringValue@@@std@@EEAAXXZ
	?_Destroy@?$vector@PEAVQWidget@@V?$allocator@PEAVQWidget@@@std@@@std@@AEAAXPEAPEAVQWidget@@0@Z
	?_Destroy@?$vector@PEBVRichParameter@@V?$allocator@PEBVRichParameter@@@std@@@std@@AEAAXPEAPEBVRichParameter@@0@Z
	?_Extract@?$_In_place_key_extract_set@VQString@@V1@@std@@SAAEBVQString@@AEBV3@@Z
	?_Get_deleter@_Ref_count_base@std@@UEBAPEAXAEBVtype_info@@@Z
	?_Get_first@?$_Compressed_pair@U?$less@VQString@@@std@@V?$_Compressed_pair@V?$allocator@U?$_Tree_node@U?$pair@$$CBVQString@@PEAVQCheckBox@@@std@@PEAX@std@@@std@@V?$_Tree_val@U?$_Tree_simple_types@U?$pair@$$CBVQString@@PEAVQCheckBox@@@std@@@std@@@2@$00@2@$00@std@@QEBAAEBU?$less@VQString@@@2@XZ
	?_Get_first@?$_Compressed_pair@U?$less@VQString@@@std@@V?$_Compressed_pair@V?$allocator@U?$_Tree_node@U?$pair@$$CBVQString@@PEAVRichParameterWidget@@@std@@PEAX@std@@@std@@V?$_Tree_val@U?$_Tree_simple_types@U?$pair@$$CBVQString@@PEAVRichParameterWidget@@@std@@@std@@@2@$00@2@$00@std@@QEBAAEBU?$less@VQString@@@2@XZ
	?_Get_first@?$_Compressed_pair@U?$less@VQString@@@std@@V?$_Compressed_pair@V?$allocator@U?$_Tree_node@U?$pair@$$CBVQString@@V?$vector@PEBVRichParameter@@V?$allocator@PEBVRichParameter@@@std@@@std@@@std@@PEAX@std@@@std@@V?$_Tree_val@U?$_Tree_simple_types@U?$pair@$$CBVQString@@V?$vector@PEBVRichParameter@@V?$allocator@PEBVRichParameter@@@std@@@std@@@std@@@std@@@2@$00@2@$00@std@@QEBAAEBU?$less@VQString@@@2@XZ
	?_Get_first@?$_Compressed_pair@U?$less@VQString@@@std@@V?$_Compressed_pair@V?$allocator@U?$_Tree_node@VQString@@PEAX@std@@@std@@V?$_Tree_val@U?$_Tree_simple_types@VQString@@@std@@@2@$00@2@$00@std@@QEBAAEBU?$less@VQString@@@2@XZ
	?_Get_first@?$_Compressed_pair@V?$allocator@PEAVQWidget@@@std@@V?$_Vector_val@U?$_Simple_types@PEAVQWidget@@@std@@@2@$00@std@@QEAAAEAV?$allocator@PEAVQWidget@@@2@XZ
	?_Get_first@?$_Compressed_pair@V?$allocator@PEAVQWidget@@@std@@V?$_Vector_val@U?$_Simple_types@PEAVQWidget@@@std@@@2@$00@std@@QEBAAEBV?$allocator@PEAVQWidget@@@2@XZ
	?_Get_first@?$_Compressed_pair@V?$allocator@PEBVRichParameter@@@std@@V?$_Vector_val@U?$_Simple_types@PEBVRichParameter@@@std@@@2@$00@std@@QEAAAEAV?$allocator@PEBVRichParameter@@@2@XZ
	?_Get_first@?$_Compressed_pair@V?$allocator@PEBVRichParameter@@@std@@V?$_Vector_val@U?$_Simple_types@PEBVRichParameter@@@std@@@2@$00@std@@QEBAAEBV?$allocator@PEBVRichParameter@@@2@XZ
	?_Get_first@?$_Compressed_pair@V?$allocator@U?$_Tree_node@U?$pair@$$CBVQString@@PEAVQCheckBox@@@std@@PEAX@std@@@std@@V?$_Tree_val@U?$_Tree_simple_types@U?$pair@$$CBVQString@@PEAVQCheckBox@@@std@@@std@@@2@$00@std@@QEAAAEAV?$allocator@U?$_Tree_node@U?$pair@$$CBVQString@@PEAVQCheckBox@@@std@@PEAX@std@@@2@XZ
	?_Get_first@?$_Compressed_pair@V?$allocator@U?$_Tree_node@U?$pair@$$CBVQString@@PEAVQCheckBox@@@std@@PEAX@std@@@std@@V?$_Tree_val@U?$_Tree_simple_types@U?$pair@$$CBVQString@@PEAVQCheckBox@@@std@@@std@@@2@$00@std@@QEBAAEBV?$allocator@U?$_Tree_node@U?$pair@$$CBVQString@@PEAVQCheckBox@@@std@@PEAX@std@@@2@XZ
	?_Get_first@?$_Compressed_pair@V?$allocator@U?$_Tree_node@U?$pair@$$CBVQString@@PEAVRichParameterWidget@@@std@@PEAX@std@@@std@@V?$_Tree_val@U?$_Tree_simple_types@U?$pair@$$CBVQString@@PEAVRichParameterWidget@@@std@@@std@@@2@$00@std@@QEAAAEAV?$allocator@U?$_Tree_node@U?$pair@$$CBVQString@@PEAVRichParameterWidget@@@std@@PEAX@std@@@2@XZ
	?_Get_first@?$_Compressed_pair@V?$allocator@U?$_Tree_node@U?$pair@$$CBVQString@@PEAVRichParameterWidget@@@std@@PEAX@std@@@std@@V?$_Tree_val@U?$_Tree_simple_types@U?$pair@$$CBVQString@@PEAVRichParameterWidget@@@std@@@std@@@2@$00@std@@QEBAAEBV?$allocator@U?$_Tree_node@U?$pair@$$CBVQString@@PEAVRichParameterWidget@@@std@@PEAX@std@@@2@XZ
	?_Get_first@?$_Compressed_pair@V?$allocator@U?$_Tree_node@U?$pair@$$CBVQString@@V?$vector@PEBVRichParameter@@V?$allocator@PEBVRichParameter@@@std@@@std@@@std@@PEAX@std@@@std@@V?$_Tree_val@U?$_Tree_simple_types@U?$pair@$$CBVQString@@V?$vector@PEBVRichParameter@@V?$allocator@PEBVRichParameter@@@std@@@std@@@std@@@std@@@2@$00@std@@QEAAAEAV?$allocator@U?$_Tree_node@U?$pair@$$CBVQString@@V?$vector@PEBVRichParameter@@V?$allocator@PEBVRichParameter@@@std@@@std@@@std@@PEAX@std@@@2@XZ
	?_Get_first@?$_Compressed_pair@V?$allocator@U?$_Tree_node@U?$pair@$$CBVQString@@V?$vector@PEBVRichParameter@@V?$allocator@PEBVRichParameter@@@std@@@std@@@std@@PEAX@std@@@std@@V?$_Tree_val@U?$_Tree_simple_types@U?$pair@$$CBVQString@@V?$vector@PEBVRichParameter@@V?$allocator@PEBVRichParameter@@@std@@@std@@@std@@@std@@@2@$00@std@@QEBAAEBV?$allocator@U?$_Tree_node@U?$pair@$$CBVQString@@V?$vector@PEBVRichParameter@@V?$allocator@PEBVRichParameter@@@std@@@std@@@std@@PEAX@std@@@2@XZ
	?_Get_first@?$_Compressed_pair@V?$allocator@U?$_Tree_node@VQString@@PEAX@std@@@std@@V?$_Tree_val@U?$_Tree_simple_types@VQString@@@std@@@2@$00@std@@QEAAAEAV?$allocator@U?$_Tree_node@VQString@@PEAX@std@@@2@XZ
	?_Get_first@?$_Compressed_pair@V?$allocator@U?$_Tree_node@VQString@@PEAX@std@@@std@@V?$_Tree_val@U?$_Tree_simple_types@VQString@@@std@@@2@$00@std@@QEBAAEBV?$allocator@U?$_Tree_node@VQString@@PEAX@std@@@2@XZ
	?_Get_scary@?$_Tree@V?$_Tmap_traits@VQString@@PEAVQCheckBox@@U?$less@VQString@@@std@@V?$allocator@U?$pair@$$CBVQString@@PEAVQCheckBox@@@std@@@4@$0A@@std@@@std@@IEAAPEAV?$_Tree_val@U?$_Tree_simple_types@U?$pair@$$CBVQString@@PEAVQCheckBox@@@std@@@std@@@2@XZ
	?_Get_scary@?$_Tree@V?$_Tmap_traits@VQString@@PEAVQCheckBox@@U?$less@VQString@@@std@@V?$allocator@U?$pair@$$CBVQString@@PEAVQCheckBox@@@std@@@4@$0A@@std@@@std@@IEBAPEBV?$_Tree_val@U?$_Tree_simple_types@U?$pair@$$CBVQString@@PEAVQCheckBox@@@std@@@std@@@2@XZ
	?_Get_scary@?$_Tree@V?$_Tmap_traits@VQString@@PEAVRichParameterWidget@@U?$less@VQString@@@std@@V?$allocator@U?$pair@$$CBVQString@@PEAVRichParameterWidget@@@std@@@4@$0A@@std@@@std@@IEAAPEAV?$_Tree_val@U?$_Tree_simple_types@U?$pair@$$CBVQString@@PEAVRichParameterWidget@@@std@@@std@@@2@XZ
	?_Get_scary@?$_Tree@V?$_Tmap_traits@VQString@@PEAVRichParameterWidget@@U?$less@VQString@@@std@@V?$allocator@U?$pair@$$CBVQString@@PEAVRichParameterWidget@@@std@@@4@$0A@@std@@@std@@IEBAPEBV?$_Tree_val@U?$_Tree_simple_types@U?$pair@$$CBVQString@@PEAVRichParameterWidget@@@std@@@std@@@2@XZ
	?_Get_scary@?$_Tree@V?$_Tmap_traits@VQString@@V?$vector@PEBVRichParameter@@V?$allocator@PEBVRichParameter@@@std@@@std@@U?$less@VQString@@@3@V?$allocator@U?$pair@$$CBVQString@@V?$vector@PEBVRichParameter@@V?$allocator@PEBVRichParameter@@@std@@@std@@@std@@@3@$0A@@std@@@std@@IEAAPEAV?$_Tree_val@U?$_Tree_simple_types@U?$pair@$$CBVQString@@V?$vector@PEBVRichParameter@@V?$allocator@PEBVRichParameter@@@std@@@std@@@std@@@std@@@2@XZ
	?_Get_scary@?$_Tree@V?$_Tmap_traits@VQString@@V?$vector@PEBVRichParameter@@V?$allocator@PEBVRichParameter@@@std@@@std@@U?$less@VQString@@@3@V?$allocator@U?$pair@$$CBVQString@@V?$vector@PEBVRichParameter@@V?$allocator@PEBVRichParameter@@@std@@@std@@@std@@@3@$0A@@std@@@std@@IEBAPEBV?$_Tree_val@U?$_Tree_simple_types@U?$pair@$$CBVQString@@V?$vector@PEBVRichParameter@@V?$allocator@PEBVRichParameter@@@std@@@std@@@std@@@std@@@2@XZ
	?_Get_scary@?$_Tree@V?$_Tset_traits@VQString@@U?$less@VQString@@@std@@V?$allocator@VQString@@@3@$0A@@std@@@std@@IEAAPEAV?$_Tree_val@U?$_Tree_simple_types@VQString@@@std@@@2@XZ
	?_Get_scary@?$_Tree@V?$_Tset_traits@VQString@@U?$less@VQString@@@std@@V?$allocator@VQString@@@3@$0A@@std@@@std@@IEBAPEBV?$_Tree_val@U?$_Tree_simple_types@VQString@@@std@@@2@XZ
	?_Getal@?$_Tree@V?$_Tmap_traits@VQString@@PEAVQCheckBox@@U?$less@VQString@@@std@@V?$allocator@U?$pair@$$CBVQString@@PEAVQCheckBox@@@std@@@4@$0A@@std@@@std@@IEAAAEAV?$allocator@U?$_Tree_node@U?$pair@$$CBVQString@@PEAVQCheckBox@@@std@@PEAX@std@@@2@XZ
	?_Getal@?$_Tree@V?$_Tmap_traits@VQString@@PEAVQCheckBox@@U?$less@VQString@@@std@@V?$allocator@U?$pair@$$CBVQString@@PEAVQCheckBox@@@std@@@4@$0A@@std@@@std@@IEBAAEBV?$allocator@U?$_Tree_node@U?$pair@$$CBVQString@@PEAVQCheckBox@@@std@@PEAX@std@@@2@XZ
	?_Getal@?$_Tree@V?$_Tmap_traits@VQString@@PEAVRichParameterWidget@@U?$less@VQString@@@std@@V?$allocator@U?$pair@$$CBVQString@@PEAVRichParameterWidget@@@std@@@4@$0A@@std@@@std@@IEAAAEAV?$allocator@U?$_Tree_node@U?$pair@$$CBVQString@@PEAVRichParameterWidget@@@std@@PEAX@std@@@2@XZ
	?_Getal@?$_Tree@V?$_Tmap_traits@VQString@@PEAVRichParameterWidget@@U?$less@VQString@@@std@@V?$allocator@U?$pair@$$CBVQString@@PEAVRichParameterWidget@@@std@@@4@$0A@@std@@@std@@IEBAAEBV?$allocator@U?$_Tree_node@U?$pair@$$CBVQString@@PEAVRichParameterWidget@@@std@@PEAX@std@@@2@XZ
	?_Getal@?$_Tree@V?$_Tmap_traits@VQString@@V?$vector@PEBVRichParameter@@V?$allocator@PEBVRichParameter@@@std@@@std@@U?$less@VQString@@@3@V?$allocator@U?$pair@$$CBVQString@@V?$vector@PEBVRichParameter@@V?$allocator@PEBVRichParameter@@@std@@@std@@@std@@@3@$0A@@std@@@std@@IEAAAEAV?$allocator@U?$_Tree_node@U?$pair@$$CBVQString@@V?$vector@PEBVRichParameter@@V?$allocator@PEBVRichParameter@@@std@@@std@@@std@@PEAX@std@@@2@XZ
	?_Getal@?$_Tree@V?$_Tmap_traits@VQString@@V?$vector@PEBVRichParameter@@V?$allocator@PEBVRichParameter@@@std@@@std@@U?$less@VQString@@@3@V?$allocator@U?$pair@$$CBVQString@@V?$vector@PEBVRichParameter@@V?$allocator@PEBVRichParameter@@@std@@@std@@@std@@@3@$0A@@std@@@std@@IEBAAEBV?$allocator@U?$_Tree_node@U?$pair@$$CBVQString@@V?$vector@PEBVRichParameter@@V?$allocator@PEBVRichParameter@@@std@@@std@@@std@@PEAX@std@@@2@XZ
	?_Getal@?$_Tree@V?$_Tset_traits@VQString@@U?$less@VQString@@@std@@V?$allocator@VQString@@@3@$0A@@std@@@std@@IEAAAEAV?$allocator@U?$_Tree_node@VQString@@PEAX@std@@@2@XZ
	?_Getal@?$_Tree@V?$_Tset_traits@VQString@@U?$less@VQString@@@std@@V?$allocator@VQString@@@3@$0A@@std@@@std@@IEBAAEBV?$allocator@U?$_Tree_node@VQString@@PEAX@std@@@2@XZ
	?_Getal@?$vector@PEAVQWidget@@V?$allocator@PEAVQWidget@@@std@@@std@@AEAAAEAV?$allocator@PEAVQWidget@@@2@XZ
	?_Getal@?$vector@PEAVQWidget@@V?$allocator@PEAVQWidget@@@std@@@std@@AEBAAEBV?$allocator@PEAVQWidget@@@2@XZ
	?_Getal@?$vector@PEBVRichParameter@@V?$allocator@PEBVRichParameter@@@std@@@std@@AEAAAEAV?$allocator@PEBVRichParameter@@@2@XZ
	?_Getal@?$vector@PEBVRichParameter@@V?$allocator@PEBVRichParameter@@@std@@@std@@AEBAAEBV?$allocator@PEBVRichParameter@@@2@XZ
	?_Getcomp@?$_Tree@V?$_Tmap_traits@VQString@@PEAVQCheckBox@@U?$less@VQString@@@std@@V?$allocator@U?$pair@$$CBVQString@@PEAVQCheckBox@@@std@@@4@$0A@@std@@@std@@IEBAAEBU?$less@VQString@@@2@XZ
	?_Getcomp@?$_Tree@V?$_Tmap_traits@VQString@@PEAVRichParameterWidget@@U?$less@VQString@@@std@@V?$allocator@U?$pair@$$CBVQString@@PEAVRichParameterWidget@@@std@@@4@$0A@@std@@@std@@IEBAAEBU?$less@VQString@@@2@XZ
	?_Getcomp@?$_Tree@V?$_Tmap_traits@VQString@@V?$vector@PEBVRichParameter@@V?$allocator@PEBVRichParameter@@@std@@@std@@U?$less@VQString@@@3@V?$allocator@U?$pair@$$CBVQString@@V?$vector@PEBVRichParameter@@V?$allocator@PEBVRichParameter@@@std@@@std@@@std@@@3@$0A@@std@@@std@@IEBAAEBU?$less@VQString@@@2@XZ
	?_Getcomp@?$_Tree@V?$_Tset_traits@VQString@@U?$less@VQString@@@std@@V?$allocator@VQString@@@3@$0A@@std@@@std@@IEBAAEBU?$less@VQString@@@2@XZ
	?_Getcont@_Iterator_base12@std@@QEBAPEBU_Container_base12@2@XZ
	?_Insert_node@?$_Tree_val@U?$_Tree_simple_types@U?$pair@$$CBVQString@@PEAVQCheckBox@@@std@@@std@@@std@@QEAAPEAU?$_Tree_node@U?$pair@$$CBVQString@@PEAVQCheckBox@@@std@@PEAX@2@U?$_Tree_id@PEAU?$_Tree_node@U?$pair@$$CBVQString@@PEAVQCheckBox@@@std@@PEAX@std@@@2@QEAU32@@Z
	?_Insert_node@?$_Tree_val@U?$_Tree_simple_types@U?$pair@$$CBVQString@@PEAVRichParameterWidget@@@std@@@std@@@std@@QEAAPEAU?$_Tree_node@U?$pair@$$CBVQString@@PEAVRichParameterWidget@@@std@@PEAX@2@U?$_Tree_id@PEAU?$_Tree_node@U?$pair@$$CBVQString@@PEAVRichParameterWidget@@@std@@PEAX@std@@@2@QEAU32@@Z
	?_Insert_node@?$_Tree_val@U?$_Tree_simple_types@U?$pair@$$CBVQString@@V?$vector@PEBVRichParameter@@V?$allocator@PEBVRichParameter@@@std@@@std@@@std@@@std@@@std@@QEAAPEAU?$_Tree_node@U?$pair@$$CBVQString@@V?$vector@PEBVRichParameter@@V?$allocator@PEBVRichParameter@@@std@@@std@@@std@@PEAX@2@U?$_Tree_id@PEAU?$_Tree_node@U?$pair@$$CBVQString@@V?$vector@PEBVRichParameter@@V?$allocator@PEBVRichParameter@@@std@@@std@@@std@@PEAX@std@@@2@QEAU32@@Z
	?_Insert_node@?$_Tree_val@U?$_Tree_simple_types@VQString@@@std@@@std@@QEAAPEAU?$_Tree_node@VQString@@PEAX@2@U?$_Tree_id@PEAU?$_Tree_node@VQString@@PEAX@std@@@2@QEAU32@@Z
	?_Kfn@?$_Tset_traits@VQString@@U?$less@VQString@@@std@@V?$allocator@VQString@@@3@$0A@@std@@SAAEBVQString@@AEBV3@@Z
	?_Load_barrier@std@@YAXW4memory_order@1@@Z
	?_Lrotate@?$_Tree_val@U?$_Tree_simple_types@U?$pair@$$CBVQString@@PEAVQCheckBox@@@std@@@std@@@std@@QEAAXPEAU?$_Tree_node@U?$pair@$$CBVQString@@PEAVQCheckBox@@@std@@PEAX@2@@Z
	?_Lrotate@?$_Tree_val@U?$_Tree_simple_types@U?$pair@$$CBVQString@@PEAVRichParameterWidget@@@std@@@std@@@std@@QEAAXPEAU?$_Tree_node@U?$pair@$$CBVQString@@PEAVRichParameterWidget@@@std@@PEAX@2@@Z
	?_Lrotate@?$_Tree_val@U?$_Tree_simple_types@U?$pair@$$CBVQString@@V?$vector@PEBVRichParameter@@V?$allocator@PEBVRichParameter@@@std@@@std@@@std@@@std@@@std@@QEAAXPEAU?$_Tree_node@U?$pair@$$CBVQString@@V?$vector@PEBVRichParameter@@V?$allocator@PEBVRichParameter@@@std@@@std@@@std@@PEAX@2@@Z
	?_Lrotate@?$_Tree_val@U?$_Tree_simple_types@VQString@@@std@@@std@@QEAAXPEAU?$_Tree_node@VQString@@PEAX@2@@Z
	?_Min@?$_Tree_val@U?$_Tree_simple_types@U?$pair@$$CBVQString@@PEAVRichParameterWidget@@@std@@@std@@@std@@SAPEAU?$_Tree_node@U?$pair@$$CBVQString@@PEAVRichParameterWidget@@@std@@PEAX@2@PEAU32@@Z
	?_Min@?$_Tree_val@U?$_Tree_simple_types@U?$pair@$$CBVQString@@V?$vector@PEBVRichParameter@@V?$allocator@PEBVRichParameter@@@std@@@std@@@std@@@std@@@std@@SAPEAU?$_Tree_node@U?$pair@$$CBVQString@@V?$vector@PEBVRichParameter@@V?$allocator@PEBVRichParameter@@@std@@@std@@@std@@PEAX@2@PEAU32@@Z
	?_Min@?$_Tree_val@U?$_Tree_simple_types@VQString@@@std@@@std@@SAPEAU?$_Tree_node@VQString@@PEAX@2@PEAU32@@Z
	?_Orphan_all@_Container_base12@std@@QEAAXXZ
	?_Orphan_all_locked_v3@_Container_base12@std@@AEAAXXZ
	?_Orphan_all_unlocked_v3@_Container_base12@std@@AEAAXXZ
	?_Orphan_me_locked_v3@_Iterator_base12@std@@AEAAXXZ
	?_Orphan_me_unlocked_v3@_Iterator_base12@std@@AEAAXXZ
	?_Orphan_range@?$vector@PEAVQWidget@@V?$allocator@PEAVQWidget@@@std@@@std@@AEBAXPEAPEAVQWidget@@0@Z
	?_Orphan_range@?$vector@PEBVRichParameter@@V?$allocator@PEBVRichParameter@@@std@@@std@@AEBAXPEAPEBVRichParameter@@0@Z
	?_Orphan_range_locked@?$vector@PEAVQWidget@@V?$allocator@PEAVQWidget@@@std@@@std@@AEBAXPEAPEAVQWidget@@0@Z
	?_Orphan_range_locked@?$vector@PEBVRichParameter@@V?$allocator@PEBVRichParameter@@@std@@@std@@AEBAXPEAPEBVRichParameter@@0@Z
	?_Orphan_range_unlocked@?$vector@PEAVQWidget@@V?$allocator@PEAVQWidget@@@std@@@std@@AEBAXPEAPEAVQWidget@@0@Z
	?_Orphan_range_unlocked@?$vector@PEBVRichParameter@@V?$allocator@PEBVRichParameter@@@std@@@std@@AEBAXPEAPEBVRichParameter@@0@Z
	?_Release@?$_Alloc_construct_ptr@V?$allocator@U?$_Tree_node@U?$pair@$$CBVQString@@PEAVQCheckBox@@@std@@PEAX@std@@@std@@@std@@QEAAPEAU?$_Tree_node@U?$pair@$$CBVQString@@PEAVQCheckBox@@@std@@PEAX@2@XZ
	?_Release@?$_Alloc_construct_ptr@V?$allocator@U?$_Tree_node@U?$pair@$$CBVQString@@PEAVRichParameterWidget@@@std@@PEAX@std@@@std@@@std@@QEAAPEAU?$_Tree_node@U?$pair@$$CBVQString@@PEAVRichParameterWidget@@@std@@PEAX@2@XZ
	?_Release@?$_Alloc_construct_ptr@V?$allocator@U?$_Tree_node@U?$pair@$$CBVQString@@V?$vector@PEBVRichParameter@@V?$allocator@PEBVRichParameter@@@std@@@std@@@std@@PEAX@std@@@std@@@std@@QEAAPEAU?$_Tree_node@U?$pair@$$CBVQString@@V?$vector@PEBVRichParameter@@V?$allocator@PEBVRichParameter@@@std@@@std@@@std@@PEAX@2@XZ
	?_Release@?$_Alloc_construct_ptr@V?$allocator@U?$_Tree_node@VQString@@PEAX@std@@@std@@@std@@QEAAPEAU?$_Tree_node@VQString@@PEAX@2@XZ
	?_Release@?$_Uninitialized_backout_al@V?$allocator@PEAVQWidget@@@std@@@std@@QEAAPEAPEAVQWidget@@XZ
	?_Release@?$_Uninitialized_backout_al@V?$allocator@PEBVRichParameter@@@std@@@std@@QEAAPEAPEBVRichParameter@@XZ
	?_Release@_Basic_container_proxy_ptr12@std@@QEAAXXZ
	?_Rrotate@?$_Tree_val@U?$_Tree_simple_types@U?$pair@$$CBVQString@@PEAVQCheckBox@@@std@@@std@@@std@@QEAAXPEAU?$_Tree_node@U?$pair@$$CBVQString@@PEAVQCheckBox@@@std@@PEAX@2@@Z
	?_Rrotate@?$_Tree_val@U?$_Tree_simple_types@U?$pair@$$CBVQString@@PEAVRichParameterWidget@@@std@@@std@@@std@@QEAAXPEAU?$_Tree_node@U?$pair@$$CBVQString@@PEAVRichParameterWidget@@@std@@PEAX@2@@Z
	?_Rrotate@?$_Tree_val@U?$_Tree_simple_types@U?$pair@$$CBVQString@@V?$vector@PEBVRichParameter@@V?$allocator@PEBVRichParameter@@@std@@@std@@@std@@@std@@@std@@QEAAXPEAU?$_Tree_node@U?$pair@$$CBVQString@@V?$vector@PEBVRichParameter@@V?$allocator@PEBVRichParameter@@@std@@@std@@@std@@PEAX@2@@Z
	?_Rrotate@?$_Tree_val@U?$_Tree_simple_types@VQString@@@std@@@std@@QEAAXPEAU?$_Tree_node@VQString@@PEAX@2@@Z
	?_Throw_bad_array_new_length@std@@YAXXZ
	?_Throw_tree_length_error@std@@YAXXZ
	?_Tidy@?$vector@PEAVQWidget@@V?$allocator@PEAVQWidget@@@std@@@std@@AEAAXXZ
	?_Tidy@?$vector@PEBVRichParameter@@V?$allocator@PEBVRichParameter@@@std@@@std@@AEAAXXZ
	?_Umove@?$vector@PEAVQWidget@@V?$allocator@PEAVQWidget@@@std@@@std@@AEAAPEAPEAVQWidget@@PEAPEAV3@00@Z
	?_Umove@?$vector@PEBVRichParameter@@V?$allocator@PEBVRichParameter@@@std@@@std@@AEAAPEAPEBVRichParameter@@PEAPEBV3@00@Z
	?_Umove_if_noexcept1@?$vector@PEAVQWidget@@V?$allocator@PEAVQWidget@@@std@@@std@@AEAAXPEAPEAVQWidget@@00U?$integral_constant@_N$00@2@@Z
	?_Umove_if_noexcept1@?$vector@PEBVRichParameter@@V?$allocator@PEBVRichParameter@@@std@@@std@@AEAAXPEAPEBVRichParameter@@00U?$integral_constant@_N$00@2@@Z
	?_Umove_if_noexcept@?$vector@PEAVQWidget@@V?$allocator@PEAVQWidget@@@std@@@std@@AEAAXPEAPEAVQWidget@@00@Z
	?_Umove_if_noexcept@?$vector@PEBVRichParameter@@V?$allocator@PEBVRichParameter@@@std@@@std@@AEAAXPEAPEBVRichParameter@@00@Z
	?_Unchecked_begin@?$_Tree@V?$_Tmap_traits@VQString@@PEAVRichParameterWidget@@U?$less@VQString@@@std@@V?$allocator@U?$pair@$$CBVQString@@PEAVRichParameterWidget@@@std@@@4@$0A@@std@@@std@@QEAA?AV?$_Tree_unchecked_iterator@V?$_Tree_val@U?$_Tree_simple_types@U?$pair@$$CBVQString@@PEAVRichParameterWidget@@@std@@@std@@@std@@@2@XZ
	?_Unchecked_begin@?$_Tree@V?$_Tmap_traits@VQString@@V?$vector@PEBVRichParameter@@V?$allocator@PEBVRichParameter@@@std@@@std@@U?$less@VQString@@@3@V?$allocator@U?$pair@$$CBVQString@@V?$vector@PEBVRichParameter@@V?$allocator@PEBVRichParameter@@@std@@@std@@@std@@@3@$0A@@std@@@std@@QEAA?AV?$_Tree_unchecked_iterator@V?$_Tree_val@U?$_Tree_simple_types@U?$pair@$$CBVQString@@V?$vector@PEBVRichParameter@@V?$allocator@PEBVRichParameter@@@std@@@std@@@std@@@std@@@std@@@2@XZ
	?_Unchecked_begin@?$_Tree@V?$_Tset_traits@VQString@@U?$less@VQString@@@std@@V?$allocator@VQString@@@3@$0A@@std@@@std@@QEAA?AV?$_Tree_unchecked_const_iterator@V?$_Tree_val@U?$_Tree_simple_types@VQString@@@std@@@std@@U_Iterator_base0@2@@2@XZ
	?_Unchecked_begin@?$vector@PEAVQWidget@@V?$allocator@PEAVQWidget@@@std@@@std@@QEAAPEAPEAVQWidget@@XZ
	?_Unchecked_begin@?$vector@PEBVRichParameter@@V?$allocator@PEBVRichParameter@@@std@@@std@@QEBAPEBQEBVRichParameter@@XZ
	?_Unchecked_end@?$_Tree@V?$_Tmap_traits@VQString@@PEAVRichParameterWidget@@U?$less@VQString@@@std@@V?$allocator@U?$pair@$$CBVQString@@PEAVRichParameterWidget@@@std@@@4@$0A@@std@@@std@@QEBA?AU_Default_sentinel@2@XZ
	?_Unchecked_end@?$_Tree@V?$_Tmap_traits@VQString@@V?$vector@PEBVRichParameter@@V?$allocator@PEBVRichParameter@@@std@@@std@@U?$less@VQString@@@3@V?$allocator@U?$pair@$$CBVQString@@V?$vector@PEBVRichParameter@@V?$allocator@PEBVRichParameter@@@std@@@std@@@std@@@3@$0A@@std@@@std@@QEBA?AU_Default_sentinel@2@XZ
	?_Unchecked_end@?$_Tree@V?$_Tset_traits@VQString@@U?$less@VQString@@@std@@V?$allocator@VQString@@@3@$0A@@std@@@std@@QEBA?AU_Default_sentinel@2@XZ
	?_Unchecked_end@?$vector@PEAVQWidget@@V?$allocator@PEAVQWidget@@@std@@@std@@QEAAPEAPEAVQWidget@@XZ
	?_Unchecked_end@?$vector@PEBVRichParameter@@V?$allocator@PEBVRichParameter@@@std@@@std@@QEBAPEBQEBVRichParameter@@XZ
	?_Xlength@?$vector@PEAVQWidget@@V?$allocator@PEAVQWidget@@@std@@@std@@CAXXZ
	?_Xlength@?$vector@PEBVRichParameter@@V?$allocator@PEBVRichParameter@@@std@@@std@@CAXXZ
	?__empty_global_delete@@YAXPEAX@Z
	?__empty_global_delete@@YAXPEAX_K@Z
	?addCheckBox@RichParameterListDialog@@QEAAXAEBVQString@@_N@Z
	?addVerticalSpacer@RichParameterListDialog@@QEAAXXZ
	?addWidgetToGridLayout@BoolWidget@@UEAAXPEAVQGridLayout@@H@Z
	?addWidgetToGridLayout@ColorWidget@@UEAAXPEAVQGridLayout@@H@Z
	?addWidgetToGridLayout@ComboWidget@@UEAAXPEAVQGridLayout@@H@Z
	?addWidgetToGridLayout@DynamicFloatWidget@@UEAAXPEAVQGridLayout@@H@Z
	?addWidgetToGridLayout@IOFileWidget@@UEAAXPEAVQGridLayout@@H@Z
	?addWidgetToGridLayout@LineEditWidget@@UEAAXPEAVQGridLayout@@H@Z
	?addWidgetToGridLayout@Matrix44Widget@@UEAAXPEAVQGridLayout@@H@Z
	?addWidgetToGridLayout@PercentageWidget@@UEAAXPEAVQGridLayout@@H@Z
	?addWidgetToGridLayout@Point3Widget@@UEAAXPEAVQGridLayout@@H@Z
	?addWidgetToGridLayout@RichParameterWidget@@UEAAXPEAVQGridLayout@@H@Z
	?addWidgetToGridLayout@ShotWidget@@UEAAXPEAVQGridLayout@@H@Z
	?allocate@?$allocator@PEAVQWidget@@@std@@QEAAPEAPEAVQWidget@@_K@Z
	?allocate@?$allocator@PEBVRichParameter@@@std@@QEAAPEAPEBVRichParameter@@_K@Z
	?allocate@?$allocator@U?$_Tree_node@U?$pair@$$CBVQString@@PEAVQCheckBox@@@std@@PEAX@std@@@std@@QEAAPEAU?$_Tree_node@U?$pair@$$CBVQString@@PEAVQCheckBox@@@std@@PEAX@2@_K@Z
	?allocate@?$allocator@U?$_Tree_node@U?$pair@$$CBVQString@@PEAVRichParameterWidget@@@std@@PEAX@std@@@std@@QEAAPEAU?$_Tree_node@U?$pair@$$CBVQString@@PEAVRichParameterWidget@@@std@@PEAX@2@_K@Z
	?allocate@?$allocator@U?$_Tree_node@U?$pair@$$CBVQString@@V?$vector@PEBVRichParameter@@V?$allocator@PEBVRichParameter@@@std@@@std@@@std@@PEAX@std@@@std@@QEAAPEAU?$_Tree_node@U?$pair@$$CBVQString@@V?$vector@PEBVRichParameter@@V?$allocator@PEBVRichParameter@@@std@@@std@@@std@@PEAX@2@_K@Z
	?allocate@?$allocator@U?$_Tree_node@VQString@@PEAX@std@@@std@@QEAAPEAU?$_Tree_node@VQString@@PEAX@2@_K@Z
	?allocate@?$allocator@U_Container_proxy@std@@@std@@QEAAPEAU_Container_proxy@2@_K@Z
	?append@?$QList@VQString@@@@QEAAXAEBVQString@@@Z
	?askCameraDir@DirectionWidget@@QEAAXVQString@@@Z
	?askCameraPos@PositionWidget@@QEAAXVQString@@@Z
	?askMeshMatrix@Matrix44Widget@@QEAAXVQString@@@Z
	?askMeshShot@ShotWidget@@QEAAXVQString@@@Z
	?askRasterShot@ShotWidget@@QEAAXVQString@@@Z
	?askSurfacePos@PositionWidget@@QEAAXVQString@@@Z
	?askTrackballPos@PositionWidget@@QEAAXVQString@@@Z
	?askViewDir@DirectionWidget@@QEAAXVQString@@@Z
	?askViewPos@PositionWidget@@QEAAXVQString@@@Z
	?askViewerShot@ShotWidget@@QEAAXVQString@@@Z
	?at@?$map@VQString@@PEAVQCheckBox@@U?$less@VQString@@@std@@V?$allocator@U?$pair@$$CBVQString@@PEAVQCheckBox@@@std@@@4@@std@@QEAAAEAPEAVQCheckBox@@AEBVQString@@@Z
	?begin@?$QList@VQString@@@@QEAA?AViterator@1@XZ
	?begin@?$_Tree@V?$_Tmap_traits@VQString@@PEAVRichParameterWidget@@U?$less@VQString@@@std@@V?$allocator@U?$pair@$$CBVQString@@PEAVRichParameterWidget@@@std@@@4@$0A@@std@@@std@@QEAA?AV?$_Tree_iterator@V?$_Tree_val@U?$_Tree_simple_types@U?$pair@$$CBVQString@@PEAVRichParameterWidget@@@std@@@std@@@std@@@2@XZ
	?begin@?$_Tree@V?$_Tmap_traits@VQString@@PEAVRichParameterWidget@@U?$less@VQString@@@std@@V?$allocator@U?$pair@$$CBVQString@@PEAVRichParameterWidget@@@std@@@4@$0A@@std@@@std@@QEBA?AV?$_Tree_const_iterator@V?$_Tree_val@U?$_Tree_simple_types@U?$pair@$$CBVQString@@PEAVRichParameterWidget@@@std@@@std@@@std@@@2@XZ
	?begin@ConstMeshRangeIterator@MeshDocument@@QEAA?AV?$_List_const_iterator@V?$_List_val@U?$_List_simple_types@VMeshModel@@@std@@@std@@@std@@XZ
	?begin@RichParameterListFrame@@QEAA?AV?$_Tree_iterator@V?$_Tree_val@U?$_Tree_simple_types@U?$pair@$$CBVQString@@PEAVRichParameterWidget@@@std@@@std@@@std@@@std@@XZ
	?begin@RichParameterListFrame@@QEBA?AV?$_Tree_const_iterator@V?$_Tree_val@U?$_Tree_simple_types@U?$pair@$$CBVQString@@PEAVRichParameterWidget@@@std@@@std@@@std@@@std@@XZ
	?capacity@?$vector@PEAVQWidget@@V?$allocator@PEAVQWidget@@@std@@@std@@QEBA_KXZ
	?capacity@?$vector@PEBVRichParameter@@V?$allocator@PEBVRichParameter@@@std@@@std@@QEBA_KXZ
	?ceil@@YAMM@Z
	?changeChecker@LineEditWidget@@AEAAXXZ
	?clicked@ClickableLabel@@QEAAXXZ
	?createFrame@RichParameterListDialog@@QEAAXXZ
	?createWidgetFromRichParameter@RichParameterListFrame@@CAPEAVRichParameterWidget@@PEAV1@AEBVRichParameter@@AEBVValue@@@Z
	?currentRichParameterList@RichParameterListFrame@@QEBA?AVRichParameterList@@XZ
	?data@?$array@M$0BA@@std@@QEAAPEAMXZ
	?dealloc@?$QList@VQString@@@@AEAAXPEAUData@QListData@@@Z
	?deallocate@?$_Default_allocator_traits@V?$allocator@U?$_Tree_node@U?$pair@$$CBVQString@@PEAVQCheckBox@@@std@@PEAX@std@@@std@@@std@@SAXAEAV?$allocator@U?$_Tree_node@U?$pair@$$CBVQString@@PEAVQCheckBox@@@std@@PEAX@std@@@2@QEAU?$_Tree_node@U?$pair@$$CBVQString@@PEAVQCheckBox@@@std@@PEAX@2@_K@Z
	?deallocate@?$_Default_allocator_traits@V?$allocator@U?$_Tree_node@U?$pair@$$CBVQString@@PEAVRichParameterWidget@@@std@@PEAX@std@@@std@@@std@@SAXAEAV?$allocator@U?$_Tree_node@U?$pair@$$CBVQString@@PEAVRichParameterWidget@@@std@@PEAX@std@@@2@QEAU?$_Tree_node@U?$pair@$$CBVQString@@PEAVRichParameterWidget@@@std@@PEAX@2@_K@Z
	?deallocate@?$_Default_allocator_traits@V?$allocator@U?$_Tree_node@U?$pair@$$CBVQString@@V?$vector@PEBVRichParameter@@V?$allocator@PEBVRichParameter@@@std@@@std@@@std@@PEAX@std@@@std@@@std@@SAXAEAV?$allocator@U?$_Tree_node@U?$pair@$$CBVQString@@V?$vector@PEBVRichParameter@@V?$allocator@PEBVRichParameter@@@std@@@std@@@std@@PEAX@std@@@2@QEAU?$_Tree_node@U?$pair@$$CBVQString@@V?$vector@PEBVRichParameter@@V?$allocator@PEBVRichParameter@@@std@@@std@@@std@@PEAX@2@_K@Z
	?deallocate@?$_Default_allocator_traits@V?$allocator@U?$_Tree_node@VQString@@PEAX@std@@@std@@@std@@SAXAEAV?$allocator@U?$_Tree_node@VQString@@PEAX@std@@@2@QEAU?$_Tree_node@VQString@@PEAX@2@_K@Z
	?deallocate@?$_Default_allocator_traits@V?$allocator@U_Container_proxy@std@@@std@@@std@@SAXAEAV?$allocator@U_Container_proxy@std@@@2@QEAU_Container_proxy@2@_K@Z
	?deallocate@?$allocator@PEAVQWidget@@@std@@QEAAXQEAPEAVQWidget@@_K@Z
	?deallocate@?$allocator@PEBVRichParameter@@@std@@QEAAXQEAPEBVRichParameter@@_K@Z
	?deallocate@?$allocator@U?$_Tree_node@U?$pair@$$CBVQString@@PEAVQCheckBox@@@std@@PEAX@std@@@std@@QEAAXQEAU?$_Tree_node@U?$pair@$$CBVQString@@PEAVQCheckBox@@@std@@PEAX@2@_K@Z
	?deallocate@?$allocator@U?$_Tree_node@U?$pair@$$CBVQString@@PEAVRichParameterWidget@@@std@@PEAX@std@@@std@@QEAAXQEAU?$_Tree_node@U?$pair@$$CBVQString@@PEAVRichParameterWidget@@@std@@PEAX@2@_K@Z
	?deallocate@?$allocator@U?$_Tree_node@U?$pair@$$CBVQString@@V?$vector@PEBVRichParameter@@V?$allocator@PEBVRichParameter@@@std@@@std@@@std@@PEAX@std@@@std@@QEAAXQEAU?$_Tree_node@U?$pair@$$CBVQString@@V?$vector@PEBVRichParameter@@V?$allocator@PEBVRichParameter@@@std@@@std@@@std@@PEAX@2@_K@Z
	?deallocate@?$allocator@U?$_Tree_node@VQString@@PEAX@std@@@std@@QEAAXQEAU?$_Tree_node@VQString@@PEAX@2@_K@Z
	?deref@?$QBasicAtomicInteger@H@@QEAA_NXZ
	?deref@RefCount@QtPrivate@@QEAA_NXZ
	?detach@?$QList@VQString@@@@QEAAXXZ
	?detach_helper@?$QList@VQString@@@@AEAAXH@Z
	?detach_helper@?$QList@VQString@@@@AEAAXXZ
	?detach_helper_grow@?$QList@VQString@@@@AEAAPEAUNode@1@HH@Z
	?dialogParamChanged@ColorWidget@@QEAAXXZ
	?dialogParamChanged@ComboWidget@@QEAAXXZ
	?dialogParamChanged@DynamicFloatWidget@@QEAAXXZ
	?dialogParamChanged@IOFileWidget@@QEAAXXZ
	?dialogParamChanged@PercentageWidget@@QEAAXXZ
	?end@?$QList@VQString@@@@QEAA?AViterator@1@XZ
	?end@?$_Tree@V?$_Tmap_traits@VQString@@PEAVRichParameterWidget@@U?$less@VQString@@@std@@V?$allocator@U?$pair@$$CBVQString@@PEAVRichParameterWidget@@@std@@@4@$0A@@std@@@std@@QEAA?AV?$_Tree_iterator@V?$_Tree_val@U?$_Tree_simple_types@U?$pair@$$CBVQString@@PEAVRichParameterWidget@@@std@@@std@@@std@@@2@XZ
	?end@?$_Tree@V?$_Tmap_traits@VQString@@PEAVRichParameterWidget@@U?$less@VQString@@@std@@V?$allocator@U?$pair@$$CBVQString@@PEAVRichParameterWidget@@@std@@@4@$0A@@std@@@std@@QEBA?AV?$_Tree_const_iterator@V?$_Tree_val@U?$_Tree_simple_types@U?$pair@$$CBVQString@@PEAVRichParameterWidget@@@std@@@std@@@std@@@2@XZ
	?end@ConstMeshRangeIterator@MeshDocument@@QEAA?AV?$_List_const_iterator@V?$_List_val@U?$_List_simple_types@VMeshModel@@@std@@@std@@@std@@XZ
	?end@RichParameterListFrame@@QEAA?AV?$_Tree_iterator@V?$_Tree_val@U?$_Tree_simple_types@U?$pair@$$CBVQString@@PEAVRichParameterWidget@@@std@@@std@@@std@@@std@@XZ
	?end@RichParameterListFrame@@QEBA?AV?$_Tree_const_iterator@V?$_Tree_val@U?$_Tree_simple_types@U?$pair@$$CBVQString@@PEAVRichParameterWidget@@@std@@@std@@@std@@@std@@XZ
	?eof@?$_Narrow_char_traits@DH@std@@SAHXZ
	?eq_int_type@?$_Narrow_char_traits@DH@std@@SA_NAEBH0@Z
	?eventFilter@VerticalScrollArea@@UEAA_NPEAVQObject@@PEAVQEvent@@@Z
	?fabs@@YAMM@Z
	?fill@?$array@M$0BA@@std@@QEAAXAEBM@Z
	?floatToInt@DynamicFloatWidget@@AEAAHM@Z
	?get@?$_Ptr_base@VValue@@@std@@IEBAPEAVValue@@XZ
	?getAccept@RichParameterListDialog@@QEAAXXZ
	?getBool@Value@@UEBA_NXZ
	?getColor@Value@@UEBA?AVQColor@@XZ
	?getFloat@Value@@UEBAMXZ
	?getIndex@ComboWidget@@QEAAHXZ
	?getInt@Value@@UEBAHXZ
	?getMatrix44@Value@@UEBA?AV?$Matrix44@M@vcg@@XZ
	?getMatrix@Matrix44Widget@@QEAAXXZ
	?getPoint3@Value@@UEBA?AV?$Point3@M@vcg@@XZ
	?getPoint@DirectionWidget@@QEAAXXZ
	?getPoint@PositionWidget@@QEAAXXZ
	?getShot@ShotWidget@@QEAAXXZ
	?getShot@Value@@UEBA?AV?$Shot@MV?$Matrix44@M@vcg@@@vcg@@XZ
	?getString@Value@@UEBA?AVQString@@XZ
	?getValue@DynamicFloatWidget@@QEAAMXZ
	?getValue@Matrix44Widget@@QEAA?AV?$Matrix44@M@vcg@@XZ
	?getValue@Point3Widget@@QEAA?AV?$Point3@M@vcg@@XZ
	?getValue@ShotWidget@@QEAA?AV?$Shot@MV?$Matrix44@M@vcg@@@vcg@@XZ
	?getWidgetValue@BoolWidget@@UEBA?AV?$shared_ptr@VValue@@@std@@XZ
	?getWidgetValue@ColorWidget@@UEBA?AV?$shared_ptr@VValue@@@std@@XZ
	?getWidgetValue@DynamicFloatWidget@@UEBA?AV?$shared_ptr@VValue@@@std@@XZ
	?getWidgetValue@EnumWidget@@UEBA?AV?$shared_ptr@VValue@@@std@@XZ
	?getWidgetValue@FloatWidget@@UEBA?AV?$shared_ptr@VValue@@@std@@XZ
	?getWidgetValue@IOFileWidget@@UEBA?AV?$shared_ptr@VValue@@@std@@XZ
	?getWidgetValue@IntWidget@@UEBA?AV?$shared_ptr@VValue@@@std@@XZ
	?getWidgetValue@Matrix44Widget@@UEBA?AV?$shared_ptr@VValue@@@std@@XZ
	?getWidgetValue@MeshWidget@@UEBA?AV?$shared_ptr@VValue@@@std@@XZ
	?getWidgetValue@PercentageWidget@@UEBA?AV?$shared_ptr@VValue@@@std@@XZ
	?getWidgetValue@Point3Widget@@UEBA?AV?$shared_ptr@VValue@@@std@@XZ
	?getWidgetValue@ShotWidget@@UEBA?AV?$shared_ptr@VValue@@@std@@XZ
	?getWidgetValue@StringWidget@@UEBA?AV?$shared_ptr@VValue@@@std@@XZ
	?hasBeenChanged@RichParameterWidget@@QEBA_NXZ
	?id@MeshModel@@QEBAHXZ
	?init@ComboWidget@@IEAAXHVQStringList@@@Z
	?initParams@RichParameterListFrame@@QEAAXAEBVRichParameterList@@0PEAVQWidget@@@Z
	?intToFloat@DynamicFloatWidget@@AEAAMH@Z
	?invalidateMatrix@Matrix44Widget@@QEAAXAEBVQString@@@Z
	?isBool@Value@@UEBA_NXZ
	?isCheckBoxChecked@RichParameterListDialog@@QEAA_NAEBVQString@@@Z
	?isColor@Value@@UEBA_NXZ
	?isFloat@Value@@UEBA_NXZ
	?isInt@Value@@UEBA_NXZ
	?isMatrix44@Value@@UEBA_NXZ
	?isPoint3@Value@@UEBA_NXZ
	?isShared@RefCount@QtPrivate@@QEBA_NXZ
	?isShot@Value@@UEBA_NXZ
	?isString@Value@@UEBA_NXZ
	?join@?$QListSpecialMethods@VQString@@@@QEBA?AVQString@@AEBV2@@Z
	?label@MeshModel@@QEBA?AVQString@@XZ
	?length@?$_Narrow_char_traits@DH@std@@SA_KQEBD@Z
	?lineEditChanged@LineEditWidget@@QEAAXXZ
	?load@?$_Atomic_storage@H$03@std@@QEBAHW4memory_order@2@@Z
	?loadFrameContent@RichParameterListFrame@@AEAAXAEBVRichParameterList@@0@Z
	?loadRelaxed@?$QBasicAtomicInteger@H@@QEBAHXZ
	?log10@@YAMM@Z
	?max@?$numeric_limits@_J@std@@SA_JXZ
	?max_size@?$_Default_allocator_traits@V?$allocator@PEAVQWidget@@@std@@@std@@SA_KAEBV?$allocator@PEAVQWidget@@@2@@Z
	?max_size@?$_Default_allocator_traits@V?$allocator@PEBVRichParameter@@@std@@@std@@SA_KAEBV?$allocator@PEBVRichParameter@@@2@@Z
	?max_size@?$_Default_allocator_traits@V?$allocator@U?$_Tree_node@U?$pair@$$CBVQString@@PEAVQCheckBox@@@std@@PEAX@std@@@std@@@std@@SA_KAEBV?$allocator@U?$_Tree_node@U?$pair@$$CBVQString@@PEAVQCheckBox@@@std@@PEAX@std@@@2@@Z
	?max_size@?$_Default_allocator_traits@V?$allocator@U?$_Tree_node@U?$pair@$$CBVQString@@PEAVRichParameterWidget@@@std@@PEAX@std@@@std@@@std@@SA_KAEBV?$allocator@U?$_Tree_node@U?$pair@$$CBVQString@@PEAVRichParameterWidget@@@std@@PEAX@std@@@2@@Z
	?max_size@?$_Default_allocator_traits@V?$allocator@U?$_Tree_node@U?$pair@$$CBVQString@@V?$vector@PEBVRichParameter@@V?$allocator@PEBVRichParameter@@@std@@@std@@@std@@PEAX@std@@@std@@@std@@SA_KAEBV?$allocator@U?$_Tree_node@U?$pair@$$CBVQString@@V?$vector@PEBVRichParameter@@V?$allocator@PEBVRichParameter@@@std@@@std@@@std@@PEAX@std@@@2@@Z
	?max_size@?$_Default_allocator_traits@V?$allocator@U?$_Tree_node@VQString@@PEAX@std@@@std@@@std@@SA_KAEBV?$allocator@U?$_Tree_node@VQString@@PEAX@std@@@2@@Z
	?max_size@?$_Tree@V?$_Tmap_traits@VQString@@PEAVQCheckBox@@U?$less@VQString@@@std@@V?$allocator@U?$pair@$$CBVQString@@PEAVQCheckBox@@@std@@@4@$0A@@std@@@std@@QEBA_KXZ
	?max_size@?$_Tree@V?$_Tmap_traits@VQString@@PEAVRichParameterWidget@@U?$less@VQString@@@std@@V?$allocator@U?$pair@$$CBVQString@@PEAVRichParameterWidget@@@std@@@4@$0A@@std@@@std@@QEBA_KXZ
	?max_size@?$_Tree@V?$_Tmap_traits@VQString@@V?$vector@PEBVRichParameter@@V?$allocator@PEBVRichParameter@@@std@@@std@@U?$less@VQString@@@3@V?$allocator@U?$pair@$$CBVQString@@V?$vector@PEBVRichParameter@@V?$allocator@PEBVRichParameter@@@std@@@std@@@std@@@3@$0A@@std@@@std@@QEBA_KXZ
	?max_size@?$_Tree@V?$_Tset_traits@VQString@@U?$less@VQString@@@std@@V?$allocator@VQString@@@3@$0A@@std@@@std@@QEBA_KXZ
	?max_size@?$vector@PEAVQWidget@@V?$allocator@PEAVQWidget@@@std@@@std@@QEBA_KXZ
	?max_size@?$vector@PEBVRichParameter@@V?$allocator@PEBVRichParameter@@@std@@@std@@QEBA_KXZ
	?metaObject@ClickableLabel@@UEBAPEBUQMetaObject@@XZ
	?metaObject@ColorWidget@@UEBAPEBUQMetaObject@@XZ
	?metaObject@ComboWidget@@UEBAPEBUQMetaObject@@XZ
	?metaObject@DirectionWidget@@UEBAPEBUQMetaObject@@XZ
	?metaObject@DynamicFloatWidget@@UEBAPEBUQMetaObject@@XZ
	?metaObject@IOFileWidget@@UEBAPEBUQMetaObject@@XZ
	?metaObject@LineEditWidget@@UEBAPEBUQMetaObject@@XZ
	?metaObject@Matrix44Widget@@UEBAPEBUQMetaObject@@XZ
	?metaObject@OpenFileWidget@@UEBAPEBUQMetaObject@@XZ
	?metaObject@PercentageWidget@@UEBAPEBUQMetaObject@@XZ
	?metaObject@Point3Widget@@UEBAPEBUQMetaObject@@XZ
	?metaObject@PositionWidget@@UEBAPEBUQMetaObject@@XZ
	?metaObject@RichParameterListDialog@@UEBAPEBUQMetaObject@@XZ
	?metaObject@RichParameterListFrame@@UEBAPEBUQMetaObject@@XZ
	?metaObject@RichParameterWidget@@UEBAPEBUQMetaObject@@XZ
	?metaObject@SaveFileWidget@@UEBAPEBUQMetaObject@@XZ
	?metaObject@ShotWidget@@UEBAPEBUQMetaObject@@XZ
	?metaObject@VerticalScrollArea@@UEBAPEBUQMetaObject@@XZ
	?mousePressEvent@ClickableLabel@@MEAAXPEAVQMouseEvent@@@Z
	?node_construct@?$QList@VQString@@@@AEAAXPEAUNode@1@AEBVQString@@@Z
	?node_copy@?$QList@VQString@@@@AEAAXPEAUNode@1@00@Z
	?node_destruct@?$QList@VQString@@@@AEAAXPEAUNode@1@0@Z
	?node_destruct@?$QList@VQString@@@@AEAAXPEAUNode@1@@Z
	?on_absSB_valueChanged@PercentageWidget@@QEAAXN@Z
	?on_percSB_valueChanged@PercentageWidget@@QEAAXN@Z
	?parameterChanged@RichParameterListFrame@@QEAAXXZ
	?parameterChanged@RichParameterWidget@@QEAAXXZ
	?pasteMatrix@Matrix44Widget@@QEAAXXZ
	?pickColor@ColorWidget@@AEAAXXZ
	?push_back@?$QList@VQString@@@@QEAAXAEBVQString@@@Z
	?push_back@?$vector@PEAVQWidget@@V?$allocator@PEAVQWidget@@@std@@@std@@QEAAX$$QEAPEAVQWidget@@@Z
	?push_back@?$vector@PEBVRichParameter@@V?$allocator@PEBVRichParameter@@@std@@@std@@QEAAX$$QEAPEBVRichParameter@@@Z
	?qt_metacall@ClickableLabel@@UEAAHW4Call@QMetaObject@@HPEAPEAX@Z
	?qt_metacall@ColorWidget@@UEAAHW4Call@QMetaObject@@HPEAPEAX@Z
	?qt_metacall@ComboWidget@@UEAAHW4Call@QMetaObject@@HPEAPEAX@Z
	?qt_metacall@DirectionWidget@@UEAAHW4Call@QMetaObject@@HPEAPEAX@Z
	?qt_metacall@DynamicFloatWidget@@UEAAHW4Call@QMetaObject@@HPEAPEAX@Z
	?qt_metacall@IOFileWidget@@UEAAHW4Call@QMetaObject@@HPEAPEAX@Z
	?qt_metacall@LineEditWidget@@UEAAHW4Call@QMetaObject@@HPEAPEAX@Z
	?qt_metacall@Matrix44Widget@@UEAAHW4Call@QMetaObject@@HPEAPEAX@Z
	?qt_metacall@OpenFileWidget@@UEAAHW4Call@QMetaObject@@HPEAPEAX@Z
	?qt_metacall@PercentageWidget@@UEAAHW4Call@QMetaObject@@HPEAPEAX@Z
	?qt_metacall@Point3Widget@@UEAAHW4Call@QMetaObject@@HPEAPEAX@Z
	?qt_metacall@PositionWidget@@UEAAHW4Call@QMetaObject@@HPEAPEAX@Z
	?qt_metacall@RichParameterListDialog@@UEAAHW4Call@QMetaObject@@HPEAPEAX@Z
	?qt_metacall@RichParameterListFrame@@UEAAHW4Call@QMetaObject@@HPEAPEAX@Z
	?qt_metacall@RichParameterWidget@@UEAAHW4Call@QMetaObject@@HPEAPEAX@Z
	?qt_metacall@SaveFileWidget@@UEAAHW4Call@QMetaObject@@HPEAPEAX@Z
	?qt_metacall@ShotWidget@@UEAAHW4Call@QMetaObject@@HPEAPEAX@Z
	?qt_metacall@VerticalScrollArea@@UEAAHW4Call@QMetaObject@@HPEAPEAX@Z
	?qt_metacast@ClickableLabel@@UEAAPEAXPEBD@Z
	?qt_metacast@ColorWidget@@UEAAPEAXPEBD@Z
	?qt_metacast@ComboWidget@@UEAAPEAXPEBD@Z
	?qt_metacast@DirectionWidget@@UEAAPEAXPEBD@Z
	?qt_metacast@DynamicFloatWidget@@UEAAPEAXPEBD@Z
	?qt_metacast@IOFileWidget@@UEAAPEAXPEBD@Z
	?qt_metacast@LineEditWidget@@UEAAPEAXPEBD@Z
	?qt_metacast@Matrix44Widget@@UEAAPEAXPEBD@Z
	?qt_metacast@OpenFileWidget@@UEAAPEAXPEBD@Z
	?qt_metacast@PercentageWidget@@UEAAPEAXPEBD@Z
	?qt_metacast@Point3Widget@@UEAAPEAXPEBD@Z
	?qt_metacast@PositionWidget@@UEAAPEAXPEBD@Z
	?qt_metacast@RichParameterListDialog@@UEAAPEAXPEBD@Z
	?qt_metacast@RichParameterListFrame@@UEAAPEAXPEBD@Z
	?qt_metacast@RichParameterWidget@@UEAAPEAXPEBD@Z
	?qt_metacast@SaveFileWidget@@UEAAPEAXPEBD@Z
	?qt_metacast@ShotWidget@@UEAAPEAXPEBD@Z
	?qt_metacast@VerticalScrollArea@@UEAAPEAXPEBD@Z
	?qt_static_metacall@ClickableLabel@@CAXPEAVQObject@@W4Call@QMetaObject@@HPEAPEAX@Z
	?qt_static_metacall@ColorWidget@@CAXPEAVQObject@@W4Call@QMetaObject@@HPEAPEAX@Z
	?qt_static_metacall@ComboWidget@@CAXPEAVQObject@@W4Call@QMetaObject@@HPEAPEAX@Z
	?qt_static_metacall@DirectionWidget@@CAXPEAVQObject@@W4Call@QMetaObject@@HPEAPEAX@Z
	?qt_static_metacall@DynamicFloatWidget@@CAXPEAVQObject@@W4Call@QMetaObject@@HPEAPEAX@Z
	?qt_static_metacall@IOFileWidget@@CAXPEAVQObject@@W4Call@QMetaObject@@HPEAPEAX@Z
	?qt_static_metacall@LineEditWidget@@CAXPEAVQObject@@W4Call@QMetaObject@@HPEAPEAX@Z
	?qt_static_metacall@Matrix44Widget@@CAXPEAVQObject@@W4Call@QMetaObject@@HPEAPEAX@Z
	?qt_static_metacall@OpenFileWidget@@CAXPEAVQObject@@W4Call@QMetaObject@@HPEAPEAX@Z
	?qt_static_metacall@PercentageWidget@@CAXPEAVQObject@@W4Call@QMetaObject@@HPEAPEAX@Z
	?qt_static_metacall@Point3Widget@@CAXPEAVQObject@@W4Call@QMetaObject@@HPEAPEAX@Z
	?qt_static_metacall@PositionWidget@@CAXPEAVQObject@@W4Call@QMetaObject@@HPEAPEAX@Z
	?qt_static_metacall@RichParameterListDialog@@CAXPEAVQObject@@W4Call@QMetaObject@@HPEAPEAX@Z
	?qt_static_metacall@RichParameterListFrame@@CAXPEAVQObject@@W4Call@QMetaObject@@HPEAPEAX@Z
	?qt_static_metacall@RichParameterWidget@@CAXPEAVQObject@@W4Call@QMetaObject@@HPEAPEAX@Z
	?qt_static_metacall@SaveFileWidget@@CAXPEAVQObject@@W4Call@QMetaObject@@HPEAPEAX@Z
	?qt_static_metacall@ShotWidget@@CAXPEAVQObject@@W4Call@QMetaObject@@HPEAPEAX@Z
	?qt_static_metacall@VerticalScrollArea@@CAXPEAVQObject@@W4Call@QMetaObject@@HPEAPEAX@Z
	?ref@?$QBasicAtomicInteger@H@@QEAA_NXZ
	?ref@RefCount@QtPrivate@@QEAA_NXZ
	?resetValues@RichParameterListDialog@@QEAAXXZ
	?resetValues@RichParameterListFrame@@QEAAXXZ
	?resetWidgetToDefaultValue@RichParameterWidget@@QEAAXXZ
	?selectFile@OpenFileWidget@@MEAAXXZ
	?selectFile@SaveFileWidget@@MEAAXXZ
	?self@?$QListSpecialMethods@VQString@@@@AEBAPEBVQStringList@@XZ
	?setHelpVisible@RichParameterWidget@@QEAAX_N@Z
	?setIndex@ComboWidget@@QEAAXH@Z
	?setParameterChanged@RichParameterWidget@@IEAAXXZ
	?setShotValue@Point3Widget@@QEAAXVQString@@V?$Shot@MV?$Matrix44@M@vcg@@@vcg@@@Z
	?setShotValue@ShotWidget@@QEAAXVQString@@V?$Shot@MV?$Matrix44@M@vcg@@@vcg@@@Z
	?setValue@DynamicFloatWidget@@QEAAXH@Z
	?setValue@DynamicFloatWidget@@QEAAXM@Z
	?setValue@Matrix44Widget@@QEAAXVQString@@V?$Matrix44@M@vcg@@@Z
	?setValue@PercentageWidget@@AEAAXMMM@Z
	?setValue@Point3Widget@@QEAAXVQString@@V?$Point3@M@vcg@@@Z
	?setValueFromTextBox@DynamicFloatWidget@@QEAAXXZ
	?setVisible@RichParameterWidget@@UEAAX_N@Z
	?setWidgetValue@BoolWidget@@UEAAXAEBVValue@@@Z
	?setWidgetValue@ColorWidget@@UEAAXAEBVValue@@@Z
	?setWidgetValue@DynamicFloatWidget@@UEAAXAEBVValue@@@Z
	?setWidgetValue@EnumWidget@@UEAAXAEBVValue@@@Z
	?setWidgetValue@FloatWidget@@UEAAXAEBVValue@@@Z
	?setWidgetValue@IOFileWidget@@UEAAXAEBVValue@@@Z
	?setWidgetValue@IntWidget@@UEAAXAEBVValue@@@Z
	?setWidgetValue@Matrix44Widget@@UEAAXAEBVValue@@@Z
	?setWidgetValue@MeshWidget@@UEAAXAEBVValue@@@Z
	?setWidgetValue@PercentageWidget@@UEAAXAEBVValue@@@Z
	?setWidgetValue@Point3Widget@@UEAAXAEBVValue@@@Z
	?setWidgetValue@ShotWidget@@UEAAXAEBVValue@@@Z
	?setWidgetValue@StringWidget@@UEAAXAEBVValue@@@Z
	?shortName@MeshModel@@QEBA?AVQString@@XZ
	?size@?$QList@VQString@@@@QEBAHXZ
	?size@?$_Tree@V?$_Tmap_traits@VQString@@PEAVRichParameterWidget@@U?$less@VQString@@@std@@V?$allocator@U?$pair@$$CBVQString@@PEAVRichParameterWidget@@@std@@@4@$0A@@std@@@std@@QEBA_KXZ
	?size@?$_Tree@V?$_Tset_traits@VQString@@U?$less@VQString@@@std@@V?$allocator@VQString@@@3@$0A@@std@@@std@@QEBA_KXZ
	?size@RichParameterListFrame@@QEBAIXZ
	?t@Node@?$QList@VQString@@@@QEAAAEAVQString@@XZ
	?toggleAdvancedParameters@RichParameterListFrame@@QEAAXXZ
	?toggleHelp@RichParameterListDialog@@QEAAXXZ
	?toggleHelp@RichParameterListFrame@@QEAAXXZ
	?tr@OpenFileWidget@@SA?AVQString@@PEBD0H@Z
	?tr@SaveFileWidget@@SA?AVQString@@PEBD0H@Z
	?tr@ShotWidget@@SA?AVQString@@PEBD0H@Z
	?updateColorInfo@ColorWidget@@AEAAXAEBVColorValue@@@Z
	?updateFileName@IOFileWidget@@IEAAXAEBVStringValue@@@Z
	?what@exception@std@@UEBAPEBDXZ
	?writeValuesOnParameterList@RichParameterListFrame@@QEAAXAEAVRichParameterList@@@Z
	fabsf
