EXPORTS 
	?$TSS0@?1??Identity@?$Matrix44@M@vcg@@SAAEBV23@XZ@4HA 	 DATA
	?$TSS0@?1??cPD1@?$EmptyCore@UPUsedTypes@vcg@@@vertex@vcg@@QEBA?AV?$Point3@M@4@XZ@4HA 	 DATA
	?$TSS0@?1??cPD1@?$EmptyCore@V?$FaceTypeHolder@UPUsedTypes@vcg@@@vcg@@@face@vcg@@QEBAAEBV?$Point3@_N@4@XZ@4HA 	 DATA
	?$TSS0@?1??cPD2@?$EmptyCore@UPUsedTypes@vcg@@@vertex@vcg@@QEBA?AV?$Point3@M@4@XZ@4HA 	 DATA
	?$TSS0@?1??cPD2@?$EmptyCore@V?$FaceTypeHolder@UPUsedTypes@vcg@@@vcg@@@face@vcg@@QEBAAEBV?$Point3@_N@4@XZ@4HA 	 DATA
	?$TSS0@?1??cT@?$EmptyCore@UPUsedTypes@vcg@@@vertex@vcg@@QEBA?AV?$TexCoord2@M$00@4@XZ@4HA 	 DATA
	?$TSS0@?1??primitiveName@DebugInfo@GLMeshAttributesInfo@vcg@@SAPEBD_K@Z@4HA 	 DATA
	??_R0?AU?$BaseMeshTypeHolder@UPUsedTypes@vcg@@@tri@vcg@@@8 	 DATA
	??_R0?AU?$BaseMeshTypeHolder@VCUsedTypesO@@@tri@vcg@@@8 	 DATA
	??_R0?AU?$Der@U?$BaseMeshTypeHolder@UPUsedTypes@vcg@@@tri@vcg@@V?$vector@VPVertex@vcg@@V?$allocator@VPVertex@vcg@@@std@@@std@@@tri@vcg@@@8 	 DATA
	??_R0?AU?$Der@U?$BaseMeshTypeHolder@VCUsedTypesO@@@tri@vcg@@V?$vector_ocf@VCVertexO@@@vertex@3@@tri@vcg@@@8 	 DATA
	??_R0?AU?$Der@V?$MArity1@U?$BaseMeshTypeHolder@UPUsedTypes@vcg@@@tri@vcg@@V?$vector@VPVertex@vcg@@V?$allocator@VPVertex@vcg@@@std@@@std@@UDer@23@@vcg@@V?$vector@VPEdge@vcg@@V?$allocator@VPEdge@vcg@@@std@@@std@@@tri@vcg@@@8 	 DATA
	??_R0?AU?$Der@V?$MArity1@U?$BaseMeshTypeHolder@VCUsedTypesO@@@tri@vcg@@V?$vector_ocf@VCVertexO@@@vertex@3@UDer@23@@vcg@@V?$vector_ocf@VCFaceO@@@face@2@@tri@vcg@@@8 	 DATA
	??_R0?AU?$Der@V?$MArity2@U?$BaseMeshTypeHolder@UPUsedTypes@vcg@@@tri@vcg@@V?$vector@VPVertex@vcg@@V?$allocator@VPVertex@vcg@@@std@@@std@@UDer@23@V?$vector@VPEdge@vcg@@V?$allocator@VPEdge@vcg@@@std@@@5@U623@@vcg@@V?$vector@VPFace@vcg@@V?$allocator@VPFace@vcg@@@std@@@std@@@tri@vcg@@@8 	 DATA
	??_R0?AU?$Der@V?$MArity2@U?$BaseMeshTypeHolder@VCUsedTypesO@@@tri@vcg@@V?$vector_ocf@VCVertexO@@@vertex@3@UDer@23@V?$vector_ocf@VCFaceO@@@face@3@U623@@vcg@@UDummyContainer@tri@2@@tri@vcg@@@8 	 DATA
	??_R0?AU?$Der@V?$MArity3@U?$BaseMeshTypeHolder@UPUsedTypes@vcg@@@tri@vcg@@V?$vector@VPVertex@vcg@@V?$allocator@VPVertex@vcg@@@std@@@std@@UDer@23@V?$vector@VPEdge@vcg@@V?$allocator@VPEdge@vcg@@@std@@@5@U623@V?$vector@VPFace@vcg@@V?$allocator@VPFace@vcg@@@std@@@5@U623@@vcg@@UDummyContainer@tri@2@@tri@vcg@@@8 	 DATA
	??_R0?AU?$Der@V?$MArity3@U?$BaseMeshTypeHolder@VCUsedTypesO@@@tri@vcg@@V?$vector_ocf@VCVertexO@@@vertex@3@UDer@23@V?$vector_ocf@VCFaceO@@@face@3@U623@UDummyContainer@23@U623@@vcg@@UDummyContainer@tri@2@@tri@vcg@@@8 	 DATA
	??_R0?AU?$Der@V?$MArity4@U?$BaseMeshTypeHolder@UPUsedTypes@vcg@@@tri@vcg@@V?$vector@VPVertex@vcg@@V?$allocator@VPVertex@vcg@@@std@@@std@@UDer@23@V?$vector@VPEdge@vcg@@V?$allocator@VPEdge@vcg@@@std@@@5@U623@V?$vector@VPFace@vcg@@V?$allocator@VPFace@vcg@@@std@@@5@U623@UDummyContainer@23@U623@@vcg@@UDummyContainer@tri@2@@tri@vcg@@@8 	 DATA
	??_R0?AU?$Der@V?$MArity4@U?$BaseMeshTypeHolder@VCUsedTypesO@@@tri@vcg@@V?$vector_ocf@VCVertexO@@@vertex@3@UDer@23@V?$vector_ocf@VCFaceO@@@face@3@U623@UDummyContainer@23@U623@U923@U623@@vcg@@UDummyContainer@tri@2@@tri@vcg@@@8 	 DATA
	??_R0?AU?$MeshTypeHolder@U?$BaseMeshTypeHolder@UPUsedTypes@vcg@@@tri@vcg@@V?$vector@VPVertex@vcg@@V?$allocator@VPVertex@vcg@@@std@@@std@@UAVertexType@AllTypes@3@@tri@vcg@@@8 	 DATA
	??_R0?AU?$MeshTypeHolder@U?$BaseMeshTypeHolder@VCUsedTypesO@@@tri@vcg@@V?$vector_ocf@VCVertexO@@@vertex@3@UAVertexType@AllTypes@3@@tri@vcg@@@8 	 DATA
	??_R0?AU?$MeshTypeHolder@V?$MArity1@U?$BaseMeshTypeHolder@UPUsedTypes@vcg@@@tri@vcg@@V?$vector@VPVertex@vcg@@V?$allocator@VPVertex@vcg@@@std@@@std@@UDer@23@@vcg@@V?$vector@VPEdge@vcg@@V?$allocator@VPEdge@vcg@@@std@@@std@@UAEdgeType@AllTypes@2@@tri@vcg@@@8 	 DATA
	??_R0?AU?$MeshTypeHolder@V?$MArity1@U?$BaseMeshTypeHolder@VCUsedTypesO@@@tri@vcg@@V?$vector_ocf@VCVertexO@@@vertex@3@UDer@23@@vcg@@V?$vector_ocf@VCFaceO@@@face@2@UAFaceType@AllTypes@2@@tri@vcg@@@8 	 DATA
	??_R0?AU?$MeshTypeHolder@V?$MArity2@U?$BaseMeshTypeHolder@UPUsedTypes@vcg@@@tri@vcg@@V?$vector@VPVertex@vcg@@V?$allocator@VPVertex@vcg@@@std@@@std@@UDer@23@V?$vector@VPEdge@vcg@@V?$allocator@VPEdge@vcg@@@std@@@5@U623@@vcg@@V?$vector@VPFace@vcg@@V?$allocator@VPFace@vcg@@@std@@@std@@UAFaceType@AllTypes@2@@tri@vcg@@@8 	 DATA
	??_R0?AU?$MeshTypeHolder@V?$MArity2@U?$BaseMeshTypeHolder@VCUsedTypesO@@@tri@vcg@@V?$vector_ocf@VCVertexO@@@vertex@3@UDer@23@V?$vector_ocf@VCFaceO@@@face@3@U623@@vcg@@UDummyContainer@tri@2@H@tri@vcg@@@8 	 DATA
	??_R0?AU?$MeshTypeHolder@V?$MArity3@U?$BaseMeshTypeHolder@UPUsedTypes@vcg@@@tri@vcg@@V?$vector@VPVertex@vcg@@V?$allocator@VPVertex@vcg@@@std@@@std@@UDer@23@V?$vector@VPEdge@vcg@@V?$allocator@VPEdge@vcg@@@std@@@5@U623@V?$vector@VPFace@vcg@@V?$allocator@VPFace@vcg@@@std@@@5@U623@@vcg@@UDummyContainer@tri@2@H@tri@vcg@@@8 	 DATA
	??_R0?AU?$MeshTypeHolder@V?$MArity3@U?$BaseMeshTypeHolder@VCUsedTypesO@@@tri@vcg@@V?$vector_ocf@VCVertexO@@@vertex@3@UDer@23@V?$vector_ocf@VCFaceO@@@face@3@U623@UDummyContainer@23@U623@@vcg@@UDummyContainer@tri@2@H@tri@vcg@@@8 	 DATA
	??_R0?AU?$MeshTypeHolder@V?$MArity4@U?$BaseMeshTypeHolder@UPUsedTypes@vcg@@@tri@vcg@@V?$vector@VPVertex@vcg@@V?$allocator@VPVertex@vcg@@@std@@@std@@UDer@23@V?$vector@VPEdge@vcg@@V?$allocator@VPEdge@vcg@@@std@@@5@U623@V?$vector@VPFace@vcg@@V?$allocator@VPFace@vcg@@@std@@@5@U623@UDummyContainer@23@U623@@vcg@@UDummyContainer@tri@2@H@tri@vcg@@@8 	 DATA
	??_R0?AU?$MeshTypeHolder@V?$MArity4@U?$BaseMeshTypeHolder@VCUsedTypesO@@@tri@vcg@@V?$vector_ocf@VCVertexO@@@vertex@3@UDer@23@V?$vector_ocf@VCFaceO@@@face@3@U623@UDummyContainer@23@U623@U923@U623@@vcg@@UDummyContainer@tri@2@H@tri@vcg@@@8 	 DATA
	??_R0?AU?$QListSpecialMethods@VFilterNameParameterValuesPair@@@@@8 	 DATA
	??_R0?AU?$QPair@VQString@@VRichParameterList@@@@@8 	 DATA
	??_R0?AUException@GLMeshAttributesInfo@vcg@@@8 	 DATA
	??_R0?AUMLPerViewGLOptions@@@8 	 DATA
	??_R0?AURenderingModalityGLOptions@vcg@@@8 	 DATA
	??_R0?AV?$MArity1@U?$BaseMeshTypeHolder@UPUsedTypes@vcg@@@tri@vcg@@V?$vector@VPVertex@vcg@@V?$allocator@VPVertex@vcg@@@std@@@std@@UDer@23@@vcg@@@8 	 DATA
	??_R0?AV?$MArity1@U?$BaseMeshTypeHolder@VCUsedTypesO@@@tri@vcg@@V?$vector_ocf@VCVertexO@@@vertex@3@UDer@23@@vcg@@@8 	 DATA
	??_R0?AV?$MArity2@U?$BaseMeshTypeHolder@UPUsedTypes@vcg@@@tri@vcg@@V?$vector@VPVertex@vcg@@V?$allocator@VPVertex@vcg@@@std@@@std@@UDer@23@V?$vector@VPEdge@vcg@@V?$allocator@VPEdge@vcg@@@std@@@5@U623@@vcg@@@8 	 DATA
	??_R0?AV?$MArity2@U?$BaseMeshTypeHolder@VCUsedTypesO@@@tri@vcg@@V?$vector_ocf@VCVertexO@@@vertex@3@UDer@23@V?$vector_ocf@VCFaceO@@@face@3@U623@@vcg@@@8 	 DATA
	??_R0?AV?$MArity3@U?$BaseMeshTypeHolder@UPUsedTypes@vcg@@@tri@vcg@@V?$vector@VPVertex@vcg@@V?$allocator@VPVertex@vcg@@@std@@@std@@UDer@23@V?$vector@VPEdge@vcg@@V?$allocator@VPEdge@vcg@@@std@@@5@U623@V?$vector@VPFace@vcg@@V?$allocator@VPFace@vcg@@@std@@@5@U623@@vcg@@@8 	 DATA
	??_R0?AV?$MArity3@U?$BaseMeshTypeHolder@VCUsedTypesO@@@tri@vcg@@V?$vector_ocf@VCVertexO@@@vertex@3@UDer@23@V?$vector_ocf@VCFaceO@@@face@3@U623@UDummyContainer@23@U623@@vcg@@@8 	 DATA
	??_R0?AV?$MArity4@U?$BaseMeshTypeHolder@UPUsedTypes@vcg@@@tri@vcg@@V?$vector@VPVertex@vcg@@V?$allocator@VPVertex@vcg@@@std@@@std@@UDer@23@V?$vector@VPEdge@vcg@@V?$allocator@VPEdge@vcg@@@std@@@5@U623@V?$vector@VPFace@vcg@@V?$allocator@VPFace@vcg@@@std@@@5@U623@UDummyContainer@23@U623@@vcg@@@8 	 DATA
	??_R0?AV?$MArity4@U?$BaseMeshTypeHolder@VCUsedTypesO@@@tri@vcg@@V?$vector_ocf@VCVertexO@@@vertex@3@UDer@23@V?$vector_ocf@VCFaceO@@@face@3@U623@UDummyContainer@23@U623@U923@U623@@vcg@@@8 	 DATA
	??_R0?AV?$MArity5@U?$BaseMeshTypeHolder@UPUsedTypes@vcg@@@tri@vcg@@V?$vector@VPVertex@vcg@@V?$allocator@VPVertex@vcg@@@std@@@std@@UDer@23@V?$vector@VPEdge@vcg@@V?$allocator@VPEdge@vcg@@@std@@@5@U623@V?$vector@VPFace@vcg@@V?$allocator@VPFace@vcg@@@std@@@5@U623@UDummyContainer@23@U623@U923@U623@@vcg@@@8 	 DATA
	??_R0?AV?$MArity5@U?$BaseMeshTypeHolder@VCUsedTypesO@@@tri@vcg@@V?$vector_ocf@VCVertexO@@@vertex@3@UDer@23@V?$vector_ocf@VCFaceO@@@face@3@U623@UDummyContainer@23@U623@U923@U623@U923@U623@@vcg@@@8 	 DATA
	??_R0?AV?$Point3@M@vcg@@@8 	 DATA
	??_R0?AV?$QList@VFilterNameParameterValuesPair@@@@@8 	 DATA
	??_R0?AV?$SimpleTempData@V?$vector_ocf@VCFaceO@@@face@vcg@@M@vcg@@@8 	 DATA
	??_R0?AV?$SimpleTempData@V?$vector_ocf@VCFaceO@@@face@vcg@@V?$Point3@M@3@@vcg@@@8 	 DATA
	??_R0?AV?$SimpleTempData@V?$vector_ocf@VCVertexO@@@vertex@vcg@@M@vcg@@@8 	 DATA
	??_R0?AV?$SimpleTempData@V?$vector_ocf@VCVertexO@@@vertex@vcg@@V?$Point3@M@3@@vcg@@@8 	 DATA
	??_R0?AV?$TriMesh@V?$vector@VPVertex@vcg@@V?$allocator@VPVertex@vcg@@@std@@@std@@V?$vector@VPEdge@vcg@@V?$allocator@VPEdge@vcg@@@std@@@2@V?$vector@VPFace@vcg@@V?$allocator@VPFace@vcg@@@std@@@2@UDummyContainer@tri@vcg@@U567@@tri@vcg@@@8 	 DATA
	??_R0?AV?$TriMesh@V?$vector_ocf@VCVertexO@@@vertex@vcg@@V?$vector_ocf@VCFaceO@@@face@3@UDummyContainer@tri@3@U673@U673@@tri@vcg@@@8 	 DATA
	??_R0?AV?$_Iosb@H@std@@@8 	 DATA
	??_R0?AV?$basic_ios@DU?$char_traits@D@std@@@std@@@8 	 DATA
	??_R0?AV?$basic_iostream@DU?$char_traits@D@std@@@std@@@8 	 DATA
	??_R0?AV?$basic_istream@DU?$char_traits@D@std@@@std@@@8 	 DATA
	??_R0?AV?$basic_ostream@DU?$char_traits@D@std@@@std@@@8 	 DATA
	??_R0?AV?$basic_ostringstream@DU?$char_traits@D@std@@V?$allocator@D@2@@std@@@8 	 DATA
	??_R0?AV?$basic_streambuf@DU?$char_traits@D@std@@@std@@@8 	 DATA
	??_R0?AV?$basic_stringbuf@DU?$char_traits@D@std@@V?$allocator@D@2@@std@@@8 	 DATA
	??_R0?AV?$basic_stringstream@DU?$char_traits@D@std@@V?$allocator@D@2@@std@@@8 	 DATA
	??_R0?AVBoolValue@@@8 	 DATA
	??_R0?AVCMeshO@@@8 	 DATA
	??_R0?AVColorValue@@@8 	 DATA
	??_R0?AVDecoratePlugin@@@8 	 DATA
	??_R0?AVEditPlugin@@@8 	 DATA
	??_R0?AVFilterNameParameterValuesPair@@@8 	 DATA
	??_R0?AVFilterPlugin@@@8 	 DATA
	??_R0?AVFilterScript@@@8 	 DATA
	??_R0?AVFloatValue@@@8 	 DATA
	??_R0?AVFunctionParameter@pymeshlab@@@8 	 DATA
	??_R0?AVGLLogStream@@@8 	 DATA
	??_R0?AVIOPlugin@@@8 	 DATA
	??_R0?AVIntValue@@@8 	 DATA
	??_R0?AVMLException@@@8 	 DATA
	??_R0?AVMLPluginGLContext@@@8 	 DATA
	??_R0?AVMLSceneGLSharedDataContext@@@8 	 DATA
	??_R0?AVMLThreadSafeMemoryInfo@@@8 	 DATA
	??_R0?AVMatrix44Value@@@8 	 DATA
	??_R0?AVMemoryInfo@vcg@@@8 	 DATA
	??_R0?AVMeshDocument@@@8 	 DATA
	??_R0?AVMeshLabPlugin@@@8 	 DATA
	??_R0?AVMeshLabPluginLogger@@@8 	 DATA
	??_R0?AVMissingCompactnessException@vcg@@@8 	 DATA
	??_R0?AVMissingComponentException@vcg@@@8 	 DATA
	??_R0?AVMissingPolygonalRequirementException@vcg@@@8 	 DATA
	??_R0?AVMissingTriangularRequirementException@vcg@@@8 	 DATA
	??_R0?AVNotThreadSafeMemoryInfo@vcg@@@8 	 DATA
	??_R0?AVPoint3Value@@@8 	 DATA
	??_R0?AVPolyMesh@@@8 	 DATA
	??_R0?AVQGLContext@@@8 	 DATA
	??_R0?AVQGLWidget@@@8 	 DATA
	??_R0?AVQObject@@@8 	 DATA
	??_R0?AVQPaintDevice@@@8 	 DATA
	??_R0?AVQPluginLoader@@@8 	 DATA
	??_R0?AVQWidget@@@8 	 DATA
	??_R0?AVRandomGenerator@math@vcg@@@8 	 DATA
	??_R0?AVRenderPlugin@@@8 	 DATA
	??_R0?AVRichBool@@@8 	 DATA
	??_R0?AVRichColor@@@8 	 DATA
	??_R0?AVRichDirection@@@8 	 DATA
	??_R0?AVRichDynamicFloat@@@8 	 DATA
	??_R0?AVRichEnum@@@8 	 DATA
	??_R0?AVRichFileOpen@@@8 	 DATA
	??_R0?AVRichFileSave@@@8 	 DATA
	??_R0?AVRichFloat@@@8 	 DATA
	??_R0?AVRichInt@@@8 	 DATA
	??_R0?AVRichMatrix44@@@8 	 DATA
	??_R0?AVRichMesh@@@8 	 DATA
	??_R0?AVRichParameter@@@8 	 DATA
	??_R0?AVRichPercentage@@@8 	 DATA
	??_R0?AVRichPosition@@@8 	 DATA
	??_R0?AVRichShot@@@8 	 DATA
	??_R0?AVRichString@@@8 	 DATA
	??_R0?AVShotValue@@@8 	 DATA
	??_R0?AVSimpleTempDataBase@vcg@@@8 	 DATA
	??_R0?AVStringValue@@@8 	 DATA
	??_R0?AVSubtractiveRingRNG@math@vcg@@@8 	 DATA
	??_R0?AVValue@@@8 	 DATA
	??_R0?AVbad_alloc@std@@@8 	 DATA
	??_R0?AVbad_array_new_length@std@@@8 	 DATA
	??_R0?AVexception@std@@@8 	 DATA
	??_R0?AVios_base@std@@@8 	 DATA
	??_R0?AVout_of_range@std@@@8 	 DATA
	??_R0?AVruntime_error@std@@@8 	 DATA
	??_R0M@8 	 DATA
	??_R0X@8 	 DATA
	?_OptionsStorage@?1??__local_stdio_printf_options@@9@4_KA 	 DATA
	?buf@?1??what@MissingCompactnessException@vcg@@UEBAPEBDXZ@4PADA 	 DATA
	?buf@?1??what@MissingComponentException@vcg@@UEBAPEBDXZ@4PADA 	 DATA
	?buf@?1??what@MissingPolygonalRequirementException@vcg@@UEBAPEBDXZ@4PADA 	 DATA
	?buf@?1??what@MissingTriangularRequirementException@vcg@@UEBAPEBDXZ@4PADA 	 DATA
	?dummy@?1??cK1@?$EmptyCore@V?$FaceTypeHolder@UPUsedTypes@vcg@@@vcg@@@face@vcg@@QEBAAEBDXZ@4DA 	 DATA
	?dummy@?1??cK2@?$EmptyCore@V?$FaceTypeHolder@UPUsedTypes@vcg@@@vcg@@@face@vcg@@QEBAAEBDXZ@4DA 	 DATA
	?dummy@?1??cPD1@?$EmptyCore@V?$FaceTypeHolder@UPUsedTypes@vcg@@@vcg@@@face@vcg@@QEBAAEBV?$Point3@_N@4@XZ@4V54@A 	 DATA
	?dummy@?1??cPD2@?$EmptyCore@V?$FaceTypeHolder@UPUsedTypes@vcg@@@vcg@@@face@vcg@@QEBAAEBV?$Point3@_N@4@XZ@4V54@A 	 DATA
	?dummy_texcoord@?1??cT@?$EmptyCore@UPUsedTypes@vcg@@@vertex@vcg@@QEBA?AV?$TexCoord2@M$00@4@XZ@4V54@A 	 DATA
	?ep@?1??HEp@?$EmptyHEAdj@V?$EmptyHPrevAdj@V?$EmptyBitFlags@V?$HEdgeTypeHolder@V?$UsedTypes@UAsVertexType@?$Use@VCVertexO@@@vcg@@UAsEdgeType@?$Use@VCEdgeO@@@3@UAsFaceType@?$Use@VCFaceO@@@3@VDefaultDeriver@3@V83@V83@V83@V83@@vcg@@@vcg@@@hedge@vcg@@@hedge@vcg@@@hedge@vcg@@QEAAAEAPEAVCEdgeO@@XZ@4PEAV5@EA 	 DATA
	?ep@?1??HNp@?$EmptyHNextAdj@V?$EmptyHVAdj@V?$EmptyHEAdj@V?$EmptyHPrevAdj@V?$EmptyBitFlags@V?$HEdgeTypeHolder@V?$UsedTypes@UAsVertexType@?$Use@VCVertexO@@@vcg@@UAsEdgeType@?$Use@VCEdgeO@@@3@UAsFaceType@?$Use@VCFaceO@@@3@VDefaultDeriver@3@V83@V83@V83@V83@@vcg@@@vcg@@@hedge@vcg@@@hedge@vcg@@@hedge@vcg@@@hedge@vcg@@@hedge@vcg@@QEAAAEAPEAV?$HEdge@V?$UsedTypes@UAsVertexType@?$Use@VCVertexO@@@vcg@@UAsEdgeType@?$Use@VCEdgeO@@@3@UAsFaceType@?$Use@VCFaceO@@@3@VDefaultDeriver@3@V83@V83@V83@V83@@vcg@@VDefaultDeriver@2@V32@V32@V32@V32@V32@V32@V32@V32@V32@V32@@4@XZ@4PEAV54@EA 	 DATA
	?ep@?1??HOp@?$EmptyHOppAdj@V?$EmptyHNextAdj@V?$EmptyHVAdj@V?$EmptyHEAdj@V?$EmptyHPrevAdj@V?$EmptyBitFlags@V?$HEdgeTypeHolder@V?$UsedTypes@UAsVertexType@?$Use@VCVertexO@@@vcg@@UAsEdgeType@?$Use@VCEdgeO@@@3@UAsFaceType@?$Use@VCFaceO@@@3@VDefaultDeriver@3@V83@V83@V83@V83@@vcg@@@vcg@@@hedge@vcg@@@hedge@vcg@@@hedge@vcg@@@hedge@vcg@@@hedge@vcg@@@hedge@vcg@@QEAAAEAPEAV?$HEdge@V?$UsedTypes@UAsVertexType@?$Use@VCVertexO@@@vcg@@UAsEdgeType@?$Use@VCEdgeO@@@3@UAsFaceType@?$Use@VCFaceO@@@3@VDefaultDeriver@3@V83@V83@V83@V83@@vcg@@VDefaultDeriver@2@V32@V32@V32@V32@V32@V32@V32@V32@V32@V32@@4@XZ@4PEAV54@EA 	 DATA
	?ep@?1??HPp@?$EmptyHPrevAdj@V?$EmptyBitFlags@V?$HEdgeTypeHolder@V?$UsedTypes@UAsVertexType@?$Use@VCVertexO@@@vcg@@UAsEdgeType@?$Use@VCEdgeO@@@3@UAsFaceType@?$Use@VCFaceO@@@3@VDefaultDeriver@3@V83@V83@V83@V83@@vcg@@@vcg@@@hedge@vcg@@@hedge@vcg@@QEAAAEAPEAV?$HEdge@V?$UsedTypes@UAsVertexType@?$Use@VCVertexO@@@vcg@@UAsEdgeType@?$Use@VCEdgeO@@@3@UAsFaceType@?$Use@VCFaceO@@@3@VDefaultDeriver@3@V83@V83@V83@V83@@vcg@@VDefaultDeriver@2@V32@V32@V32@V32@V32@V32@V32@V32@V32@V32@@4@XZ@4PEAV54@EA 	 DATA
	?ep@?1??HVp@?$EmptyHVAdj@V?$EmptyHEAdj@V?$EmptyHPrevAdj@V?$EmptyBitFlags@V?$HEdgeTypeHolder@V?$UsedTypes@UAsVertexType@?$Use@VCVertexO@@@vcg@@UAsEdgeType@?$Use@VCEdgeO@@@3@UAsFaceType@?$Use@VCFaceO@@@3@VDefaultDeriver@3@V83@V83@V83@V83@@vcg@@@vcg@@@hedge@vcg@@@hedge@vcg@@@hedge@vcg@@@hedge@vcg@@QEAAAEAPEAVCVertexO@@XZ@4PEAV5@EA 	 DATA
	?ep@?1??HVp@?$EmptyHVAdj@V?$EmptyHEAdj@V?$EmptyHPrevAdj@V?$EmptyBitFlags@V?$HEdgeTypeHolder@V?$UsedTypes@UAsVertexType@?$Use@VPVertex@vcg@@@vcg@@UAsEdgeType@?$Use@VPEdge@vcg@@@3@UAsFaceType@?$Use@VPFace@vcg@@@3@VDefaultDeriver@3@V83@V83@V83@V83@@vcg@@@vcg@@@hedge@vcg@@@hedge@vcg@@@hedge@vcg@@@hedge@vcg@@QEAAAEAPEAVPVertex@4@XZ@4PEAV54@EA 	 DATA
	?ep@?1??VEp@?$EmptyCore@VCUsedTypesO@@@edge@vcg@@QEAAAEAPEAVCEdgeO@@AEBH@Z@4PEAV5@EA 	 DATA
	?ep@?1??VEp@?$EmptyCore@VCUsedTypesO@@@vertex@vcg@@QEAAAEAPEAVCEdgeO@@XZ@4PEAV5@EA 	 DATA
	?ep@?1??VHp@?$EmptyCore@VCUsedTypesO@@@vertex@vcg@@QEAAAEAPEAV?$HEdge@V?$UsedTypes@UAsVertexType@?$Use@VCVertexO@@@vcg@@UAsEdgeType@?$Use@VCEdgeO@@@3@UAsFaceType@?$Use@VCFaceO@@@3@VDefaultDeriver@3@V83@V83@V83@V83@@vcg@@VDefaultDeriver@2@V32@V32@V32@V32@V32@V32@V32@V32@V32@V32@@4@XZ@4PEAV54@EA 	 DATA
	?ep@?1??cHEp@?$EmptyHEAdj@V?$EmptyHPrevAdj@V?$EmptyBitFlags@V?$HEdgeTypeHolder@V?$UsedTypes@UAsVertexType@?$Use@VCVertexO@@@vcg@@UAsEdgeType@?$Use@VCEdgeO@@@3@UAsFaceType@?$Use@VCFaceO@@@3@VDefaultDeriver@3@V83@V83@V83@V83@@vcg@@@vcg@@@hedge@vcg@@@hedge@vcg@@@hedge@vcg@@QEBAQEAVCEdgeO@@XZ@4PEAV5@EA 	 DATA
	?ep@?1??cHNp@?$EmptyHNextAdj@V?$EmptyHVAdj@V?$EmptyHEAdj@V?$EmptyHPrevAdj@V?$EmptyBitFlags@V?$HEdgeTypeHolder@V?$UsedTypes@UAsVertexType@?$Use@VCVertexO@@@vcg@@UAsEdgeType@?$Use@VCEdgeO@@@3@UAsFaceType@?$Use@VCFaceO@@@3@VDefaultDeriver@3@V83@V83@V83@V83@@vcg@@@vcg@@@hedge@vcg@@@hedge@vcg@@@hedge@vcg@@@hedge@vcg@@@hedge@vcg@@QEBAQEAV?$HEdge@V?$UsedTypes@UAsVertexType@?$Use@VCVertexO@@@vcg@@UAsEdgeType@?$Use@VCEdgeO@@@3@UAsFaceType@?$Use@VCFaceO@@@3@VDefaultDeriver@3@V83@V83@V83@V83@@vcg@@VDefaultDeriver@2@V32@V32@V32@V32@V32@V32@V32@V32@V32@V32@@4@XZ@4PEAV54@EA 	 DATA
	?ep@?1??cHOp@?$EmptyHOppAdj@V?$EmptyHNextAdj@V?$EmptyHVAdj@V?$EmptyHEAdj@V?$EmptyHPrevAdj@V?$EmptyBitFlags@V?$HEdgeTypeHolder@V?$UsedTypes@UAsVertexType@?$Use@VCVertexO@@@vcg@@UAsEdgeType@?$Use@VCEdgeO@@@3@UAsFaceType@?$Use@VCFaceO@@@3@VDefaultDeriver@3@V83@V83@V83@V83@@vcg@@@vcg@@@hedge@vcg@@@hedge@vcg@@@hedge@vcg@@@hedge@vcg@@@hedge@vcg@@@hedge@vcg@@QEBAQEAV?$HEdge@V?$UsedTypes@UAsVertexType@?$Use@VCVertexO@@@vcg@@UAsEdgeType@?$Use@VCEdgeO@@@3@UAsFaceType@?$Use@VCFaceO@@@3@VDefaultDeriver@3@V83@V83@V83@V83@@vcg@@VDefaultDeriver@2@V32@V32@V32@V32@V32@V32@V32@V32@V32@V32@@4@XZ@4PEAV54@EA 	 DATA
	?ep@?1??cHPp@?$EmptyHPrevAdj@V?$EmptyBitFlags@V?$HEdgeTypeHolder@V?$UsedTypes@UAsVertexType@?$Use@VCVertexO@@@vcg@@UAsEdgeType@?$Use@VCEdgeO@@@3@UAsFaceType@?$Use@VCFaceO@@@3@VDefaultDeriver@3@V83@V83@V83@V83@@vcg@@@vcg@@@hedge@vcg@@@hedge@vcg@@QEBAQEAV?$HEdge@V?$UsedTypes@UAsVertexType@?$Use@VCVertexO@@@vcg@@UAsEdgeType@?$Use@VCEdgeO@@@3@UAsFaceType@?$Use@VCFaceO@@@3@VDefaultDeriver@3@V83@V83@V83@V83@@vcg@@VDefaultDeriver@2@V32@V32@V32@V32@V32@V32@V32@V32@V32@V32@@4@XZ@4PEAV54@EA 	 DATA
	?ep@?1??cHVp@?$EmptyHVAdj@V?$EmptyHEAdj@V?$EmptyHPrevAdj@V?$EmptyBitFlags@V?$HEdgeTypeHolder@V?$UsedTypes@UAsVertexType@?$Use@VCVertexO@@@vcg@@UAsEdgeType@?$Use@VCEdgeO@@@3@UAsFaceType@?$Use@VCFaceO@@@3@VDefaultDeriver@3@V83@V83@V83@V83@@vcg@@@vcg@@@hedge@vcg@@@hedge@vcg@@@hedge@vcg@@@hedge@vcg@@QEBAQEAVCVertexO@@XZ@4PEAV5@EA 	 DATA
	?ep@?1??cVEp@?$EmptyCore@VCUsedTypesO@@@edge@vcg@@QEBAPEAVCEdgeO@@AEBH@Z@4PEAV5@EA 	 DATA
	?ep@?1??cVEp@?$EmptyCore@VCUsedTypesO@@@vertex@vcg@@QEBAPEAVCEdgeO@@XZ@4PEAV5@EA 	 DATA
	?ep@?1??cVHp@?$EmptyCore@VCUsedTypesO@@@vertex@vcg@@QEBAPEAV?$HEdge@V?$UsedTypes@UAsVertexType@?$Use@VCVertexO@@@vcg@@UAsEdgeType@?$Use@VCEdgeO@@@3@UAsFaceType@?$Use@VCFaceO@@@3@VDefaultDeriver@3@V83@V83@V83@V83@@vcg@@VDefaultDeriver@2@V32@V32@V32@V32@V32@V32@V32@V32@V32@V32@@4@XZ@4PEAV54@EA 	 DATA
	?fp@?1??EFp@?$EmptyCore@UPUsedTypes@vcg@@@edge@vcg@@QEAAAEAPEAVPFace@4@XZ@4PEAV54@EA 	 DATA
	?fp@?1??EFp@?$EmptyCore@VCUsedTypesO@@@edge@vcg@@QEAAAEAPEAVCFaceO@@XZ@4PEAV5@EA 	 DATA
	?fp@?1??FEp@?$EmptyCore@V?$FaceTypeHolder@VCUsedTypesO@@@vcg@@@face@vcg@@QEAAAEAPEAVCEdgeO@@H@Z@4PEAV5@EA 	 DATA
	?fp@?1??FFp@?$EmptyCore@V?$FaceTypeHolder@UPUsedTypes@vcg@@@vcg@@@face@vcg@@QEAAAEAPEAVPFace@4@H@Z@4PEAV54@EA 	 DATA
	?fp@?1??FHp@?$EmptyCore@V?$FaceTypeHolder@VCUsedTypesO@@@vcg@@@face@vcg@@QEAAAEAPEAV?$HEdge@V?$UsedTypes@UAsVertexType@?$Use@VCVertexO@@@vcg@@UAsEdgeType@?$Use@VCEdgeO@@@3@UAsFaceType@?$Use@VCFaceO@@@3@VDefaultDeriver@3@V83@V83@V83@V83@@vcg@@VDefaultDeriver@2@V32@V32@V32@V32@V32@V32@V32@V32@V32@V32@@4@XZ@4PEAV54@EA 	 DATA
	?fp@?1??HFp@?$EmptyHFAdj@V?$EmptyHOppAdj@V?$EmptyHNextAdj@V?$EmptyHVAdj@V?$EmptyHEAdj@V?$EmptyHPrevAdj@V?$EmptyBitFlags@V?$HEdgeTypeHolder@V?$UsedTypes@UAsVertexType@?$Use@VCVertexO@@@vcg@@UAsEdgeType@?$Use@VCEdgeO@@@3@UAsFaceType@?$Use@VCFaceO@@@3@VDefaultDeriver@3@V83@V83@V83@V83@@vcg@@@vcg@@@hedge@vcg@@@hedge@vcg@@@hedge@vcg@@@hedge@vcg@@@hedge@vcg@@@hedge@vcg@@@hedge@vcg@@QEAAAEAPEAVCFaceO@@XZ@4PEAV5@EA 	 DATA
	?fp@?1??HFp@?$EmptyHFAdj@V?$EmptyHOppAdj@V?$EmptyHNextAdj@V?$EmptyHVAdj@V?$EmptyHEAdj@V?$EmptyHPrevAdj@V?$EmptyBitFlags@V?$HEdgeTypeHolder@V?$UsedTypes@UAsVertexType@?$Use@VPVertex@vcg@@@vcg@@UAsEdgeType@?$Use@VPEdge@vcg@@@3@UAsFaceType@?$Use@VPFace@vcg@@@3@VDefaultDeriver@3@V83@V83@V83@V83@@vcg@@@vcg@@@hedge@vcg@@@hedge@vcg@@@hedge@vcg@@@hedge@vcg@@@hedge@vcg@@@hedge@vcg@@@hedge@vcg@@QEAAAEAPEAVPFace@4@XZ@4PEAV54@EA 	 DATA
	?fp@?1??VFp@?$EmptyCore@UPUsedTypes@vcg@@@vertex@vcg@@QEAAAEAPEAVPFace@4@XZ@4PEAV54@EA 	 DATA
	?fp@?1??VFp@?$EmptyCore@V?$FaceTypeHolder@UPUsedTypes@vcg@@@vcg@@@face@vcg@@QEAAAEAPEAVPFace@4@H@Z@4PEAV54@EA 	 DATA
	?fp@?1??cEFp@?$EmptyCore@UPUsedTypes@vcg@@@edge@vcg@@QEBAPEAVPFace@4@XZ@4PEAV54@EA 	 DATA
	?fp@?1??cEFp@?$EmptyCore@VCUsedTypesO@@@edge@vcg@@QEBAPEAVCFaceO@@XZ@4PEAV5@EA 	 DATA
	?fp@?1??cFEp@?$EmptyCore@V?$FaceTypeHolder@VCUsedTypesO@@@vcg@@@face@vcg@@QEBAPEAVCEdgeO@@H@Z@4PEAV5@EA 	 DATA
	?fp@?1??cFFp@?$EmptyCore@V?$FaceTypeHolder@UPUsedTypes@vcg@@@vcg@@@face@vcg@@QEBAPEAVPFace@4@H@Z@4PEAV54@EA 	 DATA
	?fp@?1??cFHp@?$EmptyCore@V?$FaceTypeHolder@VCUsedTypesO@@@vcg@@@face@vcg@@QEBAPEAV?$HEdge@V?$UsedTypes@UAsVertexType@?$Use@VCVertexO@@@vcg@@UAsEdgeType@?$Use@VCEdgeO@@@3@UAsFaceType@?$Use@VCFaceO@@@3@VDefaultDeriver@3@V83@V83@V83@V83@@vcg@@VDefaultDeriver@2@V32@V32@V32@V32@V32@V32@V32@V32@V32@V32@@4@XZ@4PEAV54@EA 	 DATA
	?fp@?1??cHFp@?$EmptyHFAdj@V?$EmptyHOppAdj@V?$EmptyHNextAdj@V?$EmptyHVAdj@V?$EmptyHEAdj@V?$EmptyHPrevAdj@V?$EmptyBitFlags@V?$HEdgeTypeHolder@V?$UsedTypes@UAsVertexType@?$Use@VCVertexO@@@vcg@@UAsEdgeType@?$Use@VCEdgeO@@@3@UAsFaceType@?$Use@VCFaceO@@@3@VDefaultDeriver@3@V83@V83@V83@V83@@vcg@@@vcg@@@hedge@vcg@@@hedge@vcg@@@hedge@vcg@@@hedge@vcg@@@hedge@vcg@@@hedge@vcg@@@hedge@vcg@@QEBAQEAVCFaceO@@XZ@4PEAV5@EA 	 DATA
	?fp@?1??cHFp@?$EmptyHFAdj@V?$EmptyHOppAdj@V?$EmptyHNextAdj@V?$EmptyHVAdj@V?$EmptyHEAdj@V?$EmptyHPrevAdj@V?$EmptyBitFlags@V?$HEdgeTypeHolder@V?$UsedTypes@UAsVertexType@?$Use@VPVertex@vcg@@@vcg@@UAsEdgeType@?$Use@VPEdge@vcg@@@3@UAsFaceType@?$Use@VPFace@vcg@@@3@VDefaultDeriver@3@V83@V83@V83@V83@@vcg@@@vcg@@@hedge@vcg@@@hedge@vcg@@@hedge@vcg@@@hedge@vcg@@@hedge@vcg@@@hedge@vcg@@@hedge@vcg@@QEBAQEAVPFace@4@XZ@4PEAV54@EA 	 DATA
	?fp@?1??cVFp@?$EmptyCore@UPUsedTypes@vcg@@@vertex@vcg@@QEBAPEAVPFace@4@XZ@4PEAV54@EA 	 DATA
	?fp@?1??cVFp@?$EmptyCore@V?$FaceTypeHolder@UPUsedTypes@vcg@@@vcg@@@face@vcg@@QEBAPEAVPFace@4@H@Z@4PEAV54@EA 	 DATA
	?glewInitialized@GLExtensionsManager@@0_NA 	 DATA
	?hp@?1??EHp@?$EmptyCore@VCUsedTypesO@@@edge@vcg@@QEAAAEAPEAV?$HEdge@V?$UsedTypes@UAsVertexType@?$Use@VCVertexO@@@vcg@@UAsEdgeType@?$Use@VCEdgeO@@@3@UAsFaceType@?$Use@VCFaceO@@@3@VDefaultDeriver@3@V83@V83@V83@V83@@vcg@@VDefaultDeriver@2@V32@V32@V32@V32@V32@V32@V32@V32@V32@V32@@4@XZ@4PEAV54@EA 	 DATA
	?hp@?1??cEHp@?$EmptyCore@VCUsedTypesO@@@edge@vcg@@QEBAPEAV?$HEdge@V?$UsedTypes@UAsVertexType@?$Use@VCVertexO@@@vcg@@UAsEdgeType@?$Use@VCEdgeO@@@3@UAsFaceType@?$Use@VCFaceO@@@3@VDefaultDeriver@3@V83@V83@V83@V83@@vcg@@VDefaultDeriver@2@V32@V32@V32@V32@V32@V32@V32@V32@V32@V32@@4@XZ@4PEAV54@EA 	 DATA
	?res@?1??primitiveName@DebugInfo@GLMeshAttributesInfo@vcg@@SAPEBD_K@Z@4V?$basic_string@DU?$char_traits@D@std@@V?$allocator@D@2@@std@@A 	 DATA
	?staticMetaObject@FilterScript@@2UQMetaObject@@B 	 DATA
	?staticMetaObject@GLLogStream@@2UQMetaObject@@B 	 DATA
	?staticMetaObject@MLSceneGLSharedDataContext@@2UQMetaObject@@B 	 DATA
	?staticMetaObject@MeshDocument@@2UQMetaObject@@B 	 DATA
	?tmp@?1??Identity@?$Matrix44@M@vcg@@SAAEBV23@XZ@4V23@A 	 DATA
	?tmp@?1??cIMark@?$EmptyCore@UPUsedTypes@vcg@@@vertex@vcg@@QEBAHXZ@4HA 	 DATA
	?tp@?1??TTp@?$EmptyCore@V?$TetraTypeHolder@V?$UsedTypes@UAsVertexType@?$Use@VCVertexO@@@vcg@@UAsEdgeType@?$Use@VCEdgeO@@@3@UAsFaceType@?$Use@VCFaceO@@@3@VDefaultDeriver@3@V83@V83@V83@V83@@vcg@@@vcg@@@tetrahedron@vcg@@QEAAAEAPEAV?$TetraSimp@V?$UsedTypes@UAsVertexType@?$Use@VCVertexO@@@vcg@@UAsEdgeType@?$Use@VCEdgeO@@@3@UAsFaceType@?$Use@VCFaceO@@@3@VDefaultDeriver@3@V83@V83@V83@V83@@vcg@@VDefaultDeriver@2@V32@V32@V32@V32@V32@V32@V32@V32@V32@V32@V32@@4@H@Z@4PEAV54@EA 	 DATA
	?tp@?1??VTp@?$EmptyCore@V?$TetraTypeHolder@V?$UsedTypes@UAsVertexType@?$Use@VCVertexO@@@vcg@@UAsEdgeType@?$Use@VCEdgeO@@@3@UAsFaceType@?$Use@VCFaceO@@@3@VDefaultDeriver@3@V83@V83@V83@V83@@vcg@@@vcg@@@tetrahedron@vcg@@QEAAAEAPEAV?$TetraSimp@V?$UsedTypes@UAsVertexType@?$Use@VCVertexO@@@vcg@@UAsEdgeType@?$Use@VCEdgeO@@@3@UAsFaceType@?$Use@VCFaceO@@@3@VDefaultDeriver@3@V83@V83@V83@V83@@vcg@@VDefaultDeriver@2@V32@V32@V32@V32@V32@V32@V32@V32@V32@V32@V32@@4@H@Z@4PEAV54@EA 	 DATA
	?tp@?1??VTp@?$EmptyCore@VCUsedTypesO@@@vertex@vcg@@QEAAAEAPEAV?$TetraSimp@V?$UsedTypes@UAsVertexType@?$Use@VCVertexO@@@vcg@@UAsEdgeType@?$Use@VCEdgeO@@@3@UAsFaceType@?$Use@VCFaceO@@@3@VDefaultDeriver@3@V83@V83@V83@V83@@vcg@@VDefaultDeriver@2@V32@V32@V32@V32@V32@V32@V32@V32@V32@V32@V32@@4@XZ@4PEAV54@EA 	 DATA
	?tp@?1??cVTp@?$EmptyCore@VCUsedTypesO@@@vertex@vcg@@QEBAPEAV?$TetraSimp@V?$UsedTypes@UAsVertexType@?$Use@VCVertexO@@@vcg@@UAsEdgeType@?$Use@VCEdgeO@@@3@UAsFaceType@?$Use@VCFaceO@@@3@VDefaultDeriver@3@V83@V83@V83@V83@@vcg@@VDefaultDeriver@2@V32@V32@V32@V32@V32@V32@V32@V32@V32@V32@V32@@4@XZ@4PEAV54@EA 	 DATA
	?v@?1??cK1@?$EmptyCore@UPUsedTypes@vcg@@@vertex@vcg@@QEBAMXZ@4MA 	 DATA
	?v@?1??cK2@?$EmptyCore@UPUsedTypes@vcg@@@vertex@vcg@@QEBAMXZ@4MA 	 DATA
	?v@?1??cPD1@?$EmptyCore@UPUsedTypes@vcg@@@vertex@vcg@@QEBA?AV?$Point3@M@4@XZ@4V54@A 	 DATA
	?v@?1??cPD2@?$EmptyCore@UPUsedTypes@vcg@@@vertex@vcg@@QEBA?AV?$Point3@M@4@XZ@4V54@A 	 DATA
	?vp@?1??V@?$EmptyCore@V?$TetraTypeHolder@V?$UsedTypes@UAsVertexType@?$Use@VCVertexO@@@vcg@@UAsEdgeType@?$Use@VCEdgeO@@@3@UAsFaceType@?$Use@VCFaceO@@@3@VDefaultDeriver@3@V83@V83@V83@V83@@vcg@@@vcg@@@tetrahedron@vcg@@QEAAAEAPEAVCVertexO@@H@Z@4PEAV5@EA 	 DATA
	?vp@?1??V@?$EmptyCore@V?$TetraTypeHolder@V?$UsedTypes@UAsVertexType@?$Use@VPVertex@vcg@@@vcg@@UAsEdgeType@?$Use@VPEdge@vcg@@@3@UAsFaceType@?$Use@VPFace@vcg@@@3@VDefaultDeriver@3@V83@V83@V83@V83@@vcg@@@vcg@@@tetrahedron@vcg@@QEAAAEAPEAVPVertex@4@H@Z@4PEAV54@EA 	 DATA
	?vp@?1??cV@?$EmptyCore@V?$TetraTypeHolder@V?$UsedTypes@UAsVertexType@?$Use@VCVertexO@@@vcg@@UAsEdgeType@?$Use@VCEdgeO@@@3@UAsFaceType@?$Use@VCFaceO@@@3@VDefaultDeriver@3@V83@V83@V83@V83@@vcg@@@vcg@@@tetrahedron@vcg@@QEBAPEBVCVertexO@@H@Z@4PEAV5@EA 	 DATA
	?vp@?1??cV@?$EmptyCore@V?$TetraTypeHolder@V?$UsedTypes@UAsVertexType@?$Use@VPVertex@vcg@@@vcg@@UAsEdgeType@?$Use@VPEdge@vcg@@@3@UAsFaceType@?$Use@VPFace@vcg@@@3@VDefaultDeriver@3@V83@V83@V83@V83@@vcg@@@vcg@@@tetrahedron@vcg@@QEBAPEBVPVertex@4@H@Z@4PEAV54@EA 	 DATA
	?z@?1??EFi@?$EmptyCore@VCUsedTypesO@@@edge@vcg@@QEAAAEAHXZ@4HA 	 DATA
	?z@?1??TTi@?$EmptyCore@V?$TetraTypeHolder@V?$UsedTypes@UAsVertexType@?$Use@VCVertexO@@@vcg@@UAsEdgeType@?$Use@VCEdgeO@@@3@UAsFaceType@?$Use@VCFaceO@@@3@VDefaultDeriver@3@V83@V83@V83@V83@@vcg@@@vcg@@@tetrahedron@vcg@@QEAAAEADH@Z@4DA 	 DATA
	?z@?1??VEi@?$EmptyCore@VCUsedTypesO@@@edge@vcg@@QEAAAEAHAEBH@Z@4HA 	 DATA
	?z@?1??VEi@?$EmptyCore@VCUsedTypesO@@@vertex@vcg@@QEAAAEAHXZ@4HA 	 DATA
	?z@?1??VEi@?$EmptyCore@VCUsedTypesO@@@vertex@vcg@@QEBAHXZ@4HA 	 DATA
	?z@?1??VHi@?$EmptyCore@VCUsedTypesO@@@vertex@vcg@@QEAAAEAHXZ@4HA 	 DATA
	?z@?1??VHi@?$EmptyCore@VCUsedTypesO@@@vertex@vcg@@QEBAHXZ@4HA 	 DATA
	?z@?1??VTi@?$EmptyCore@V?$TetraTypeHolder@V?$UsedTypes@UAsVertexType@?$Use@VCVertexO@@@vcg@@UAsEdgeType@?$Use@VCEdgeO@@@3@UAsFaceType@?$Use@VCFaceO@@@3@VDefaultDeriver@3@V83@V83@V83@V83@@vcg@@@vcg@@@tetrahedron@vcg@@QEAAAEADH@Z@4DA 	 DATA
	?z@?1??VTi@?$EmptyCore@VCUsedTypesO@@@vertex@vcg@@QEAAAEAHXZ@4HA 	 DATA
	?z@?1??VTi@?$EmptyCore@VCUsedTypesO@@@vertex@vcg@@QEBAHXZ@4HA 	 DATA
	?z@?1??cEFi@?$EmptyCore@VCUsedTypesO@@@edge@vcg@@QEBAAEAHXZ@4HA 	 DATA
	?z@?1??cTTi@?$EmptyCore@V?$TetraTypeHolder@V?$UsedTypes@UAsVertexType@?$Use@VCVertexO@@@vcg@@UAsEdgeType@?$Use@VCEdgeO@@@3@UAsFaceType@?$Use@VCFaceO@@@3@VDefaultDeriver@3@V83@V83@V83@V83@@vcg@@@vcg@@@tetrahedron@vcg@@QEBADH@Z@4DA 	 DATA
	?z@?1??cVEi@?$EmptyCore@VCUsedTypesO@@@edge@vcg@@QEBAHAEBH@Z@4HA 	 DATA
	?z@?1??cVEi@?$EmptyCore@VCUsedTypesO@@@vertex@vcg@@QEBAHXZ@4HA 	 DATA
	?z@?1??cVTi@?$EmptyCore@V?$TetraTypeHolder@V?$UsedTypes@UAsVertexType@?$Use@VCVertexO@@@vcg@@UAsEdgeType@?$Use@VCEdgeO@@@3@UAsFaceType@?$Use@VCFaceO@@@3@VDefaultDeriver@3@V83@V83@V83@V83@@vcg@@@vcg@@@tetrahedron@vcg@@QEBADH@Z@4DA 	 DATA
	?z@?1??cVTi@?$EmptyCore@VCUsedTypesO@@@vertex@vcg@@QEBAHXZ@4HA 	 DATA
	??$?0$$QEAF$$Z$$V@?$pair@$$CBFV?$vector@U?$pair@II@std@@V?$allocator@U?$pair@II@std@@@2@@std@@@std@@QEAA@Upiecewise_construct_t@1@V?$tuple@$$QEAF@1@V?$tuple@$$V@1@@Z
	??$?0$$V@?$_Compressed_pair@V?$allocator@D@std@@V?$_String_val@U?$_Simple_types@D@std@@@2@$00@std@@QEAA@U_Zero_then_variadic_args_t@1@@Z
	??$?0$$V@?$_Compressed_pair@V?$allocator@H@std@@V?$_Vector_val@U?$_Simple_types@H@std@@@2@$00@std@@QEAA@U_Zero_then_variadic_args_t@1@@Z
	??$?0$$V@?$_Compressed_pair@V?$allocator@I@std@@V?$_Vector_val@U?$_Simple_types@I@std@@@2@$00@std@@QEAA@U_Zero_then_variadic_args_t@1@@Z
	??$?0$$V@?$_Compressed_pair@V?$allocator@M@std@@V?$_Vector_val@U?$_Simple_types@M@std@@@2@$00@std@@QEAA@U_Zero_then_variadic_args_t@1@@Z
	??$?0$$V@?$_Compressed_pair@V?$allocator@PEAVCFaceO@@@std@@V?$_Vector_val@U?$_Simple_types@PEAVCFaceO@@@std@@@2@$00@std@@QEAA@U_Zero_then_variadic_args_t@1@@Z
	??$?0$$V@?$_Compressed_pair@V?$allocator@PEAVCVertexO@@@std@@V?$_Vector_val@U?$_Simple_types@PEAVCVertexO@@@std@@@2@$00@std@@QEAA@U_Zero_then_variadic_args_t@1@@Z
	??$?0$$V@?$_Compressed_pair@V?$allocator@PEAVDecoratePlugin@@@std@@V?$_Vector_val@U?$_Simple_types@PEAVDecoratePlugin@@@std@@@2@$00@std@@QEAA@U_Zero_then_variadic_args_t@1@@Z
	??$?0$$V@?$_Compressed_pair@V?$allocator@PEAVEditPlugin@@@std@@V?$_Vector_val@U?$_Simple_types@PEAVEditPlugin@@@std@@@2@$00@std@@QEAA@U_Zero_then_variadic_args_t@1@@Z
	??$?0$$V@?$_Compressed_pair@V?$allocator@PEAVFilterPlugin@@@std@@V?$_Vector_val@U?$_Simple_types@PEAVFilterPlugin@@@std@@@2@$00@std@@QEAA@U_Zero_then_variadic_args_t@1@@Z
	??$?0$$V@?$_Compressed_pair@V?$allocator@PEAVIOPlugin@@@std@@V?$_Vector_val@U?$_Simple_types@PEAVIOPlugin@@@std@@@2@$00@std@@QEAA@U_Zero_then_variadic_args_t@1@@Z
	??$?0$$V@?$_Compressed_pair@V?$allocator@PEAVMeshLabPlugin@@@std@@V?$_Vector_val@U?$_Simple_types@PEAVMeshLabPlugin@@@std@@@2@$00@std@@QEAA@U_Zero_then_variadic_args_t@1@@Z
	??$?0$$V@?$_Compressed_pair@V?$allocator@PEAVQAction@@@std@@V?$_Vector_val@U?$_Simple_types@PEAVQAction@@@std@@@2@$00@std@@QEAA@U_Zero_then_variadic_args_t@1@@Z
	??$?0$$V@?$_Compressed_pair@V?$allocator@PEAVQPluginLoader@@@std@@V?$_Vector_val@U?$_Simple_types@PEAVQPluginLoader@@@std@@@2@$00@std@@QEAA@U_Zero_then_variadic_args_t@1@@Z
	??$?0$$V@?$_Compressed_pair@V?$allocator@PEAVRenderPlugin@@@std@@V?$_Vector_val@U?$_Simple_types@PEAVRenderPlugin@@@std@@@2@$00@std@@QEAA@U_Zero_then_variadic_args_t@1@@Z
	??$?0$$V@?$_Compressed_pair@V?$allocator@U?$CurvatureDirOcfBaseType@M@face@vcg@@@std@@V?$_Vector_val@U?$_Simple_types@U?$CurvatureDirOcfBaseType@M@face@vcg@@@std@@@2@$00@std@@QEAA@U_Zero_then_variadic_args_t@1@@Z
	??$?0$$V@?$_Compressed_pair@V?$allocator@U?$CurvatureDirTypeOcf@M@vertex@vcg@@@std@@V?$_Vector_val@U?$_Simple_types@U?$CurvatureDirTypeOcf@M@vertex@vcg@@@std@@@2@$00@std@@QEAA@U_Zero_then_variadic_args_t@1@@Z
	??$?0$$V@?$_Compressed_pair@V?$allocator@U?$_List_node@HPEAX@std@@@std@@V?$_List_val@U?$_List_simple_types@H@std@@@2@$00@std@@QEAA@U_Zero_then_variadic_args_t@1@@Z
	??$?0$$V@?$_Compressed_pair@V?$allocator@U?$_List_node@PEAVMeshModel@@PEAX@std@@@std@@V?$_List_val@U?$_List_simple_types@PEAVMeshModel@@@std@@@2@$00@std@@QEAA@U_Zero_then_variadic_args_t@1@@Z
	??$?0$$V@?$_Compressed_pair@V?$allocator@U?$_List_node@PEAVRichParameter@@PEAX@std@@@std@@V?$_List_val@U?$_List_simple_types@PEAVRichParameter@@@std@@@2@$00@std@@QEAA@U_Zero_then_variadic_args_t@1@@Z
	??$?0$$V@?$_Compressed_pair@V?$allocator@U?$_List_node@U?$pair@VQString@@V1@@std@@PEAX@std@@@std@@V?$_List_val@U?$_List_simple_types@U?$pair@VQString@@V1@@std@@@std@@@2@$00@std@@QEAA@U_Zero_then_variadic_args_t@1@@Z
	??$?0$$V@?$_Compressed_pair@V?$allocator@U?$_List_node@V?$Matrix@I$0?0$00$0A@$0?0$00@Eigen@@PEAX@std@@@std@@V?$_List_val@U?$_List_simple_types@V?$Matrix@I$0?0$00$0A@$0?0$00@Eigen@@@std@@@2@$00@std@@QEAA@U_Zero_then_variadic_args_t@1@@Z
	??$?0$$V@?$_Compressed_pair@V?$allocator@U?$_List_node@V?$basic_string@DU?$char_traits@D@std@@V?$allocator@D@2@@std@@PEAX@std@@@std@@V?$_List_val@U?$_List_simple_types@V?$basic_string@DU?$char_traits@D@std@@V?$allocator@D@2@@std@@@std@@@2@$00@std@@QEAA@U_Zero_then_variadic_args_t@1@@Z
	??$?0$$V@?$_Compressed_pair@V?$allocator@U?$_List_node@VFunctionParameter@pymeshlab@@PEAX@std@@@std@@V?$_List_val@U?$_List_simple_types@VFunctionParameter@pymeshlab@@@std@@@2@$00@std@@QEAA@U_Zero_then_variadic_args_t@1@@Z
	??$?0$$V@?$_Compressed_pair@V?$allocator@U?$_List_node@VMeshModel@@PEAX@std@@@std@@V?$_List_val@U?$_List_simple_types@VMeshModel@@@std@@@2@$00@std@@QEAA@U_Zero_then_variadic_args_t@1@@Z
	??$?0$$V@?$_Compressed_pair@V?$allocator@U?$_List_node@VRasterModel@@PEAX@std@@@std@@V?$_List_val@U?$_List_simple_types@VRasterModel@@@std@@@2@$00@std@@QEAA@U_Zero_then_variadic_args_t@1@@Z
	??$?0$$V@?$_Compressed_pair@V?$allocator@U?$_Tree_node@U?$pair@$$CBFV?$vector@U?$pair@II@std@@V?$allocator@U?$pair@II@std@@@2@@std@@@std@@PEAX@std@@@std@@V?$_Tree_val@U?$_Tree_simple_types@U?$pair@$$CBFV?$vector@U?$pair@II@std@@V?$allocator@U?$pair@II@std@@@2@@std@@@std@@@std@@@2@$00@std@@QEAA@U_Zero_then_variadic_args_t@1@@Z
	??$?0$$V@?$_Compressed_pair@V?$allocator@U?$_Tree_node@U?$pair@$$CBHPEAV?$QtThreadSafeGLMeshAttributesMultiViewerBOManager@VCMeshO@@PEAVQGLContext@@UMLPerViewGLOptions@@@vcg@@@std@@PEAX@std@@@std@@V?$_Tree_val@U?$_Tree_simple_types@U?$pair@$$CBHPEAV?$QtThreadSafeGLMeshAttributesMultiViewerBOManager@VCMeshO@@PEAVQGLContext@@UMLPerViewGLOptions@@@vcg@@@std@@@std@@@2@$00@std@@QEAA@U_Zero_then_variadic_args_t@1@@Z
	??$?0$$V@?$_Compressed_pair@V?$allocator@U?$_Tree_node@U?$pair@$$CBMV?$vector@PEAVQAction@@V?$allocator@PEAVQAction@@@std@@@std@@@std@@PEAX@std@@@std@@V?$_Tree_val@U?$_Tree_simple_types@U?$pair@$$CBMV?$vector@PEAVQAction@@V?$allocator@PEAVQAction@@@std@@@std@@@std@@@std@@@2@$00@std@@QEAA@U_Zero_then_variadic_args_t@1@@Z
	??$?0$$V@?$_Compressed_pair@V?$allocator@U?$_Tree_node@U?$pair@$$CBV?$basic_string@DU?$char_traits@D@std@@V?$allocator@D@2@@std@@VQImage@@@std@@PEAX@std@@@std@@V?$_Tree_val@U?$_Tree_simple_types@U?$pair@$$CBV?$basic_string@DU?$char_traits@D@std@@V?$allocator@D@2@@std@@VQImage@@@std@@@std@@@2@$00@std@@QEAA@U_Zero_then_variadic_args_t@1@@Z
	??$?0$$V@?$_Compressed_pair@V?$allocator@U?$_Tree_node@U?$pair@$$CBVQString@@V?$vector@PEAVQAction@@V?$allocator@PEAVQAction@@@std@@@std@@@std@@PEAX@std@@@std@@V?$_Tree_val@U?$_Tree_simple_types@U?$pair@$$CBVQString@@V?$vector@PEAVQAction@@V?$allocator@PEAVQAction@@@std@@@std@@@std@@@std@@@2@$00@std@@QEAA@U_Zero_then_variadic_args_t@1@@Z
	??$?0$$V@?$_Compressed_pair@V?$allocator@U?$_Tree_node@U?$pair@QEAVQAction@@M@std@@PEAX@std@@@std@@V?$_Tree_val@U?$_Tree_simple_types@U?$pair@QEAVQAction@@M@std@@@std@@@2@$00@std@@QEAA@U_Zero_then_variadic_args_t@1@@Z
	??$?0$$V@?$_Compressed_pair@V?$allocator@U?$_Tree_node@U?$pair@QEAVQGLContext@@V?$PerViewData@UMLPerViewGLOptions@@@vcg@@@std@@PEAX@std@@@std@@V?$_Tree_val@U?$_Tree_simple_types@U?$pair@QEAVQGLContext@@V?$PerViewData@UMLPerViewGLOptions@@@vcg@@@std@@@std@@@2@$00@std@@QEAA@U_Zero_then_variadic_args_t@1@@Z
	??$?0$$V@?$_Compressed_pair@V?$allocator@U?$_Tree_node@VFunction@pymeshlab@@PEAX@std@@@std@@V?$_Tree_val@U?$_Tree_simple_types@VFunction@pymeshlab@@@std@@@2@$00@std@@QEAA@U_Zero_then_variadic_args_t@1@@Z
	??$?0$$V@?$_Compressed_pair@V?$allocator@U?$_Tree_node@VPointerToAttribute@vcg@@PEAX@std@@@std@@V?$_Tree_val@U?$_Tree_simple_types@VPointerToAttribute@vcg@@@std@@@2@$00@std@@QEAA@U_Zero_then_variadic_args_t@1@@Z
	??$?0$$V@?$_Compressed_pair@V?$allocator@U?$_Tree_node@VQString@@PEAX@std@@@std@@V?$_Tree_val@U?$_Tree_simple_types@VQString@@@std@@@2@$00@std@@QEAA@U_Zero_then_variadic_args_t@1@@Z
	??$?0$$V@?$_Compressed_pair@V?$allocator@U?$pair@FI@std@@@std@@V?$_Vector_val@U?$_Simple_types@U?$pair@FI@std@@@std@@@2@$00@std@@QEAA@U_Zero_then_variadic_args_t@1@@Z
	??$?0$$V@?$_Compressed_pair@V?$allocator@U?$pair@II@std@@@std@@V?$_Vector_val@U?$_Simple_types@U?$pair@II@std@@@std@@@2@$00@std@@QEAA@U_Zero_then_variadic_args_t@1@@Z
	??$?0$$V@?$_Compressed_pair@V?$allocator@UAdjTypePack@?$vector_ocf@VCFaceO@@@face@vcg@@@std@@V?$_Vector_val@U?$_Simple_types@UAdjTypePack@?$vector_ocf@VCFaceO@@@face@vcg@@@std@@@2@$00@std@@QEAA@U_Zero_then_variadic_args_t@1@@Z
	??$?0$$V@?$_Compressed_pair@V?$allocator@UVFAdjType@?$vector_ocf@VCVertexO@@@vertex@vcg@@@std@@V?$_Vector_val@U?$_Simple_types@UVFAdjType@?$vector_ocf@VCVertexO@@@vertex@vcg@@@std@@@2@$00@std@@QEAA@U_Zero_then_variadic_args_t@1@@Z
	??$?0$$V@?$_Compressed_pair@V?$allocator@V?$Color4@E@vcg@@@std@@V?$_Vector_val@U?$_Simple_types@V?$Color4@E@vcg@@@std@@@2@$00@std@@QEAA@U_Zero_then_variadic_args_t@1@@Z
	??$?0$$V@?$_Compressed_pair@V?$allocator@V?$HEdge@V?$UsedTypes@UAsVertexType@?$Use@VCVertexO@@@vcg@@UAsEdgeType@?$Use@VCEdgeO@@@3@UAsFaceType@?$Use@VCFaceO@@@3@VDefaultDeriver@3@V83@V83@V83@V83@@vcg@@VDefaultDeriver@2@V32@V32@V32@V32@V32@V32@V32@V32@V32@V32@@vcg@@@std@@V?$_Vector_val@U?$_Simple_types@V?$HEdge@V?$UsedTypes@UAsVertexType@?$Use@VCVertexO@@@vcg@@UAsEdgeType@?$Use@VCEdgeO@@@3@UAsFaceType@?$Use@VCFaceO@@@3@VDefaultDeriver@3@V83@V83@V83@V83@@vcg@@VDefaultDeriver@2@V32@V32@V32@V32@V32@V32@V32@V32@V32@V32@@vcg@@@std@@@2@$00@std@@QEAA@U_Zero_then_variadic_args_t@1@@Z
	??$?0$$V@?$_Compressed_pair@V?$allocator@V?$HEdge@V?$UsedTypes@UAsVertexType@?$Use@VPVertex@vcg@@@vcg@@UAsEdgeType@?$Use@VPEdge@vcg@@@3@UAsFaceType@?$Use@VPFace@vcg@@@3@VDefaultDeriver@3@V83@V83@V83@V83@@vcg@@VDefaultDeriver@2@V32@V32@V32@V32@V32@V32@V32@V32@V32@V32@@vcg@@@std@@V?$_Vector_val@U?$_Simple_types@V?$HEdge@V?$UsedTypes@UAsVertexType@?$Use@VPVertex@vcg@@@vcg@@UAsEdgeType@?$Use@VPEdge@vcg@@@3@UAsFaceType@?$Use@VPFace@vcg@@@3@VDefaultDeriver@3@V83@V83@V83@V83@@vcg@@VDefaultDeriver@2@V32@V32@V32@V32@V32@V32@V32@V32@V32@V32@@vcg@@@std@@@2@$00@std@@QEAA@U_Zero_then_variadic_args_t@1@@Z
	??$?0$$V@?$_Compressed_pair@V?$allocator@V?$Point2@M@vcg@@@std@@V?$_Vector_val@U?$_Simple_types@V?$Point2@M@vcg@@@std@@@2@$00@std@@QEAA@U_Zero_then_variadic_args_t@1@@Z
	??$?0$$V@?$_Compressed_pair@V?$allocator@V?$Point3@M@vcg@@@std@@V?$_Vector_val@U?$_Simple_types@V?$Point3@M@vcg@@@std@@@2@$00@std@@QEAA@U_Zero_then_variadic_args_t@1@@Z
	??$?0$$V@?$_Compressed_pair@V?$allocator@V?$TetraSimp@V?$UsedTypes@UAsVertexType@?$Use@VCVertexO@@@vcg@@UAsEdgeType@?$Use@VCEdgeO@@@3@UAsFaceType@?$Use@VCFaceO@@@3@VDefaultDeriver@3@V83@V83@V83@V83@@vcg@@VDefaultDeriver@2@V32@V32@V32@V32@V32@V32@V32@V32@V32@V32@V32@@vcg@@@std@@V?$_Vector_val@U?$_Simple_types@V?$TetraSimp@V?$UsedTypes@UAsVertexType@?$Use@VCVertexO@@@vcg@@UAsEdgeType@?$Use@VCEdgeO@@@3@UAsFaceType@?$Use@VCFaceO@@@3@VDefaultDeriver@3@V83@V83@V83@V83@@vcg@@VDefaultDeriver@2@V32@V32@V32@V32@V32@V32@V32@V32@V32@V32@V32@@vcg@@@std@@@2@$00@std@@QEAA@U_Zero_then_variadic_args_t@1@@Z
	??$?0$$V@?$_Compressed_pair@V?$allocator@V?$TetraSimp@V?$UsedTypes@UAsVertexType@?$Use@VPVertex@vcg@@@vcg@@UAsEdgeType@?$Use@VPEdge@vcg@@@3@UAsFaceType@?$Use@VPFace@vcg@@@3@VDefaultDeriver@3@V83@V83@V83@V83@@vcg@@VDefaultDeriver@2@V32@V32@V32@V32@V32@V32@V32@V32@V32@V32@V32@@vcg@@@std@@V?$_Vector_val@U?$_Simple_types@V?$TetraSimp@V?$UsedTypes@UAsVertexType@?$Use@VPVertex@vcg@@@vcg@@UAsEdgeType@?$Use@VPEdge@vcg@@@3@UAsFaceType@?$Use@VPFace@vcg@@@3@VDefaultDeriver@3@V83@V83@V83@V83@@vcg@@VDefaultDeriver@2@V32@V32@V32@V32@V32@V32@V32@V32@V32@V32@V32@@vcg@@@std@@@2@$00@std@@QEAA@U_Zero_then_variadic_args_t@1@@Z
	??$?0$$V@?$_Compressed_pair@V?$allocator@V?$TexCoord2@M$00@vcg@@@std@@V?$_Vector_val@U?$_Simple_types@V?$TexCoord2@M$00@vcg@@@std@@@2@$00@std@@QEAA@U_Zero_then_variadic_args_t@1@@Z
	??$?0$$V@?$_Compressed_pair@V?$allocator@V?$basic_string@DU?$char_traits@D@std@@V?$allocator@D@2@@std@@@std@@V?$_Vector_val@U?$_Simple_types@V?$basic_string@DU?$char_traits@D@std@@V?$allocator@D@2@@std@@@std@@@2@$00@std@@QEAA@U_Zero_then_variadic_args_t@1@@Z
	??$?0$$V@?$_Compressed_pair@V?$allocator@VCEdgeO@@@std@@V?$_Vector_val@U?$_Simple_types@VCEdgeO@@@std@@@2@$00@std@@QEAA@U_Zero_then_variadic_args_t@1@@Z
	??$?0$$V@?$_Compressed_pair@V?$allocator@VCFaceO@@@std@@V?$_Vector_val@U?$_Simple_types@VCFaceO@@@std@@@2@$00@std@@QEAA@U_Zero_then_variadic_args_t@1@@Z
	??$?0$$V@?$_Compressed_pair@V?$allocator@VCVertexO@@@std@@V?$_Vector_val@U?$_Simple_types@VCVertexO@@@std@@@2@$00@std@@QEAA@U_Zero_then_variadic_args_t@1@@Z
	??$?0$$V@?$_Compressed_pair@V?$allocator@VEdgeVertInd@?$NotThreadSafeGLMeshAttributesMultiViewerBOManager@VCMeshO@@PEAVQGLContext@@UMLPerViewGLOptions@@@vcg@@@std@@V?$_Vector_val@U?$_Simple_types@VEdgeVertInd@?$NotThreadSafeGLMeshAttributesMultiViewerBOManager@VCMeshO@@PEAVQGLContext@@UMLPerViewGLOptions@@@vcg@@@std@@@2@$00@std@@QEAA@U_Zero_then_variadic_args_t@1@@Z
	??$?0$$V@?$_Compressed_pair@V?$allocator@VMLRenderingData@@@std@@V?$_Vector_val@U?$_Simple_types@VMLRenderingData@@@std@@@2@$00@std@@QEAA@U_Zero_then_variadic_args_t@1@@Z
	??$?0$$V@?$_Compressed_pair@V?$allocator@VPEdge@?$UpdateTopology@VCMeshO@@@tri@vcg@@@std@@V?$_Vector_val@U?$_Simple_types@VPEdge@?$UpdateTopology@VCMeshO@@@tri@vcg@@@std@@@2@$00@std@@QEAA@U_Zero_then_variadic_args_t@1@@Z
	??$?0$$V@?$_Compressed_pair@V?$allocator@VPEdge@vcg@@@std@@V?$_Vector_val@U?$_Simple_types@VPEdge@vcg@@@std@@@2@$00@std@@QEAA@U_Zero_then_variadic_args_t@1@@Z
	??$?0$$V@?$_Compressed_pair@V?$allocator@VPFace@vcg@@@std@@V?$_Vector_val@U?$_Simple_types@VPFace@vcg@@@std@@@2@$00@std@@QEAA@U_Zero_then_variadic_args_t@1@@Z
	??$?0$$V@?$_Compressed_pair@V?$allocator@VPVertex@vcg@@@std@@V?$_Vector_val@U?$_Simple_types@VPVertex@vcg@@@std@@@2@$00@std@@QEAA@U_Zero_then_variadic_args_t@1@@Z
	??$?0$$V@?$_Compressed_pair@V?$allocator@VWedgeColorTypePack@?$vector_ocf@VCFaceO@@@face@vcg@@@std@@V?$_Vector_val@U?$_Simple_types@VWedgeColorTypePack@?$vector_ocf@VCFaceO@@@face@vcg@@@std@@@2@$00@std@@QEAA@U_Zero_then_variadic_args_t@1@@Z
	??$?0$$V@?$_Compressed_pair@V?$allocator@VWedgeNormalTypePack@?$vector_ocf@VCFaceO@@@face@vcg@@@std@@V?$_Vector_val@U?$_Simple_types@VWedgeNormalTypePack@?$vector_ocf@VCFaceO@@@face@vcg@@@std@@@2@$00@std@@QEAA@U_Zero_then_variadic_args_t@1@@Z
	??$?0$$V@?$_Compressed_pair@V?$allocator@VWedgeTexTypePack@?$vector_ocf@VCFaceO@@@face@vcg@@@std@@V?$_Vector_val@U?$_Simple_types@VWedgeTexTypePack@?$vector_ocf@VCFaceO@@@face@vcg@@@std@@@2@$00@std@@QEAA@U_Zero_then_variadic_args_t@1@@Z
	??$?0$$V@?$_Compressed_pair@V?$allocator@_K@std@@V?$_Vector_val@U?$_Simple_types@_K@std@@@2@$00@std@@QEAA@U_Zero_then_variadic_args_t@1@@Z
	??$?0AEAHAEAVQString@@$0A@@?$pair@HVQString@@@std@@QEAA@AEAHAEAVQString@@@Z
	??$?0AEAPEAPEAVQAction@@AEAPEAPEAV0@$0A@@?$pair@PEAPEAVQAction@@PEAPEAV1@@std@@QEAA@AEAPEAPEAVQAction@@0@Z
	??$?0AEAPEAU?$_Tree_node@U?$pair@QEAVQGLContext@@V?$PerViewData@UMLPerViewGLOptions@@@vcg@@@std@@PEAX@std@@AEAPEAU01@$0A@@?$pair@PEAU?$_Tree_node@U?$pair@QEAVQGLContext@@V?$PerViewData@UMLPerViewGLOptions@@@vcg@@@std@@PEAX@std@@PEAU12@@std@@QEAA@AEAPEAU?$_Tree_node@U?$pair@QEAVQGLContext@@V?$PerViewData@UMLPerViewGLOptions@@@vcg@@@std@@PEAX@1@0@Z
	??$?0AEAPEAU?$_Tree_node@VFunction@pymeshlab@@PEAX@std@@_N$0A@@?$pair@PEAU?$_Tree_node@VFunction@pymeshlab@@PEAX@std@@_N@std@@QEAA@AEAPEAU?$_Tree_node@VFunction@pymeshlab@@PEAX@1@$$QEA_N@Z
	??$?0AEAPEAU?$_Tree_node@VPointerToAttribute@vcg@@PEAX@std@@_N$0A@@?$pair@PEAU?$_Tree_node@VPointerToAttribute@vcg@@PEAX@std@@_N@std@@QEAA@AEAPEAU?$_Tree_node@VPointerToAttribute@vcg@@PEAX@1@$$QEA_N@Z
	??$?0AEAPEAU?$_Tree_node@VQString@@PEAX@std@@_N$0A@@?$pair@PEAU?$_Tree_node@VQString@@PEAX@std@@_N@std@@QEAA@AEAPEAU?$_Tree_node@VQString@@PEAX@1@$$QEA_N@Z
	??$?0AEAPEAVEdgeVertInd@?$NotThreadSafeGLMeshAttributesMultiViewerBOManager@VCMeshO@@PEAVQGLContext@@UMLPerViewGLOptions@@@vcg@@AEAPEAV012@$0A@@?$pair@PEAVEdgeVertInd@?$NotThreadSafeGLMeshAttributesMultiViewerBOManager@VCMeshO@@PEAVQGLContext@@UMLPerViewGLOptions@@@vcg@@PEAV123@@std@@QEAA@AEAPEAVEdgeVertInd@?$NotThreadSafeGLMeshAttributesMultiViewerBOManager@VCMeshO@@PEAVQGLContext@@UMLPerViewGLOptions@@@vcg@@0@Z
	??$?0AEAPEAVPEdge@?$UpdateTopology@VCMeshO@@@tri@vcg@@AEAPEAV0123@$0A@@?$pair@PEAVPEdge@?$UpdateTopology@VCMeshO@@@tri@vcg@@PEAV1234@@std@@QEAA@AEAPEAVPEdge@?$UpdateTopology@VCMeshO@@@tri@vcg@@0@Z
	??$?0AEAV?$allocator@D@std@@$$V@?$_Compressed_pair@V?$allocator@D@std@@V?$_String_val@U?$_Simple_types@D@std@@@2@$00@std@@QEAA@U_One_then_variadic_args_t@1@AEAV?$allocator@D@1@@Z
	??$?0AEAVQString@@PEBD$0A@@?$pair@VQString@@PEBD@std@@QEAA@AEAVQString@@$$QEAPEBD@Z
	??$?0AEBF$$Z$$V@?$pair@$$CBFV?$vector@U?$pair@II@std@@V?$allocator@U?$pair@II@std@@@2@@std@@@std@@QEAA@Upiecewise_construct_t@1@V?$tuple@AEBF@1@V?$tuple@$$V@1@@Z
	??$?0AEBF$0A@@?$tuple@AEBF@std@@QEAA@AEBF@Z
	??$?0AEBF@?$_Tuple_val@AEBF@std@@QEAA@AEBF@Z
	??$?0AEBFAEAI$0A@@?$pair@FI@std@@QEAA@AEBFAEAI@Z
	??$?0AEBH$$Z$$V@?$pair@$$CBHPEAV?$QtThreadSafeGLMeshAttributesMultiViewerBOManager@VCMeshO@@PEAVQGLContext@@UMLPerViewGLOptions@@@vcg@@@std@@QEAA@Upiecewise_construct_t@1@V?$tuple@AEBH@1@V?$tuple@$$V@1@@Z
	??$?0AEBH$0A@@?$tuple@AEBH@std@@QEAA@AEBH@Z
	??$?0AEBH@?$_List_node_emplace_op2@V?$allocator@U?$_List_node@HPEAX@std@@@std@@@std@@QEAA@AEAV?$allocator@U?$_List_node@HPEAX@std@@@1@AEBH@Z
	??$?0AEBH@?$_Tuple_val@AEBH@std@@QEAA@AEBH@Z
	??$?0AEBI@?$_Alloc_temporary2@V?$allocator@I@std@@@std@@QEAA@AEAV?$allocator@I@1@AEBI@Z
	??$?0AEBM$$Z$$V@?$pair@$$CBMV?$vector@PEAVQAction@@V?$allocator@PEAVQAction@@@std@@@std@@@std@@QEAA@Upiecewise_construct_t@1@V?$tuple@AEBM@1@V?$tuple@$$V@1@@Z
	??$?0AEBM$0A@@?$tuple@AEBM@std@@QEAA@AEBM@Z
	??$?0AEBM@?$_Tuple_val@AEBM@std@@QEAA@AEBM@Z
	??$?0AEBQEAU?$_Tree_node@U?$pair@$$CBFV?$vector@U?$pair@II@std@@V?$allocator@U?$pair@II@std@@@2@@std@@@std@@PEAX@std@@_N$0A@@?$pair@PEAU?$_Tree_node@U?$pair@$$CBFV?$vector@U?$pair@II@std@@V?$allocator@U?$pair@II@std@@@2@@std@@@std@@PEAX@std@@_N@std@@QEAA@AEBQEAU?$_Tree_node@U?$pair@$$CBFV?$vector@U?$pair@II@std@@V?$allocator@U?$pair@II@std@@@2@@std@@@std@@PEAX@1@$$QEA_N@Z
	??$?0AEBQEAU?$_Tree_node@U?$pair@$$CBHPEAV?$QtThreadSafeGLMeshAttributesMultiViewerBOManager@VCMeshO@@PEAVQGLContext@@UMLPerViewGLOptions@@@vcg@@@std@@PEAX@std@@_N$0A@@?$pair@PEAU?$_Tree_node@U?$pair@$$CBHPEAV?$QtThreadSafeGLMeshAttributesMultiViewerBOManager@VCMeshO@@PEAVQGLContext@@UMLPerViewGLOptions@@@vcg@@@std@@PEAX@std@@_N@std@@QEAA@AEBQEAU?$_Tree_node@U?$pair@$$CBHPEAV?$QtThreadSafeGLMeshAttributesMultiViewerBOManager@VCMeshO@@PEAVQGLContext@@UMLPerViewGLOptions@@@vcg@@@std@@PEAX@1@$$QEA_N@Z
	??$?0AEBQEAU?$_Tree_node@U?$pair@$$CBMV?$vector@PEAVQAction@@V?$allocator@PEAVQAction@@@std@@@std@@@std@@PEAX@std@@_N$0A@@?$pair@PEAU?$_Tree_node@U?$pair@$$CBMV?$vector@PEAVQAction@@V?$allocator@PEAVQAction@@@std@@@std@@@std@@PEAX@std@@_N@std@@QEAA@AEBQEAU?$_Tree_node@U?$pair@$$CBMV?$vector@PEAVQAction@@V?$allocator@PEAVQAction@@@std@@@std@@@std@@PEAX@1@$$QEA_N@Z
	??$?0AEBQEAU?$_Tree_node@U?$pair@$$CBV?$basic_string@DU?$char_traits@D@std@@V?$allocator@D@2@@std@@VQImage@@@std@@PEAX@std@@_N$0A@@?$pair@PEAU?$_Tree_node@U?$pair@$$CBV?$basic_string@DU?$char_traits@D@std@@V?$allocator@D@2@@std@@VQImage@@@std@@PEAX@std@@_N@std@@QEAA@AEBQEAU?$_Tree_node@U?$pair@$$CBV?$basic_string@DU?$char_traits@D@std@@V?$allocator@D@2@@std@@VQImage@@@std@@PEAX@1@$$QEA_N@Z
	??$?0AEBQEAU?$_Tree_node@U?$pair@$$CBVQString@@V?$vector@PEAVQAction@@V?$allocator@PEAVQAction@@@std@@@std@@@std@@PEAX@std@@_N$0A@@?$pair@PEAU?$_Tree_node@U?$pair@$$CBVQString@@V?$vector@PEAVQAction@@V?$allocator@PEAVQAction@@@std@@@std@@@std@@PEAX@std@@_N@std@@QEAA@AEBQEAU?$_Tree_node@U?$pair@$$CBVQString@@V?$vector@PEAVQAction@@V?$allocator@PEAVQAction@@@std@@@std@@@std@@PEAX@1@$$QEA_N@Z
	??$?0AEBQEAU?$_Tree_node@U?$pair@QEAVQAction@@M@std@@PEAX@std@@_N$0A@@?$pair@PEAU?$_Tree_node@U?$pair@QEAVQAction@@M@std@@PEAX@std@@_N@std@@QEAA@AEBQEAU?$_Tree_node@U?$pair@QEAVQAction@@M@std@@PEAX@1@$$QEA_N@Z
	??$?0AEBQEAU?$_Tree_node@U?$pair@QEAVQGLContext@@V?$PerViewData@UMLPerViewGLOptions@@@vcg@@@std@@PEAX@std@@_N$0A@@?$pair@PEAU?$_Tree_node@U?$pair@QEAVQGLContext@@V?$PerViewData@UMLPerViewGLOptions@@@vcg@@@std@@PEAX@std@@_N@std@@QEAA@AEBQEAU?$_Tree_node@U?$pair@QEAVQGLContext@@V?$PerViewData@UMLPerViewGLOptions@@@vcg@@@std@@PEAX@1@$$QEA_N@Z
	??$?0AEBQEAVMeshModel@@@?$_List_node_emplace_op2@V?$allocator@U?$_List_node@PEAVMeshModel@@PEAX@std@@@std@@@std@@QEAA@AEAV?$allocator@U?$_List_node@PEAVMeshModel@@PEAX@std@@@1@AEBQEAVMeshModel@@@Z
	??$?0AEBQEAVQAction@@$$Z$$V@?$pair@QEAVQAction@@M@std@@QEAA@Upiecewise_construct_t@1@V?$tuple@AEBQEAVQAction@@@1@V?$tuple@$$V@1@@Z
	??$?0AEBQEAVQAction@@$0A@@?$tuple@AEBQEAVQAction@@@std@@QEAA@AEBQEAVQAction@@@Z
	??$?0AEBQEAVQAction@@@?$_Tuple_val@AEBQEAVQAction@@@std@@QEAA@AEBQEAVQAction@@@Z
	??$?0AEBQEAVQGLContext@@$$Z$$V@?$pair@QEAVQGLContext@@V?$PerViewData@UMLPerViewGLOptions@@@vcg@@@std@@QEAA@Upiecewise_construct_t@1@V?$tuple@AEBQEAVQGLContext@@@1@V?$tuple@$$V@1@@Z
	??$?0AEBQEAVQGLContext@@$0A@@?$tuple@AEBQEAVQGLContext@@@std@@QEAA@AEBQEAVQGLContext@@@Z
	??$?0AEBQEAVQGLContext@@@?$_Tuple_val@AEBQEAVQGLContext@@@std@@QEAA@AEBQEAVQGLContext@@@Z
	??$?0AEBQEAVRichParameter@@@?$_List_node_emplace_op2@V?$allocator@U?$_List_node@PEAVRichParameter@@PEAX@std@@@std@@@std@@QEAA@AEAV?$allocator@U?$_List_node@PEAVRichParameter@@PEAX@std@@@1@AEBQEAVRichParameter@@@Z
	??$?0AEBU?$less@F@std@@U_Zero_then_variadic_args_t@1@@?$_Compressed_pair@U?$less@F@std@@V?$_Compressed_pair@V?$allocator@U?$_Tree_node@U?$pair@$$CBFV?$vector@U?$pair@II@std@@V?$allocator@U?$pair@II@std@@@2@@std@@@std@@PEAX@std@@@std@@V?$_Tree_val@U?$_Tree_simple_types@U?$pair@$$CBFV?$vector@U?$pair@II@std@@V?$allocator@U?$pair@II@std@@@2@@std@@@std@@@std@@@2@$00@2@$00@std@@QEAA@U_One_then_variadic_args_t@1@AEBU?$less@F@1@$$QEAU_Zero_then_variadic_args_t@1@@Z
	??$?0AEBU?$less@H@std@@U_Zero_then_variadic_args_t@1@@?$_Compressed_pair@U?$less@H@std@@V?$_Compressed_pair@V?$allocator@U?$_Tree_node@U?$pair@$$CBHPEAV?$QtThreadSafeGLMeshAttributesMultiViewerBOManager@VCMeshO@@PEAVQGLContext@@UMLPerViewGLOptions@@@vcg@@@std@@PEAX@std@@@std@@V?$_Tree_val@U?$_Tree_simple_types@U?$pair@$$CBHPEAV?$QtThreadSafeGLMeshAttributesMultiViewerBOManager@VCMeshO@@PEAVQGLContext@@UMLPerViewGLOptions@@@vcg@@@std@@@std@@@2@$00@2@$00@std@@QEAA@U_One_then_variadic_args_t@1@AEBU?$less@H@1@$$QEAU_Zero_then_variadic_args_t@1@@Z
	??$?0AEBU?$less@M@std@@U_Zero_then_variadic_args_t@1@@?$_Compressed_pair@U?$less@M@std@@V?$_Compressed_pair@V?$allocator@U?$_Tree_node@U?$pair@$$CBMV?$vector@PEAVQAction@@V?$allocator@PEAVQAction@@@std@@@std@@@std@@PEAX@std@@@std@@V?$_Tree_val@U?$_Tree_simple_types@U?$pair@$$CBMV?$vector@PEAVQAction@@V?$allocator@PEAVQAction@@@std@@@std@@@std@@@std@@@2@$00@2@$00@std@@QEAA@U_One_then_variadic_args_t@1@AEBU?$less@M@1@$$QEAU_Zero_then_variadic_args_t@1@@Z
	??$?0AEBU?$less@PEAVQAction@@@std@@U_Zero_then_variadic_args_t@1@@?$_Compressed_pair@U?$less@PEAVQAction@@@std@@V?$_Compressed_pair@V?$allocator@U?$_Tree_node@U?$pair@QEAVQAction@@M@std@@PEAX@std@@@std@@V?$_Tree_val@U?$_Tree_simple_types@U?$pair@QEAVQAction@@M@std@@@std@@@2@$00@2@$00@std@@QEAA@U_One_then_variadic_args_t@1@AEBU?$less@PEAVQAction@@@1@$$QEAU_Zero_then_variadic_args_t@1@@Z
	??$?0AEBU?$less@PEAVQGLContext@@@std@@U_Zero_then_variadic_args_t@1@@?$_Compressed_pair@U?$less@PEAVQGLContext@@@std@@V?$_Compressed_pair@V?$allocator@U?$_Tree_node@U?$pair@QEAVQGLContext@@V?$PerViewData@UMLPerViewGLOptions@@@vcg@@@std@@PEAX@std@@@std@@V?$_Tree_val@U?$_Tree_simple_types@U?$pair@QEAVQGLContext@@V?$PerViewData@UMLPerViewGLOptions@@@vcg@@@std@@@std@@@2@$00@2@$00@std@@QEAA@U_One_then_variadic_args_t@1@AEBU?$less@PEAVQGLContext@@@1@$$QEAU_Zero_then_variadic_args_t@1@@Z
	??$?0AEBU?$less@V?$basic_string@DU?$char_traits@D@std@@V?$allocator@D@2@@std@@@std@@U_Zero_then_variadic_args_t@1@@?$_Compressed_pair@U?$less@V?$basic_string@DU?$char_traits@D@std@@V?$allocator@D@2@@std@@@std@@V?$_Compressed_pair@V?$allocator@U?$_Tree_node@U?$pair@$$CBV?$basic_string@DU?$char_traits@D@std@@V?$allocator@D@2@@std@@VQImage@@@std@@PEAX@std@@@std@@V?$_Tree_val@U?$_Tree_simple_types@U?$pair@$$CBV?$basic_string@DU?$char_traits@D@std@@V?$allocator@D@2@@std@@VQImage@@@std@@@std@@@2@$00@2@$00@std@@QEAA@U_One_then_variadic_args_t@1@AEBU?$less@V?$basic_string@DU?$char_traits@D@std@@V?$allocator@D@2@@std@@@1@$$QEAU_Zero_then_variadic_args_t@1@@Z
	??$?0AEBU?$less@VFunction@pymeshlab@@@std@@U_Zero_then_variadic_args_t@1@@?$_Compressed_pair@U?$less@VFunction@pymeshlab@@@std@@V?$_Compressed_pair@V?$allocator@U?$_Tree_node@VFunction@pymeshlab@@PEAX@std@@@std@@V?$_Tree_val@U?$_Tree_simple_types@VFunction@pymeshlab@@@std@@@2@$00@2@$00@std@@QEAA@U_One_then_variadic_args_t@1@AEBU?$less@VFunction@pymeshlab@@@1@$$QEAU_Zero_then_variadic_args_t@1@@Z
	??$?0AEBU?$less@VPointerToAttribute@vcg@@@std@@U_Zero_then_variadic_args_t@1@@?$_Compressed_pair@U?$less@VPointerToAttribute@vcg@@@std@@V?$_Compressed_pair@V?$allocator@U?$_Tree_node@VPointerToAttribute@vcg@@PEAX@std@@@std@@V?$_Tree_val@U?$_Tree_simple_types@VPointerToAttribute@vcg@@@std@@@2@$00@2@$00@std@@QEAA@U_One_then_variadic_args_t@1@AEBU?$less@VPointerToAttribute@vcg@@@1@$$QEAU_Zero_then_variadic_args_t@1@@Z
	??$?0AEBU?$less@VQString@@@std@@U_Zero_then_variadic_args_t@1@@?$_Compressed_pair@U?$less@VQString@@@std@@V?$_Compressed_pair@V?$allocator@U?$_Tree_node@U?$pair@$$CBVQString@@V?$vector@PEAVQAction@@V?$allocator@PEAVQAction@@@std@@@std@@@std@@PEAX@std@@@std@@V?$_Tree_val@U?$_Tree_simple_types@U?$pair@$$CBVQString@@V?$vector@PEAVQAction@@V?$allocator@PEAVQAction@@@std@@@std@@@std@@@std@@@2@$00@2@$00@std@@QEAA@U_One_then_variadic_args_t@1@AEBU?$less@VQString@@@1@$$QEAU_Zero_then_variadic_args_t@1@@Z
	??$?0AEBU?$less@VQString@@@std@@U_Zero_then_variadic_args_t@1@@?$_Compressed_pair@U?$less@VQString@@@std@@V?$_Compressed_pair@V?$allocator@U?$_Tree_node@VQString@@PEAX@std@@@std@@V?$_Tree_val@U?$_Tree_simple_types@VQString@@@std@@@2@$00@2@$00@std@@QEAA@U_One_then_variadic_args_t@1@AEBU?$less@VQString@@@1@$$QEAU_Zero_then_variadic_args_t@1@@Z
	??$?0AEBUpiecewise_construct_t@std@@V?$tuple@$$QEAF@1@V?$tuple@$$V@1@@?$_Tree_temp_node@V?$allocator@U?$_Tree_node@U?$pair@$$CBFV?$vector@U?$pair@II@std@@V?$allocator@U?$pair@II@std@@@2@@std@@@std@@PEAX@std@@@std@@@std@@QEAA@AEAV?$allocator@U?$_Tree_node@U?$pair@$$CBFV?$vector@U?$pair@II@std@@V?$allocator@U?$pair@II@std@@@2@@std@@@std@@PEAX@std@@@1@PEAU?$_Tree_node@U?$pair@$$CBFV?$vector@U?$pair@II@std@@V?$allocator@U?$pair@II@std@@@2@@std@@@std@@PEAX@1@AEBUpiecewise_construct_t@1@$$QEAV?$tuple@$$QEAF@1@$$QEAV?$tuple@$$V@1@@Z
	??$?0AEBUpiecewise_construct_t@std@@V?$tuple@AEBF@1@V?$tuple@$$V@1@@?$_Tree_temp_node@V?$allocator@U?$_Tree_node@U?$pair@$$CBFV?$vector@U?$pair@II@std@@V?$allocator@U?$pair@II@std@@@2@@std@@@std@@PEAX@std@@@std@@@std@@QEAA@AEAV?$allocator@U?$_Tree_node@U?$pair@$$CBFV?$vector@U?$pair@II@std@@V?$allocator@U?$pair@II@std@@@2@@std@@@std@@PEAX@std@@@1@PEAU?$_Tree_node@U?$pair@$$CBFV?$vector@U?$pair@II@std@@V?$allocator@U?$pair@II@std@@@2@@std@@@std@@PEAX@1@AEBUpiecewise_construct_t@1@$$QEAV?$tuple@AEBF@1@$$QEAV?$tuple@$$V@1@@Z
	??$?0AEBUpiecewise_construct_t@std@@V?$tuple@AEBH@1@V?$tuple@$$V@1@@?$_Tree_temp_node@V?$allocator@U?$_Tree_node@U?$pair@$$CBHPEAV?$QtThreadSafeGLMeshAttributesMultiViewerBOManager@VCMeshO@@PEAVQGLContext@@UMLPerViewGLOptions@@@vcg@@@std@@PEAX@std@@@std@@@std@@QEAA@AEAV?$allocator@U?$_Tree_node@U?$pair@$$CBHPEAV?$QtThreadSafeGLMeshAttributesMultiViewerBOManager@VCMeshO@@PEAVQGLContext@@UMLPerViewGLOptions@@@vcg@@@std@@PEAX@std@@@1@PEAU?$_Tree_node@U?$pair@$$CBHPEAV?$QtThreadSafeGLMeshAttributesMultiViewerBOManager@VCMeshO@@PEAVQGLContext@@UMLPerViewGLOptions@@@vcg@@@std@@PEAX@1@AEBUpiecewise_construct_t@1@$$QEAV?$tuple@AEBH@1@$$QEAV?$tuple@$$V@1@@Z
	??$?0AEBUpiecewise_construct_t@std@@V?$tuple@AEBM@1@V?$tuple@$$V@1@@?$_Tree_temp_node@V?$allocator@U?$_Tree_node@U?$pair@$$CBMV?$vector@PEAVQAction@@V?$allocator@PEAVQAction@@@std@@@std@@@std@@PEAX@std@@@std@@@std@@QEAA@AEAV?$allocator@U?$_Tree_node@U?$pair@$$CBMV?$vector@PEAVQAction@@V?$allocator@PEAVQAction@@@std@@@std@@@std@@PEAX@std@@@1@PEAU?$_Tree_node@U?$pair@$$CBMV?$vector@PEAVQAction@@V?$allocator@PEAVQAction@@@std@@@std@@@std@@PEAX@1@AEBUpiecewise_construct_t@1@$$QEAV?$tuple@AEBM@1@$$QEAV?$tuple@$$V@1@@Z
	??$?0AEBUpiecewise_construct_t@std@@V?$tuple@AEBQEAVQAction@@@1@V?$tuple@$$V@1@@?$_Tree_temp_node@V?$allocator@U?$_Tree_node@U?$pair@QEAVQAction@@M@std@@PEAX@std@@@std@@@std@@QEAA@AEAV?$allocator@U?$_Tree_node@U?$pair@QEAVQAction@@M@std@@PEAX@std@@@1@PEAU?$_Tree_node@U?$pair@QEAVQAction@@M@std@@PEAX@1@AEBUpiecewise_construct_t@1@$$QEAV?$tuple@AEBQEAVQAction@@@1@$$QEAV?$tuple@$$V@1@@Z
	??$?0AEBUpiecewise_construct_t@std@@V?$tuple@AEBQEAVQGLContext@@@1@V?$tuple@$$V@1@@?$_Tree_temp_node@V?$allocator@U?$_Tree_node@U?$pair@QEAVQGLContext@@V?$PerViewData@UMLPerViewGLOptions@@@vcg@@@std@@PEAX@std@@@std@@@std@@QEAA@AEAV?$allocator@U?$_Tree_node@U?$pair@QEAVQGLContext@@V?$PerViewData@UMLPerViewGLOptions@@@vcg@@@std@@PEAX@std@@@1@PEAU?$_Tree_node@U?$pair@QEAVQGLContext@@V?$PerViewData@UMLPerViewGLOptions@@@vcg@@@std@@PEAX@1@AEBUpiecewise_construct_t@1@$$QEAV?$tuple@AEBQEAVQGLContext@@@1@$$QEAV?$tuple@$$V@1@@Z
	??$?0AEBUpiecewise_construct_t@std@@V?$tuple@AEBV?$basic_string@DU?$char_traits@D@std@@V?$allocator@D@2@@std@@@1@V?$tuple@$$V@1@@?$_Tree_temp_node@V?$allocator@U?$_Tree_node@U?$pair@$$CBV?$basic_string@DU?$char_traits@D@std@@V?$allocator@D@2@@std@@VQImage@@@std@@PEAX@std@@@std@@@std@@QEAA@AEAV?$allocator@U?$_Tree_node@U?$pair@$$CBV?$basic_string@DU?$char_traits@D@std@@V?$allocator@D@2@@std@@VQImage@@@std@@PEAX@std@@@1@PEAU?$_Tree_node@U?$pair@$$CBV?$basic_string@DU?$char_traits@D@std@@V?$allocator@D@2@@std@@VQImage@@@std@@PEAX@1@AEBUpiecewise_construct_t@1@$$QEAV?$tuple@AEBV?$basic_string@DU?$char_traits@D@std@@V?$allocator@D@2@@std@@@1@$$QEAV?$tuple@$$V@1@@Z
	??$?0AEBUpiecewise_construct_t@std@@V?$tuple@AEBVQString@@@1@V?$tuple@$$V@1@@?$_Tree_temp_node@V?$allocator@U?$_Tree_node@U?$pair@$$CBVQString@@V?$vector@PEAVQAction@@V?$allocator@PEAVQAction@@@std@@@std@@@std@@PEAX@std@@@std@@@std@@QEAA@AEAV?$allocator@U?$_Tree_node@U?$pair@$$CBVQString@@V?$vector@PEAVQAction@@V?$allocator@PEAVQAction@@@std@@@std@@@std@@PEAX@std@@@1@PEAU?$_Tree_node@U?$pair@$$CBVQString@@V?$vector@PEAVQAction@@V?$allocator@PEAVQAction@@@std@@@std@@@std@@PEAX@1@AEBUpiecewise_construct_t@1@$$QEAV?$tuple@AEBVQString@@@1@$$QEAV?$tuple@$$V@1@@Z
	??$?0AEBV?$Matrix@I$0?0$00$0A@$0?0$00@Eigen@@@?$_List_node_emplace_op2@V?$allocator@U?$_List_node@V?$Matrix@I$0?0$00$0A@$0?0$00@Eigen@@PEAX@std@@@std@@@std@@QEAA@AEAV?$allocator@U?$_List_node@V?$Matrix@I$0?0$00$0A@$0?0$00@Eigen@@PEAX@std@@@1@AEBV?$Matrix@I$0?0$00$0A@$0?0$00@Eigen@@@Z
	??$?0AEBV?$allocator@D@std@@$$V@?$_Compressed_pair@V?$allocator@D@std@@V?$_String_val@U?$_Simple_types@D@std@@@2@$00@std@@QEAA@U_One_then_variadic_args_t@1@AEBV?$allocator@D@1@@Z
	??$?0AEBV?$allocator@I@std@@$$V@?$_Compressed_pair@V?$allocator@I@std@@V?$_Vector_val@U?$_Simple_types@I@std@@@2@$00@std@@QEAA@U_One_then_variadic_args_t@1@AEBV?$allocator@I@1@@Z
	??$?0AEBV?$allocator@PEAUGLBufferObject@?$NotThreadSafeGLMeshAttributesMultiViewerBOManager@VCMeshO@@PEAVQGLContext@@UMLPerViewGLOptions@@@vcg@@@std@@$$V@?$_Compressed_pair@V?$allocator@PEAUGLBufferObject@?$NotThreadSafeGLMeshAttributesMultiViewerBOManager@VCMeshO@@PEAVQGLContext@@UMLPerViewGLOptions@@@vcg@@@std@@V?$_Vector_val@U?$_Simple_types@PEAUGLBufferObject@?$NotThreadSafeGLMeshAttributesMultiViewerBOManager@VCMeshO@@PEAVQGLContext@@UMLPerViewGLOptions@@@vcg@@@std@@@2@$00@std@@QEAA@U_One_then_variadic_args_t@1@AEBV?$allocator@PEAUGLBufferObject@?$NotThreadSafeGLMeshAttributesMultiViewerBOManager@VCMeshO@@PEAVQGLContext@@UMLPerViewGLOptions@@@vcg@@@1@@Z
	??$?0AEBV?$allocator@PEAVCVertexO@@@std@@$$V@?$_Compressed_pair@V?$allocator@PEAVCVertexO@@@std@@V?$_Vector_val@U?$_Simple_types@PEAVCVertexO@@@std@@@2@$00@std@@QEAA@U_One_then_variadic_args_t@1@AEBV?$allocator@PEAVCVertexO@@@1@@Z
	??$?0AEBV?$allocator@PEAVPVertex@vcg@@@std@@$$V@?$_Compressed_pair@V?$allocator@PEAVPVertex@vcg@@@std@@V?$_Vector_val@U?$_Simple_types@PEAVPVertex@vcg@@@std@@@2@$00@std@@QEAA@U_One_then_variadic_args_t@1@AEBV?$allocator@PEAVPVertex@vcg@@@1@@Z
	??$?0AEBV?$allocator@V?$Point3@M@vcg@@@std@@$$V@?$_Compressed_pair@V?$allocator@V?$Point3@M@vcg@@@std@@V?$_Vector_val@U?$_Simple_types@V?$Point3@M@vcg@@@std@@@2@$00@std@@QEAA@U_One_then_variadic_args_t@1@AEBV?$allocator@V?$Point3@M@vcg@@@1@@Z
	??$?0AEBV?$allocator@V?$vector@IV?$allocator@I@std@@@std@@@std@@$$V@?$_Compressed_pair@V?$allocator@V?$vector@IV?$allocator@I@std@@@std@@@std@@V?$_Vector_val@U?$_Simple_types@V?$vector@IV?$allocator@I@std@@@std@@@std@@@2@$00@std@@QEAA@U_One_then_variadic_args_t@1@AEBV?$allocator@V?$vector@IV?$allocator@I@std@@@std@@@1@@Z
	??$?0AEBV?$allocator@VInternalRendAtts@GLMeshAttributesInfo@vcg@@@std@@$$V@?$_Compressed_pair@V?$allocator@VInternalRendAtts@GLMeshAttributesInfo@vcg@@@std@@V?$_Vector_val@U?$_Simple_types@VInternalRendAtts@GLMeshAttributesInfo@vcg@@@std@@@2@$00@std@@QEAA@U_One_then_variadic_args_t@1@AEBV?$allocator@VInternalRendAtts@GLMeshAttributesInfo@vcg@@@1@@Z
	??$?0AEBV?$basic_string@DU?$char_traits@D@std@@V?$allocator@D@2@@std@@$$Z$$V@?$pair@$$CBV?$basic_string@DU?$char_traits@D@std@@V?$allocator@D@2@@std@@VQImage@@@std@@QEAA@Upiecewise_construct_t@1@V?$tuple@AEBV?$basic_string@DU?$char_traits@D@std@@V?$allocator@D@2@@std@@@1@V?$tuple@$$V@1@@Z
	??$?0AEBV?$basic_string@DU?$char_traits@D@std@@V?$allocator@D@2@@std@@$0A@@?$tuple@AEBV?$basic_string@DU?$char_traits@D@std@@V?$allocator@D@2@@std@@@std@@QEAA@AEBV?$basic_string@DU?$char_traits@D@std@@V?$allocator@D@2@@1@@Z
	??$?0AEBV?$basic_string@DU?$char_traits@D@std@@V?$allocator@D@2@@std@@@?$_List_node_emplace_op2@V?$allocator@U?$_List_node@V?$basic_string@DU?$char_traits@D@std@@V?$allocator@D@2@@std@@PEAX@std@@@std@@@std@@QEAA@AEAV?$allocator@U?$_List_node@V?$basic_string@DU?$char_traits@D@std@@V?$allocator@D@2@@std@@PEAX@std@@@1@AEBV?$basic_string@DU?$char_traits@D@std@@V?$allocator@D@2@@1@@Z
	??$?0AEBV?$basic_string@DU?$char_traits@D@std@@V?$allocator@D@2@@std@@@?$_Tuple_val@AEBV?$basic_string@DU?$char_traits@D@std@@V?$allocator@D@2@@std@@@std@@QEAA@AEBV?$basic_string@DU?$char_traits@D@std@@V?$allocator@D@2@@1@@Z
	??$?0AEBVFunction@pymeshlab@@@?$_Tree_temp_node@V?$allocator@U?$_Tree_node@VFunction@pymeshlab@@PEAX@std@@@std@@@std@@QEAA@AEAV?$allocator@U?$_Tree_node@VFunction@pymeshlab@@PEAX@std@@@1@PEAU?$_Tree_node@VFunction@pymeshlab@@PEAX@1@AEBVFunction@pymeshlab@@@Z
	??$?0AEBVFunctionParameter@pymeshlab@@@?$_List_node_emplace_op2@V?$allocator@U?$_List_node@VFunctionParameter@pymeshlab@@PEAX@std@@@std@@@std@@QEAA@AEAV?$allocator@U?$_List_node@VFunctionParameter@pymeshlab@@PEAX@std@@@1@AEBVFunctionParameter@pymeshlab@@@Z
	??$?0AEBVPointerToAttribute@vcg@@@?$_Tree_temp_node@V?$allocator@U?$_Tree_node@VPointerToAttribute@vcg@@PEAX@std@@@std@@@std@@QEAA@AEAV?$allocator@U?$_Tree_node@VPointerToAttribute@vcg@@PEAX@std@@@1@PEAU?$_Tree_node@VPointerToAttribute@vcg@@PEAX@1@AEBVPointerToAttribute@vcg@@@Z
	??$?0AEBVQString@@$$Z$$V@?$pair@$$CBVQString@@V?$vector@PEAVQAction@@V?$allocator@PEAVQAction@@@std@@@std@@@std@@QEAA@Upiecewise_construct_t@1@V?$tuple@AEBVQString@@@1@V?$tuple@$$V@1@@Z
	??$?0AEBVQString@@$0A@@?$tuple@AEBVQString@@@std@@QEAA@AEBVQString@@@Z
	??$?0AEBVQString@@@?$_Tuple_val@AEBVQString@@@std@@QEAA@AEBVQString@@@Z
	??$?0D@?$allocator@U_Container_proxy@std@@@std@@QEAA@AEBV?$allocator@D@1@@Z
	??$?0F$$V$0A@@?$tuple@$$QEAF@std@@QEAA@$$QEAF@Z
	??$?0F@?$_Tuple_val@$$QEAF@std@@QEAA@$$QEAF@Z
	??$?0FI$0A@@?$pair@FI@std@@QEAA@XZ
	??$?0H@?$Matrix@I$0?0$00$0A@$0?0$00@Eigen@@QEAA@AEBH@Z
	??$?0H@?$Matrix@M$0?0$00$0A@$0?0$00@Eigen@@QEAA@AEBH@Z
	??$?0H@?$Matrix@_N$0?0$00$0A@$0?0$00@Eigen@@QEAA@AEBH@Z
	??$?0H@?$allocator@U_Container_proxy@std@@@std@@QEAA@AEBV?$allocator@H@1@@Z
	??$?0HH@?$Matrix@H$0?0$02$0A@$0?0$02@Eigen@@QEAA@AEBH0@Z
	??$?0HH@?$Matrix@H$0?0$0?0$0A@$0?0$0?0@Eigen@@QEAA@AEBH0@Z
	??$?0HH@?$Matrix@M$0?0$01$0A@$0?0$01@Eigen@@QEAA@AEBH0@Z
	??$?0HH@?$Matrix@M$0?0$02$0A@$0?0$02@Eigen@@QEAA@AEBH0@Z
	??$?0HH@?$Matrix@M$0?0$03$0A@$0?0$03@Eigen@@QEAA@AEBH0@Z
	??$?0H_K$0A@@?$pair@H_K@std@@QEAA@$$QEAH$$QEA_K@Z
	??$?0H_K$0A@@?$pair@II@std@@QEAA@$$QEAU?$pair@H_K@1@@Z
	??$?0I@?$Matrix@I$0?0$00$0A@$0?0$00@Eigen@@QEAA@AEBI@Z
	??$?0I@?$allocator@U_Container_proxy@std@@@std@@QEAA@AEBV?$allocator@I@1@@Z
	??$?0II$0A@@?$pair@II@std@@QEAA@$$QEAI0@Z
	??$?0M@?$allocator@U_Container_proxy@std@@@std@@QEAA@AEBV?$allocator@M@1@@Z
	??$?0PEAD$0A@@?$basic_string@DU?$char_traits@D@std@@V?$allocator@D@2@@std@@QEAA@PEAD0AEBV?$allocator@D@1@@Z
	??$?0PEAU?$_Tree_node@U?$pair@$$CBFV?$vector@U?$pair@II@std@@V?$allocator@U?$pair@II@std@@@2@@std@@@std@@PEAX@std@@_N$0A@@?$pair@PEAU?$_Tree_node@U?$pair@$$CBFV?$vector@U?$pair@II@std@@V?$allocator@U?$pair@II@std@@@2@@std@@@std@@PEAX@std@@_N@std@@QEAA@$$QEAPEAU?$_Tree_node@U?$pair@$$CBFV?$vector@U?$pair@II@std@@V?$allocator@U?$pair@II@std@@@2@@std@@@std@@PEAX@1@$$QEA_N@Z
	??$?0PEAU?$_Tree_node@U?$pair@$$CBHPEAV?$QtThreadSafeGLMeshAttributesMultiViewerBOManager@VCMeshO@@PEAVQGLContext@@UMLPerViewGLOptions@@@vcg@@@std@@PEAX@std@@_N$0A@@?$pair@PEAU?$_Tree_node@U?$pair@$$CBHPEAV?$QtThreadSafeGLMeshAttributesMultiViewerBOManager@VCMeshO@@PEAVQGLContext@@UMLPerViewGLOptions@@@vcg@@@std@@PEAX@std@@_N@std@@QEAA@$$QEAPEAU?$_Tree_node@U?$pair@$$CBHPEAV?$QtThreadSafeGLMeshAttributesMultiViewerBOManager@VCMeshO@@PEAVQGLContext@@UMLPerViewGLOptions@@@vcg@@@std@@PEAX@1@$$QEA_N@Z
	??$?0PEAU?$_Tree_node@U?$pair@$$CBMV?$vector@PEAVQAction@@V?$allocator@PEAVQAction@@@std@@@std@@@std@@PEAX@std@@_N$0A@@?$pair@PEAU?$_Tree_node@U?$pair@$$CBMV?$vector@PEAVQAction@@V?$allocator@PEAVQAction@@@std@@@std@@@std@@PEAX@std@@_N@std@@QEAA@$$QEAPEAU?$_Tree_node@U?$pair@$$CBMV?$vector@PEAVQAction@@V?$allocator@PEAVQAction@@@std@@@std@@@std@@PEAX@1@$$QEA_N@Z
	??$?0PEAU?$_Tree_node@U?$pair@$$CBV?$basic_string@DU?$char_traits@D@std@@V?$allocator@D@2@@std@@VQImage@@@std@@PEAX@std@@_N$0A@@?$pair@PEAU?$_Tree_node@U?$pair@$$CBV?$basic_string@DU?$char_traits@D@std@@V?$allocator@D@2@@std@@VQImage@@@std@@PEAX@std@@_N@std@@QEAA@$$QEAPEAU?$_Tree_node@U?$pair@$$CBV?$basic_string@DU?$char_traits@D@std@@V?$allocator@D@2@@std@@VQImage@@@std@@PEAX@1@$$QEA_N@Z
	??$?0PEAU?$_Tree_node@U?$pair@$$CBVQString@@V?$vector@PEAVQAction@@V?$allocator@PEAVQAction@@@std@@@std@@@std@@PEAX@std@@_N$0A@@?$pair@PEAU?$_Tree_node@U?$pair@$$CBVQString@@V?$vector@PEAVQAction@@V?$allocator@PEAVQAction@@@std@@@std@@@std@@PEAX@std@@_N@std@@QEAA@$$QEAPEAU?$_Tree_node@U?$pair@$$CBVQString@@V?$vector@PEAVQAction@@V?$allocator@PEAVQAction@@@std@@@std@@@std@@PEAX@1@$$QEA_N@Z
	??$?0PEAU?$_Tree_node@U?$pair@QEAVQAction@@M@std@@PEAX@std@@_N$0A@@?$pair@PEAU?$_Tree_node@U?$pair@QEAVQAction@@M@std@@PEAX@std@@_N@std@@QEAA@$$QEAPEAU?$_Tree_node@U?$pair@QEAVQAction@@M@std@@PEAX@1@$$QEA_N@Z
	??$?0PEAU?$_Tree_node@U?$pair@QEAVQGLContext@@V?$PerViewData@UMLPerViewGLOptions@@@vcg@@@std@@PEAX@std@@_N$0A@@?$pair@PEAU?$_Tree_node@U?$pair@QEAVQGLContext@@V?$PerViewData@UMLPerViewGLOptions@@@vcg@@@std@@PEAX@std@@_N@std@@QEAA@$$QEAPEAU?$_Tree_node@U?$pair@QEAVQGLContext@@V?$PerViewData@UMLPerViewGLOptions@@@vcg@@@std@@PEAX@1@$$QEA_N@Z
	??$?0PEAU?$_Tree_node@VFunction@pymeshlab@@PEAX@std@@_N$0A@@?$pair@PEAU?$_Tree_node@VFunction@pymeshlab@@PEAX@std@@_N@std@@QEAA@$$QEAPEAU?$_Tree_node@VFunction@pymeshlab@@PEAX@1@$$QEA_N@Z
	??$?0PEAU?$_Tree_node@VPointerToAttribute@vcg@@PEAX@std@@_N$0A@@?$pair@PEAU?$_Tree_node@VPointerToAttribute@vcg@@PEAX@std@@_N@std@@QEAA@$$QEAPEAU?$_Tree_node@VPointerToAttribute@vcg@@PEAX@1@$$QEA_N@Z
	??$?0PEAU?$_Tree_node@VQString@@PEAX@std@@_N$0A@@?$pair@PEAU?$_Tree_node@VQString@@PEAX@std@@_N@std@@QEAA@$$QEAPEAU?$_Tree_node@VQString@@PEAX@1@$$QEA_N@Z
	??$?0PEAUGLBufferObject@?$NotThreadSafeGLMeshAttributesMultiViewerBOManager@VCMeshO@@PEAVQGLContext@@UMLPerViewGLOptions@@@vcg@@@?$allocator@U_Container_proxy@std@@@std@@QEAA@AEBV?$allocator@PEAUGLBufferObject@?$NotThreadSafeGLMeshAttributesMultiViewerBOManager@VCMeshO@@PEAVQGLContext@@UMLPerViewGLOptions@@@vcg@@@1@@Z
	??$?0PEAVCFaceO@@@?$allocator@U_Container_proxy@std@@@std@@QEAA@AEBV?$allocator@PEAVCFaceO@@@1@@Z
	??$?0PEAVCVertexO@@@?$allocator@U_Container_proxy@std@@@std@@QEAA@AEBV?$allocator@PEAVCVertexO@@@1@@Z
	??$?0PEAVDecoratePlugin@@@?$allocator@U_Container_proxy@std@@@std@@QEAA@AEBV?$allocator@PEAVDecoratePlugin@@@1@@Z
	??$?0PEAVEditPlugin@@@?$allocator@U_Container_proxy@std@@@std@@QEAA@AEBV?$allocator@PEAVEditPlugin@@@1@@Z
	??$?0PEAVFilterPlugin@@@?$allocator@U_Container_proxy@std@@@std@@QEAA@AEBV?$allocator@PEAVFilterPlugin@@@1@@Z
	??$?0PEAVIOPlugin@@@?$allocator@U_Container_proxy@std@@@std@@QEAA@AEBV?$allocator@PEAVIOPlugin@@@1@@Z
	??$?0PEAVMeshLabPlugin@@@?$allocator@U_Container_proxy@std@@@std@@QEAA@AEBV?$allocator@PEAVMeshLabPlugin@@@1@@Z
	??$?0PEAVMeshModel@@@?$_List_node_emplace_op2@V?$allocator@U?$_List_node@PEAVMeshModel@@PEAX@std@@@std@@@std@@QEAA@AEAV?$allocator@U?$_List_node@PEAVMeshModel@@PEAX@std@@@1@$$QEAPEAVMeshModel@@@Z
	??$?0PEAVPVertex@vcg@@@?$allocator@U_Container_proxy@std@@@std@@QEAA@AEBV?$allocator@PEAVPVertex@vcg@@@1@@Z
	??$?0PEAVQAction@@@?$allocator@U_Container_proxy@std@@@std@@QEAA@AEBV?$allocator@PEAVQAction@@@1@@Z
	??$?0PEAVQPluginLoader@@@?$allocator@U_Container_proxy@std@@@std@@QEAA@AEBV?$allocator@PEAVQPluginLoader@@@1@@Z
	??$?0PEAVRenderPlugin@@@?$allocator@U_Container_proxy@std@@@std@@QEAA@AEBV?$allocator@PEAVRenderPlugin@@@1@@Z
	??$?0PEAVRichParameter@@@?$_List_node_emplace_op2@V?$allocator@U?$_List_node@PEAVRichParameter@@PEAX@std@@@std@@@std@@QEAA@AEAV?$allocator@U?$_List_node@PEAVRichParameter@@PEAX@std@@@1@$$QEAPEAVRichParameter@@@Z
	??$?0PEBVQString@@$00@?$QList@VQString@@@@QEAA@PEBVQString@@0@Z
	??$?0U?$CurvatureDirOcfBaseType@M@face@vcg@@@?$allocator@U_Container_proxy@std@@@std@@QEAA@AEBV?$allocator@U?$CurvatureDirOcfBaseType@M@face@vcg@@@1@@Z
	??$?0U?$CurvatureDirTypeOcf@M@vertex@vcg@@@?$allocator@U_Container_proxy@std@@@std@@QEAA@AEBV?$allocator@U?$CurvatureDirTypeOcf@M@vertex@vcg@@@1@@Z
	??$?0U?$_List_node@HPEAX@std@@@?$allocator@U_Container_proxy@std@@@std@@QEAA@AEBV?$allocator@U?$_List_node@HPEAX@std@@@1@@Z
	??$?0U?$_List_node@PEAVMeshModel@@PEAX@std@@@?$allocator@U_Container_proxy@std@@@std@@QEAA@AEBV?$allocator@U?$_List_node@PEAVMeshModel@@PEAX@std@@@1@@Z
	??$?0U?$_List_node@PEAVQAction@@PEAX@std@@@?$allocator@U_Container_proxy@std@@@std@@QEAA@AEBV?$allocator@U?$_List_node@PEAVQAction@@PEAX@std@@@1@@Z
	??$?0U?$_List_node@PEAVRichParameter@@PEAX@std@@@?$allocator@U_Container_proxy@std@@@std@@QEAA@AEBV?$allocator@U?$_List_node@PEAVRichParameter@@PEAX@std@@@1@@Z
	??$?0U?$_List_node@U?$pair@VQString@@V1@@std@@PEAX@std@@@?$allocator@U_Container_proxy@std@@@std@@QEAA@AEBV?$allocator@U?$_List_node@U?$pair@VQString@@V1@@std@@PEAX@std@@@1@@Z
	??$?0U?$_List_node@V?$Matrix@I$0?0$00$0A@$0?0$00@Eigen@@PEAX@std@@@?$allocator@U_Container_proxy@std@@@std@@QEAA@AEBV?$allocator@U?$_List_node@V?$Matrix@I$0?0$00$0A@$0?0$00@Eigen@@PEAX@std@@@1@@Z
	??$?0U?$_List_node@V?$basic_string@DU?$char_traits@D@std@@V?$allocator@D@2@@std@@PEAX@std@@@?$allocator@U_Container_proxy@std@@@std@@QEAA@AEBV?$allocator@U?$_List_node@V?$basic_string@DU?$char_traits@D@std@@V?$allocator@D@2@@std@@PEAX@std@@@1@@Z
	??$?0U?$_List_node@VFileFormat@@PEAX@std@@@?$allocator@U_Container_proxy@std@@@std@@QEAA@AEBV?$allocator@U?$_List_node@VFileFormat@@PEAX@std@@@1@@Z
	??$?0U?$_List_node@VFunctionParameter@pymeshlab@@PEAX@std@@@?$allocator@U_Container_proxy@std@@@std@@QEAA@AEBV?$allocator@U?$_List_node@VFunctionParameter@pymeshlab@@PEAX@std@@@1@@Z
	??$?0U?$_List_node@VMeshModel@@PEAX@std@@@?$allocator@U_Container_proxy@std@@@std@@QEAA@AEBV?$allocator@U?$_List_node@VMeshModel@@PEAX@std@@@1@@Z
	??$?0U?$_List_node@VRasterModel@@PEAX@std@@@?$allocator@U_Container_proxy@std@@@std@@QEAA@AEBV?$allocator@U?$_List_node@VRasterModel@@PEAX@std@@@1@@Z
	??$?0U?$_Tree_node@U?$pair@$$CBFV?$vector@U?$pair@II@std@@V?$allocator@U?$pair@II@std@@@2@@std@@@std@@PEAX@std@@@?$allocator@U_Container_proxy@std@@@std@@QEAA@AEBV?$allocator@U?$_Tree_node@U?$pair@$$CBFV?$vector@U?$pair@II@std@@V?$allocator@U?$pair@II@std@@@2@@std@@@std@@PEAX@std@@@1@@Z
	??$?0U?$_Tree_node@U?$pair@$$CBHPEAV?$QtThreadSafeGLMeshAttributesMultiViewerBOManager@VCMeshO@@PEAVQGLContext@@UMLPerViewGLOptions@@@vcg@@@std@@PEAX@std@@@?$allocator@U_Container_proxy@std@@@std@@QEAA@AEBV?$allocator@U?$_Tree_node@U?$pair@$$CBHPEAV?$QtThreadSafeGLMeshAttributesMultiViewerBOManager@VCMeshO@@PEAVQGLContext@@UMLPerViewGLOptions@@@vcg@@@std@@PEAX@std@@@1@@Z
	??$?0U?$_Tree_node@U?$pair@$$CBMV?$vector@PEAVQAction@@V?$allocator@PEAVQAction@@@std@@@std@@@std@@PEAX@std@@@?$allocator@U_Container_proxy@std@@@std@@QEAA@AEBV?$allocator@U?$_Tree_node@U?$pair@$$CBMV?$vector@PEAVQAction@@V?$allocator@PEAVQAction@@@std@@@std@@@std@@PEAX@std@@@1@@Z
	??$?0U?$_Tree_node@U?$pair@$$CBV?$basic_string@DU?$char_traits@D@std@@V?$allocator@D@2@@std@@VQImage@@@std@@PEAX@std@@@?$allocator@U_Container_proxy@std@@@std@@QEAA@AEBV?$allocator@U?$_Tree_node@U?$pair@$$CBV?$basic_string@DU?$char_traits@D@std@@V?$allocator@D@2@@std@@VQImage@@@std@@PEAX@std@@@1@@Z
	??$?0U?$_Tree_node@U?$pair@$$CBVQString@@V?$vector@PEAVQAction@@V?$allocator@PEAVQAction@@@std@@@std@@@std@@PEAX@std@@@?$allocator@U_Container_proxy@std@@@std@@QEAA@AEBV?$allocator@U?$_Tree_node@U?$pair@$$CBVQString@@V?$vector@PEAVQAction@@V?$allocator@PEAVQAction@@@std@@@std@@@std@@PEAX@std@@@1@@Z
	??$?0U?$_Tree_node@U?$pair@QEAVQAction@@M@std@@PEAX@std@@@?$allocator@U_Container_proxy@std@@@std@@QEAA@AEBV?$allocator@U?$_Tree_node@U?$pair@QEAVQAction@@M@std@@PEAX@std@@@1@@Z
	??$?0U?$_Tree_node@U?$pair@QEAVQGLContext@@V?$PerViewData@UMLPerViewGLOptions@@@vcg@@@std@@PEAX@std@@@?$allocator@U_Container_proxy@std@@@std@@QEAA@AEBV?$allocator@U?$_Tree_node@U?$pair@QEAVQGLContext@@V?$PerViewData@UMLPerViewGLOptions@@@vcg@@@std@@PEAX@std@@@1@@Z
	??$?0U?$_Tree_node@VFunction@pymeshlab@@PEAX@std@@@?$allocator@U_Container_proxy@std@@@std@@QEAA@AEBV?$allocator@U?$_Tree_node@VFunction@pymeshlab@@PEAX@std@@@1@@Z
	??$?0U?$_Tree_node@VPointerToAttribute@vcg@@PEAX@std@@@?$allocator@U_Container_proxy@std@@@std@@QEAA@AEBV?$allocator@U?$_Tree_node@VPointerToAttribute@vcg@@PEAX@std@@@1@@Z
	??$?0U?$_Tree_node@VQString@@PEAX@std@@@?$allocator@U_Container_proxy@std@@@std@@QEAA@AEBV?$allocator@U?$_Tree_node@VQString@@PEAX@std@@@1@@Z
	??$?0U?$less@V?$basic_string@DU?$char_traits@D@std@@V?$allocator@D@2@@std@@@std@@U_One_then_variadic_args_t@1@V?$allocator@U?$_Tree_node@U?$pair@$$CBV?$basic_string@DU?$char_traits@D@std@@V?$allocator@D@2@@std@@VQImage@@@std@@PEAX@std@@@1@@?$_Compressed_pair@U?$less@V?$basic_string@DU?$char_traits@D@std@@V?$allocator@D@2@@std@@@std@@V?$_Compressed_pair@V?$allocator@U?$_Tree_node@U?$pair@$$CBV?$basic_string@DU?$char_traits@D@std@@V?$allocator@D@2@@std@@VQImage@@@std@@PEAX@std@@@std@@V?$_Tree_val@U?$_Tree_simple_types@U?$pair@$$CBV?$basic_string@DU?$char_traits@D@std@@V?$allocator@D@2@@std@@VQImage@@@std@@@std@@@2@$00@2@$00@std@@QEAA@U_One_then_variadic_args_t@1@$$QEAU?$less@V?$basic_string@DU?$char_traits@D@std@@V?$allocator@D@2@@std@@@1@$$QEAU21@$$QEAV?$allocator@U?$_Tree_node@U?$pair@$$CBV?$basic_string@DU?$char_traits@D@std@@V?$allocator@D@2@@std@@VQImage@@@std@@PEAX@std@@@1@@Z
	??$?0U?$pair@FI@std@@@?$allocator@U_Container_proxy@std@@@std@@QEAA@AEBV?$allocator@U?$pair@FI@std@@@1@@Z
	??$?0U?$pair@II@std@@@?$allocator@U_Container_proxy@std@@@std@@QEAA@AEBV?$allocator@U?$pair@II@std@@@1@@Z
	??$?0U?$pair@VQString@@V1@@std@@@?$_List_node_emplace_op2@V?$allocator@U?$_List_node@U?$pair@VQString@@V1@@std@@PEAX@std@@@std@@@std@@QEAA@AEAV?$allocator@U?$_List_node@U?$pair@VQString@@V1@@std@@PEAX@std@@@1@$$QEAU?$pair@VQString@@V1@@1@@Z
	??$?0UAdjTypePack@?$vector_ocf@VCFaceO@@@face@vcg@@@?$allocator@U_Container_proxy@std@@@std@@QEAA@AEBV?$allocator@UAdjTypePack@?$vector_ocf@VCFaceO@@@face@vcg@@@1@@Z
	??$?0UVFAdjType@?$vector_ocf@VCVertexO@@@vertex@vcg@@@?$allocator@U_Container_proxy@std@@@std@@QEAA@AEBV?$allocator@UVFAdjType@?$vector_ocf@VCVertexO@@@vertex@vcg@@@1@@Z
	??$?0U_Exact_args_t@std@@$0A@@?$tuple@$$V@std@@QEAA@U_Exact_args_t@1@@Z
	??$?0U_Exact_args_t@std@@AEBF$$V$0A@@?$tuple@AEBF@std@@QEAA@U_Exact_args_t@1@AEBF@Z
	??$?0U_Exact_args_t@std@@AEBH$$V$0A@@?$tuple@AEBH@std@@QEAA@U_Exact_args_t@1@AEBH@Z
	??$?0U_Exact_args_t@std@@AEBM$$V$0A@@?$tuple@AEBM@std@@QEAA@U_Exact_args_t@1@AEBM@Z
	??$?0U_Exact_args_t@std@@AEBQEAVQAction@@$$V$0A@@?$tuple@AEBQEAVQAction@@@std@@QEAA@U_Exact_args_t@1@AEBQEAVQAction@@@Z
	??$?0U_Exact_args_t@std@@AEBQEAVQGLContext@@$$V$0A@@?$tuple@AEBQEAVQGLContext@@@std@@QEAA@U_Exact_args_t@1@AEBQEAVQGLContext@@@Z
	??$?0U_Exact_args_t@std@@AEBV?$basic_string@DU?$char_traits@D@std@@V?$allocator@D@2@@1@$$V$0A@@?$tuple@AEBV?$basic_string@DU?$char_traits@D@std@@V?$allocator@D@2@@std@@@std@@QEAA@U_Exact_args_t@1@AEBV?$basic_string@DU?$char_traits@D@std@@V?$allocator@D@2@@1@@Z
	??$?0U_Exact_args_t@std@@AEBVQString@@$$V$0A@@?$tuple@AEBVQString@@@std@@QEAA@U_Exact_args_t@1@AEBVQString@@@Z
	??$?0U_Exact_args_t@std@@F$$V$0A@@?$tuple@$$QEAF@std@@QEAA@U_Exact_args_t@1@$$QEAF@Z
	??$?0V?$Color4@E@vcg@@@?$allocator@U_Container_proxy@std@@@std@@QEAA@AEBV?$allocator@V?$Color4@E@vcg@@@1@@Z
	??$?0V?$HEdge@V?$UsedTypes@UAsVertexType@?$Use@VCVertexO@@@vcg@@UAsEdgeType@?$Use@VCEdgeO@@@3@UAsFaceType@?$Use@VCFaceO@@@3@VDefaultDeriver@3@V83@V83@V83@V83@@vcg@@VDefaultDeriver@2@V32@V32@V32@V32@V32@V32@V32@V32@V32@V32@@vcg@@@?$allocator@U_Container_proxy@std@@@std@@QEAA@AEBV?$allocator@V?$HEdge@V?$UsedTypes@UAsVertexType@?$Use@VCVertexO@@@vcg@@UAsEdgeType@?$Use@VCEdgeO@@@3@UAsFaceType@?$Use@VCFaceO@@@3@VDefaultDeriver@3@V83@V83@V83@V83@@vcg@@VDefaultDeriver@2@V32@V32@V32@V32@V32@V32@V32@V32@V32@V32@@vcg@@@1@@Z
	??$?0V?$HEdge@V?$UsedTypes@UAsVertexType@?$Use@VPVertex@vcg@@@vcg@@UAsEdgeType@?$Use@VPEdge@vcg@@@3@UAsFaceType@?$Use@VPFace@vcg@@@3@VDefaultDeriver@3@V83@V83@V83@V83@@vcg@@VDefaultDeriver@2@V32@V32@V32@V32@V32@V32@V32@V32@V32@V32@@vcg@@@?$allocator@U_Container_proxy@std@@@std@@QEAA@AEBV?$allocator@V?$HEdge@V?$UsedTypes@UAsVertexType@?$Use@VPVertex@vcg@@@vcg@@UAsEdgeType@?$Use@VPEdge@vcg@@@3@UAsFaceType@?$Use@VPFace@vcg@@@3@VDefaultDeriver@3@V83@V83@V83@V83@@vcg@@VDefaultDeriver@2@V32@V32@V32@V32@V32@V32@V32@V32@V32@V32@@vcg@@@1@@Z
	??$?0V?$Matrix@H$0?0$0?0$0A@$0?0$0?0@Eigen@@@?$Matrix@H$0?0$01$0A@$0?0$01@Eigen@@QEAA@AEBU?$EigenBase@V?$Matrix@H$0?0$0?0$0A@$0?0$0?0@Eigen@@@1@@Z
	??$?0V?$Matrix@H$0?0$0?0$0A@$0?0$0?0@Eigen@@@?$Matrix@H$0?0$02$0A@$0?0$02@Eigen@@QEAA@AEBU?$EigenBase@V?$Matrix@H$0?0$0?0$0A@$0?0$0?0@Eigen@@@1@@Z
	??$?0V?$Matrix@H$0?0$0?0$0A@$0?0$0?0@Eigen@@@?$PlainObjectBase@V?$Matrix@H$0?0$01$0A@$0?0$01@Eigen@@@Eigen@@IEAA@AEBV?$DenseBase@V?$Matrix@H$0?0$0?0$0A@$0?0$0?0@Eigen@@@1@@Z
	??$?0V?$Matrix@H$0?0$0?0$0A@$0?0$0?0@Eigen@@@?$PlainObjectBase@V?$Matrix@H$0?0$02$0A@$0?0$02@Eigen@@@Eigen@@IEAA@AEBV?$DenseBase@V?$Matrix@H$0?0$0?0$0A@$0?0$0?0@Eigen@@@1@@Z
	??$?0V?$Point2@M@vcg@@@?$allocator@U_Container_proxy@std@@@std@@QEAA@AEBV?$allocator@V?$Point2@M@vcg@@@1@@Z
	??$?0V?$Point3@M@vcg@@@?$allocator@U_Container_proxy@std@@@std@@QEAA@AEBV?$allocator@V?$Point3@M@vcg@@@1@@Z
	??$?0V?$TetraSimp@V?$UsedTypes@UAsVertexType@?$Use@VCVertexO@@@vcg@@UAsEdgeType@?$Use@VCEdgeO@@@3@UAsFaceType@?$Use@VCFaceO@@@3@VDefaultDeriver@3@V83@V83@V83@V83@@vcg@@VDefaultDeriver@2@V32@V32@V32@V32@V32@V32@V32@V32@V32@V32@V32@@vcg@@@?$allocator@U_Container_proxy@std@@@std@@QEAA@AEBV?$allocator@V?$TetraSimp@V?$UsedTypes@UAsVertexType@?$Use@VCVertexO@@@vcg@@UAsEdgeType@?$Use@VCEdgeO@@@3@UAsFaceType@?$Use@VCFaceO@@@3@VDefaultDeriver@3@V83@V83@V83@V83@@vcg@@VDefaultDeriver@2@V32@V32@V32@V32@V32@V32@V32@V32@V32@V32@V32@@vcg@@@1@@Z
	??$?0V?$TetraSimp@V?$UsedTypes@UAsVertexType@?$Use@VPVertex@vcg@@@vcg@@UAsEdgeType@?$Use@VPEdge@vcg@@@3@UAsFaceType@?$Use@VPFace@vcg@@@3@VDefaultDeriver@3@V83@V83@V83@V83@@vcg@@VDefaultDeriver@2@V32@V32@V32@V32@V32@V32@V32@V32@V32@V32@V32@@vcg@@@?$allocator@U_Container_proxy@std@@@std@@QEAA@AEBV?$allocator@V?$TetraSimp@V?$UsedTypes@UAsVertexType@?$Use@VPVertex@vcg@@@vcg@@UAsEdgeType@?$Use@VPEdge@vcg@@@3@UAsFaceType@?$Use@VPFace@vcg@@@3@VDefaultDeriver@3@V83@V83@V83@V83@@vcg@@VDefaultDeriver@2@V32@V32@V32@V32@V32@V32@V32@V32@V32@V32@V32@@vcg@@@1@@Z
	??$?0V?$TexCoord2@M$00@vcg@@@?$allocator@U_Container_proxy@std@@@std@@QEAA@AEBV?$allocator@V?$TexCoord2@M$00@vcg@@@1@@Z
	??$?0V?$_Tree_const_iterator@V?$_Tree_val@U?$_Tree_simple_types@VFunction@pymeshlab@@@std@@@std@@@std@@AEB_N$0A@@?$pair@V?$_Tree_const_iterator@V?$_Tree_val@U?$_Tree_simple_types@VFunction@pymeshlab@@@std@@@std@@@std@@_N@std@@QEAA@$$QEAV?$_Tree_const_iterator@V?$_Tree_val@U?$_Tree_simple_types@VFunction@pymeshlab@@@std@@@std@@@1@AEB_N@Z
	??$?0V?$_Tree_const_iterator@V?$_Tree_val@U?$_Tree_simple_types@VPointerToAttribute@vcg@@@std@@@std@@@std@@AEB_N$0A@@?$pair@V?$_Tree_const_iterator@V?$_Tree_val@U?$_Tree_simple_types@VPointerToAttribute@vcg@@@std@@@std@@@std@@_N@std@@QEAA@$$QEAV?$_Tree_const_iterator@V?$_Tree_val@U?$_Tree_simple_types@VPointerToAttribute@vcg@@@std@@@std@@@1@AEB_N@Z
	??$?0V?$_Tree_const_iterator@V?$_Tree_val@U?$_Tree_simple_types@VQString@@@std@@@std@@@std@@AEB_N$0A@@?$pair@V?$_Tree_const_iterator@V?$_Tree_val@U?$_Tree_simple_types@VQString@@@std@@@std@@@std@@_N@std@@QEAA@$$QEAV?$_Tree_const_iterator@V?$_Tree_val@U?$_Tree_simple_types@VQString@@@std@@@std@@@1@AEB_N@Z
	??$?0V?$allocator@D@std@@$$V@?$_Compressed_pair@V?$allocator@D@std@@V?$_String_val@U?$_Simple_types@D@std@@@2@$00@std@@QEAA@U_One_then_variadic_args_t@1@$$QEAV?$allocator@D@1@@Z
	??$?0V?$allocator@H@std@@PEAHPEAHPEAH@?$_Compressed_pair@V?$allocator@H@std@@V?$_Vector_val@U?$_Simple_types@H@std@@@2@$00@std@@QEAA@U_One_then_variadic_args_t@1@$$QEAV?$allocator@H@1@$$QEAPEAH22@Z
	??$?0V?$allocator@M@std@@PEAMPEAMPEAM@?$_Compressed_pair@V?$allocator@M@std@@V?$_Vector_val@U?$_Simple_types@M@std@@@2@$00@std@@QEAA@U_One_then_variadic_args_t@1@$$QEAV?$allocator@M@1@$$QEAPEAM22@Z
	??$?0V?$allocator@PEAVQAction@@@std@@$$V@?$_Compressed_pair@V?$allocator@PEAVQAction@@@std@@V?$_Vector_val@U?$_Simple_types@PEAVQAction@@@std@@@2@$00@std@@QEAA@U_One_then_variadic_args_t@1@$$QEAV?$allocator@PEAVQAction@@@1@@Z
	??$?0V?$allocator@PEAVQAction@@@std@@PEAPEAVQAction@@PEAPEAV2@PEAPEAV2@@?$_Compressed_pair@V?$allocator@PEAVQAction@@@std@@V?$_Vector_val@U?$_Simple_types@PEAVQAction@@@std@@@2@$00@std@@QEAA@U_One_then_variadic_args_t@1@$$QEAV?$allocator@PEAVQAction@@@1@$$QEAPEAPEAVQAction@@22@Z
	??$?0V?$allocator@U?$CurvatureDirOcfBaseType@M@face@vcg@@@std@@PEAU?$CurvatureDirOcfBaseType@M@face@vcg@@PEAU234@PEAU234@@?$_Compressed_pair@V?$allocator@U?$CurvatureDirOcfBaseType@M@face@vcg@@@std@@V?$_Vector_val@U?$_Simple_types@U?$CurvatureDirOcfBaseType@M@face@vcg@@@std@@@2@$00@std@@QEAA@U_One_then_variadic_args_t@1@$$QEAV?$allocator@U?$CurvatureDirOcfBaseType@M@face@vcg@@@1@$$QEAPEAU?$CurvatureDirOcfBaseType@M@face@vcg@@22@Z
	??$?0V?$allocator@U?$CurvatureDirTypeOcf@M@vertex@vcg@@@std@@PEAU?$CurvatureDirTypeOcf@M@vertex@vcg@@PEAU234@PEAU234@@?$_Compressed_pair@V?$allocator@U?$CurvatureDirTypeOcf@M@vertex@vcg@@@std@@V?$_Vector_val@U?$_Simple_types@U?$CurvatureDirTypeOcf@M@vertex@vcg@@@std@@@2@$00@std@@QEAA@U_One_then_variadic_args_t@1@$$QEAV?$allocator@U?$CurvatureDirTypeOcf@M@vertex@vcg@@@1@$$QEAPEAU?$CurvatureDirTypeOcf@M@vertex@vcg@@22@Z
	??$?0V?$allocator@U?$_List_node@PEAVMeshModel@@PEAX@std@@@std@@$$V@?$_Compressed_pair@V?$allocator@U?$_List_node@PEAVMeshModel@@PEAX@std@@@std@@V?$_List_val@U?$_List_simple_types@PEAVMeshModel@@@std@@@2@$00@std@@QEAA@U_One_then_variadic_args_t@1@$$QEAV?$allocator@U?$_List_node@PEAVMeshModel@@PEAX@std@@@1@@Z
	??$?0V?$allocator@U?$_List_node@V?$Matrix@I$0?0$00$0A@$0?0$00@Eigen@@PEAX@std@@@std@@$$V@?$_Compressed_pair@V?$allocator@U?$_List_node@V?$Matrix@I$0?0$00$0A@$0?0$00@Eigen@@PEAX@std@@@std@@V?$_List_val@U?$_List_simple_types@V?$Matrix@I$0?0$00$0A@$0?0$00@Eigen@@@std@@@2@$00@std@@QEAA@U_One_then_variadic_args_t@1@$$QEAV?$allocator@U?$_List_node@V?$Matrix@I$0?0$00$0A@$0?0$00@Eigen@@PEAX@std@@@1@@Z
	??$?0V?$allocator@U?$_List_node@V?$basic_string@DU?$char_traits@D@std@@V?$allocator@D@2@@std@@PEAX@std@@@std@@$$V@?$_Compressed_pair@V?$allocator@U?$_List_node@V?$basic_string@DU?$char_traits@D@std@@V?$allocator@D@2@@std@@PEAX@std@@@std@@V?$_List_val@U?$_List_simple_types@V?$basic_string@DU?$char_traits@D@std@@V?$allocator@D@2@@std@@@std@@@2@$00@std@@QEAA@U_One_then_variadic_args_t@1@$$QEAV?$allocator@U?$_List_node@V?$basic_string@DU?$char_traits@D@std@@V?$allocator@D@2@@std@@PEAX@std@@@1@@Z
	??$?0V?$allocator@U?$_List_node@VFunctionParameter@pymeshlab@@PEAX@std@@@std@@$$V@?$_Compressed_pair@V?$allocator@U?$_List_node@VFunctionParameter@pymeshlab@@PEAX@std@@@std@@V?$_List_val@U?$_List_simple_types@VFunctionParameter@pymeshlab@@@std@@@2@$00@std@@QEAA@U_One_then_variadic_args_t@1@$$QEAV?$allocator@U?$_List_node@VFunctionParameter@pymeshlab@@PEAX@std@@@1@@Z
	??$?0V?$allocator@U?$_Tree_node@U?$pair@$$CBV?$basic_string@DU?$char_traits@D@std@@V?$allocator@D@2@@std@@VQImage@@@std@@PEAX@std@@@std@@$$V@?$_Compressed_pair@V?$allocator@U?$_Tree_node@U?$pair@$$CBV?$basic_string@DU?$char_traits@D@std@@V?$allocator@D@2@@std@@VQImage@@@std@@PEAX@std@@@std@@V?$_Tree_val@U?$_Tree_simple_types@U?$pair@$$CBV?$basic_string@DU?$char_traits@D@std@@V?$allocator@D@2@@std@@VQImage@@@std@@@std@@@2@$00@std@@QEAA@U_One_then_variadic_args_t@1@$$QEAV?$allocator@U?$_Tree_node@U?$pair@$$CBV?$basic_string@DU?$char_traits@D@std@@V?$allocator@D@2@@std@@VQImage@@@std@@PEAX@std@@@1@@Z
	??$?0V?$allocator@U?$_Tree_node@U?$pair@$$CBV?$basic_string@DU?$char_traits@D@std@@V?$allocator@D@2@@std@@VQImage@@@std@@PEAX@std@@@std@@@?$_Tree@V?$_Tmap_traits@V?$basic_string@DU?$char_traits@D@std@@V?$allocator@D@2@@std@@VQImage@@U?$less@V?$basic_string@DU?$char_traits@D@std@@V?$allocator@D@2@@std@@@2@V?$allocator@U?$pair@$$CBV?$basic_string@DU?$char_traits@D@std@@V?$allocator@D@2@@std@@VQImage@@@std@@@2@$0A@@std@@@std@@QEAA@AEBV01@$$QEAV?$allocator@U?$_Tree_node@U?$pair@$$CBV?$basic_string@DU?$char_traits@D@std@@V?$allocator@D@2@@std@@VQImage@@@std@@PEAX@std@@@1@@Z
	??$?0V?$allocator@UAdjTypePack@?$vector_ocf@VCFaceO@@@face@vcg@@@std@@PEAUAdjTypePack@?$vector_ocf@VCFaceO@@@face@vcg@@PEAU2345@PEAU2345@@?$_Compressed_pair@V?$allocator@UAdjTypePack@?$vector_ocf@VCFaceO@@@face@vcg@@@std@@V?$_Vector_val@U?$_Simple_types@UAdjTypePack@?$vector_ocf@VCFaceO@@@face@vcg@@@std@@@2@$00@std@@QEAA@U_One_then_variadic_args_t@1@$$QEAV?$allocator@UAdjTypePack@?$vector_ocf@VCFaceO@@@face@vcg@@@1@$$QEAPEAUAdjTypePack@?$vector_ocf@VCFaceO@@@face@vcg@@22@Z
	??$?0V?$allocator@UVFAdjType@?$vector_ocf@VCVertexO@@@vertex@vcg@@@std@@PEAUVFAdjType@?$vector_ocf@VCVertexO@@@vertex@vcg@@PEAU2345@PEAU2345@@?$_Compressed_pair@V?$allocator@UVFAdjType@?$vector_ocf@VCVertexO@@@vertex@vcg@@@std@@V?$_Vector_val@U?$_Simple_types@UVFAdjType@?$vector_ocf@VCVertexO@@@vertex@vcg@@@std@@@2@$00@std@@QEAA@U_One_then_variadic_args_t@1@$$QEAV?$allocator@UVFAdjType@?$vector_ocf@VCVertexO@@@vertex@vcg@@@1@$$QEAPEAUVFAdjType@?$vector_ocf@VCVertexO@@@vertex@vcg@@22@Z
	??$?0V?$allocator@V?$Color4@E@vcg@@@std@@PEAV?$Color4@E@vcg@@PEAV23@PEAV23@@?$_Compressed_pair@V?$allocator@V?$Color4@E@vcg@@@std@@V?$_Vector_val@U?$_Simple_types@V?$Color4@E@vcg@@@std@@@2@$00@std@@QEAA@U_One_then_variadic_args_t@1@$$QEAV?$allocator@V?$Color4@E@vcg@@@1@$$QEAPEAV?$Color4@E@vcg@@22@Z
	??$?0V?$allocator@V?$Point2@M@vcg@@@std@@PEAV?$Point2@M@vcg@@PEAV23@PEAV23@@?$_Compressed_pair@V?$allocator@V?$Point2@M@vcg@@@std@@V?$_Vector_val@U?$_Simple_types@V?$Point2@M@vcg@@@std@@@2@$00@std@@QEAA@U_One_then_variadic_args_t@1@$$QEAV?$allocator@V?$Point2@M@vcg@@@1@$$QEAPEAV?$Point2@M@vcg@@22@Z
	??$?0V?$allocator@V?$Point3@M@vcg@@@std@@PEAV?$Point3@M@vcg@@PEAV23@PEAV23@@?$_Compressed_pair@V?$allocator@V?$Point3@M@vcg@@@std@@V?$_Vector_val@U?$_Simple_types@V?$Point3@M@vcg@@@std@@@2@$00@std@@QEAA@U_One_then_variadic_args_t@1@$$QEAV?$allocator@V?$Point3@M@vcg@@@1@$$QEAPEAV?$Point3@M@vcg@@22@Z
	??$?0V?$allocator@V?$TexCoord2@M$00@vcg@@@std@@PEAV?$TexCoord2@M$00@vcg@@PEAV23@PEAV23@@?$_Compressed_pair@V?$allocator@V?$TexCoord2@M$00@vcg@@@std@@V?$_Vector_val@U?$_Simple_types@V?$TexCoord2@M$00@vcg@@@std@@@2@$00@std@@QEAA@U_One_then_variadic_args_t@1@$$QEAV?$allocator@V?$TexCoord2@M$00@vcg@@@1@$$QEAPEAV?$TexCoord2@M$00@vcg@@22@Z
	??$?0V?$allocator@VCFaceO@@@std@@PEAVCFaceO@@PEAV2@PEAV2@@?$_Compressed_pair@V?$allocator@VCFaceO@@@std@@V?$_Vector_val@U?$_Simple_types@VCFaceO@@@std@@@2@$00@std@@QEAA@U_One_then_variadic_args_t@1@$$QEAV?$allocator@VCFaceO@@@1@$$QEAPEAVCFaceO@@22@Z
	??$?0V?$allocator@VCVertexO@@@std@@PEAVCVertexO@@PEAV2@PEAV2@@?$_Compressed_pair@V?$allocator@VCVertexO@@@std@@V?$_Vector_val@U?$_Simple_types@VCVertexO@@@std@@@2@$00@std@@QEAA@U_One_then_variadic_args_t@1@$$QEAV?$allocator@VCVertexO@@@1@$$QEAPEAVCVertexO@@22@Z
	??$?0V?$allocator@VInternalRendAtts@GLMeshAttributesInfo@vcg@@@std@@$$V@?$_Compressed_pair@V?$allocator@VInternalRendAtts@GLMeshAttributesInfo@vcg@@@std@@V?$_Vector_val@U?$_Simple_types@VInternalRendAtts@GLMeshAttributesInfo@vcg@@@std@@@2@$00@std@@QEAA@U_One_then_variadic_args_t@1@$$QEAV?$allocator@VInternalRendAtts@GLMeshAttributesInfo@vcg@@@1@@Z
	??$?0V?$allocator@VWedgeColorTypePack@?$vector_ocf@VCFaceO@@@face@vcg@@@std@@PEAVWedgeColorTypePack@?$vector_ocf@VCFaceO@@@face@vcg@@PEAV2345@PEAV2345@@?$_Compressed_pair@V?$allocator@VWedgeColorTypePack@?$vector_ocf@VCFaceO@@@face@vcg@@@std@@V?$_Vector_val@U?$_Simple_types@VWedgeColorTypePack@?$vector_ocf@VCFaceO@@@face@vcg@@@std@@@2@$00@std@@QEAA@U_One_then_variadic_args_t@1@$$QEAV?$allocator@VWedgeColorTypePack@?$vector_ocf@VCFaceO@@@face@vcg@@@1@$$QEAPEAVWedgeColorTypePack@?$vector_ocf@VCFaceO@@@face@vcg@@22@Z
	??$?0V?$allocator@VWedgeNormalTypePack@?$vector_ocf@VCFaceO@@@face@vcg@@@std@@PEAVWedgeNormalTypePack@?$vector_ocf@VCFaceO@@@face@vcg@@PEAV2345@PEAV2345@@?$_Compressed_pair@V?$allocator@VWedgeNormalTypePack@?$vector_ocf@VCFaceO@@@face@vcg@@@std@@V?$_Vector_val@U?$_Simple_types@VWedgeNormalTypePack@?$vector_ocf@VCFaceO@@@face@vcg@@@std@@@2@$00@std@@QEAA@U_One_then_variadic_args_t@1@$$QEAV?$allocator@VWedgeNormalTypePack@?$vector_ocf@VCFaceO@@@face@vcg@@@1@$$QEAPEAVWedgeNormalTypePack@?$vector_ocf@VCFaceO@@@face@vcg@@22@Z
	??$?0V?$allocator@VWedgeTexTypePack@?$vector_ocf@VCFaceO@@@face@vcg@@@std@@PEAVWedgeTexTypePack@?$vector_ocf@VCFaceO@@@face@vcg@@PEAV2345@PEAV2345@@?$_Compressed_pair@V?$allocator@VWedgeTexTypePack@?$vector_ocf@VCFaceO@@@face@vcg@@@std@@V?$_Vector_val@U?$_Simple_types@VWedgeTexTypePack@?$vector_ocf@VCFaceO@@@face@vcg@@@std@@@2@$00@std@@QEAA@U_One_then_variadic_args_t@1@$$QEAV?$allocator@VWedgeTexTypePack@?$vector_ocf@VCFaceO@@@face@vcg@@@1@$$QEAPEAVWedgeTexTypePack@?$vector_ocf@VCFaceO@@@face@vcg@@22@Z
	??$?0V?$basic_string@DU?$char_traits@D@std@@V?$allocator@D@2@@std@@@?$_List_node_emplace_op2@V?$allocator@U?$_List_node@V?$basic_string@DU?$char_traits@D@std@@V?$allocator@D@2@@std@@PEAX@std@@@std@@@std@@QEAA@AEAV?$allocator@U?$_List_node@V?$basic_string@DU?$char_traits@D@std@@V?$allocator@D@2@@std@@PEAX@std@@@1@$$QEAV?$basic_string@DU?$char_traits@D@std@@V?$allocator@D@2@@1@@Z
	??$?0V?$basic_string@DU?$char_traits@D@std@@V?$allocator@D@2@@std@@@?$allocator@U_Container_proxy@std@@@std@@QEAA@AEBV?$allocator@V?$basic_string@DU?$char_traits@D@std@@V?$allocator@D@2@@std@@@1@@Z
	??$?0V?$tuple@$$QEAF@std@@V?$tuple@$$V@1@$0A@$$Z$S@?$pair@$$CBFV?$vector@U?$pair@II@std@@V?$allocator@U?$pair@II@std@@@2@@std@@@std@@QEAA@AEAV?$tuple@$$QEAF@1@AEAV?$tuple@$$V@1@U?$integer_sequence@_K$0A@@1@U?$integer_sequence@_K$S@1@@Z
	??$?0V?$tuple@AEBF@std@@V?$tuple@$$V@1@$0A@$$Z$S@?$pair@$$CBFV?$vector@U?$pair@II@std@@V?$allocator@U?$pair@II@std@@@2@@std@@@std@@QEAA@AEAV?$tuple@AEBF@1@AEAV?$tuple@$$V@1@U?$integer_sequence@_K$0A@@1@U?$integer_sequence@_K$S@1@@Z
	??$?0V?$tuple@AEBH@std@@V?$tuple@$$V@1@$0A@$$Z$S@?$pair@$$CBHPEAV?$QtThreadSafeGLMeshAttributesMultiViewerBOManager@VCMeshO@@PEAVQGLContext@@UMLPerViewGLOptions@@@vcg@@@std@@QEAA@AEAV?$tuple@AEBH@1@AEAV?$tuple@$$V@1@U?$integer_sequence@_K$0A@@1@U?$integer_sequence@_K$S@1@@Z
	??$?0V?$tuple@AEBM@std@@V?$tuple@$$V@1@$0A@$$Z$S@?$pair@$$CBMV?$vector@PEAVQAction@@V?$allocator@PEAVQAction@@@std@@@std@@@std@@QEAA@AEAV?$tuple@AEBM@1@AEAV?$tuple@$$V@1@U?$integer_sequence@_K$0A@@1@U?$integer_sequence@_K$S@1@@Z
	??$?0V?$tuple@AEBQEAVQAction@@@std@@V?$tuple@$$V@1@$0A@$$Z$S@?$pair@QEAVQAction@@M@std@@QEAA@AEAV?$tuple@AEBQEAVQAction@@@1@AEAV?$tuple@$$V@1@U?$integer_sequence@_K$0A@@1@U?$integer_sequence@_K$S@1@@Z
	??$?0V?$tuple@AEBQEAVQGLContext@@@std@@V?$tuple@$$V@1@$0A@$$Z$S@?$pair@QEAVQGLContext@@V?$PerViewData@UMLPerViewGLOptions@@@vcg@@@std@@QEAA@AEAV?$tuple@AEBQEAVQGLContext@@@1@AEAV?$tuple@$$V@1@U?$integer_sequence@_K$0A@@1@U?$integer_sequence@_K$S@1@@Z
	??$?0V?$tuple@AEBV?$basic_string@DU?$char_traits@D@std@@V?$allocator@D@2@@std@@@std@@V?$tuple@$$V@1@$0A@$$Z$S@?$pair@$$CBV?$basic_string@DU?$char_traits@D@std@@V?$allocator@D@2@@std@@VQImage@@@std@@QEAA@AEAV?$tuple@AEBV?$basic_string@DU?$char_traits@D@std@@V?$allocator@D@2@@std@@@1@AEAV?$tuple@$$V@1@U?$integer_sequence@_K$0A@@1@U?$integer_sequence@_K$S@1@@Z
	??$?0V?$tuple@AEBVQString@@@std@@V?$tuple@$$V@1@$0A@$$Z$S@?$pair@$$CBVQString@@V?$vector@PEAVQAction@@V?$allocator@PEAVQAction@@@std@@@std@@@std@@QEAA@AEAV?$tuple@AEBVQString@@@1@AEAV?$tuple@$$V@1@U?$integer_sequence@_K$0A@@1@U?$integer_sequence@_K$S@1@@Z
	??$?0V?$vector@IV?$allocator@I@std@@@std@@@?$allocator@U_Container_proxy@std@@@std@@QEAA@AEBV?$allocator@V?$vector@IV?$allocator@I@std@@@std@@@1@@Z
	??$?0VCEdgeO@@@?$allocator@U_Container_proxy@std@@@std@@QEAA@AEBV?$allocator@VCEdgeO@@@1@@Z
	??$?0VCFaceO@@@?$allocator@U_Container_proxy@std@@@std@@QEAA@AEBV?$allocator@VCFaceO@@@1@@Z
	??$?0VCVertexO@@@?$allocator@U_Container_proxy@std@@@std@@QEAA@AEBV?$allocator@VCVertexO@@@1@@Z
	??$?0VEdgeVertInd@?$NotThreadSafeGLMeshAttributesMultiViewerBOManager@VCMeshO@@PEAVQGLContext@@UMLPerViewGLOptions@@@vcg@@@?$allocator@U_Container_proxy@std@@@std@@QEAA@AEBV?$allocator@VEdgeVertInd@?$NotThreadSafeGLMeshAttributesMultiViewerBOManager@VCMeshO@@PEAVQGLContext@@UMLPerViewGLOptions@@@vcg@@@1@@Z
	??$?0VInternalRendAtts@GLMeshAttributesInfo@vcg@@@?$allocator@U_Container_proxy@std@@@std@@QEAA@AEBV?$allocator@VInternalRendAtts@GLMeshAttributesInfo@vcg@@@1@@Z
	??$?0VMLRenderingData@@@?$allocator@U_Container_proxy@std@@@std@@QEAA@AEBV?$allocator@VMLRenderingData@@@1@@Z
	??$?0VMeshModel@@@?$_List_node_emplace_op2@V?$allocator@U?$_List_node@VMeshModel@@PEAX@std@@@std@@@std@@QEAA@AEAV?$allocator@U?$_List_node@VMeshModel@@PEAX@std@@@1@$$QEAVMeshModel@@@Z
	??$?0VPEdge@?$UpdateTopology@VCMeshO@@@tri@vcg@@@?$allocator@U_Container_proxy@std@@@std@@QEAA@AEBV?$allocator@VPEdge@?$UpdateTopology@VCMeshO@@@tri@vcg@@@1@@Z
	??$?0VPEdge@vcg@@@?$allocator@U_Container_proxy@std@@@std@@QEAA@AEBV?$allocator@VPEdge@vcg@@@1@@Z
	??$?0VPFace@vcg@@@?$allocator@U_Container_proxy@std@@@std@@QEAA@AEBV?$allocator@VPFace@vcg@@@1@@Z
	??$?0VPVertex@vcg@@@?$allocator@U_Container_proxy@std@@@std@@QEAA@AEBV?$allocator@VPVertex@vcg@@@1@@Z
	??$?0VQString@@@?$_Tree_temp_node@V?$allocator@U?$_Tree_node@VQString@@PEAX@std@@@std@@@std@@QEAA@AEAV?$allocator@U?$_Tree_node@VQString@@PEAX@std@@@1@PEAU?$_Tree_node@VQString@@PEAX@1@$$QEAVQString@@@Z
	??$?0VQString@@PEBD$0A@@?$pair@VQString@@V1@@std@@QEAA@$$QEAU?$pair@VQString@@PEBD@1@@Z
	??$?0VRasterModel@@@?$_List_node_emplace_op2@V?$allocator@U?$_List_node@VRasterModel@@PEAX@std@@@std@@@std@@QEAA@AEAV?$allocator@U?$_List_node@VRasterModel@@PEAX@std@@@1@$$QEAVRasterModel@@@Z
	??$?0VWedgeColorTypePack@?$vector_ocf@VCFaceO@@@face@vcg@@@?$allocator@U_Container_proxy@std@@@std@@QEAA@AEBV?$allocator@VWedgeColorTypePack@?$vector_ocf@VCFaceO@@@face@vcg@@@1@@Z
	??$?0VWedgeNormalTypePack@?$vector_ocf@VCFaceO@@@face@vcg@@@?$allocator@U_Container_proxy@std@@@std@@QEAA@AEBV?$allocator@VWedgeNormalTypePack@?$vector_ocf@VCFaceO@@@face@vcg@@@1@@Z
	??$?0VWedgeTexTypePack@?$vector_ocf@VCFaceO@@@face@vcg@@@?$allocator@U_Container_proxy@std@@@std@@QEAA@AEBV?$allocator@VWedgeTexTypePack@?$vector_ocf@VCFaceO@@@face@vcg@@@1@@Z
	??$?0_K@?$allocator@U_Container_proxy@std@@@std@@QEAA@AEBV?$allocator@_K@1@@Z
	??$?4U?$pair@FI@std@@$0A@@?$pair@FI@std@@QEAAAEAU01@$$QEAU01@@Z
	??$?6DU?$char_traits@D@std@@V?$allocator@D@1@@std@@YAAEAV?$basic_ostream@DU?$char_traits@D@std@@@0@AEAV10@AEBV?$basic_string@DU?$char_traits@D@std@@V?$allocator@D@2@@0@@Z
	??$?6U?$char_traits@D@std@@@std@@YAAEAV?$basic_ostream@DU?$char_traits@D@std@@@0@AEAV10@D@Z
	??$?6U?$char_traits@D@std@@@std@@YAAEAV?$basic_ostream@DU?$char_traits@D@std@@@0@AEAV10@PEBD@Z
	??$?8DU?$char_traits@D@std@@V?$allocator@D@1@@std@@YA_NAEBV?$basic_string@DU?$char_traits@D@std@@V?$allocator@D@2@@0@0@Z
	??$?8M$03@std@@YA_NAEBV?$array@M$03@0@0@Z
	??$?8U?$_List_node@PEAVRichParameter@@PEAX@std@@U01@@std@@YA_NAEBV?$allocator@U?$_List_node@PEAVRichParameter@@PEAX@std@@@0@0@Z
	??$?8U?$_Tree_node@VPointerToAttribute@vcg@@PEAX@std@@U01@@std@@YA_NAEBV?$allocator@U?$_Tree_node@VPointerToAttribute@vcg@@PEAX@std@@@0@0@Z
	??$?8V?$HEdge@V?$UsedTypes@UAsVertexType@?$Use@VCVertexO@@@vcg@@UAsEdgeType@?$Use@VCEdgeO@@@3@UAsFaceType@?$Use@VCFaceO@@@3@VDefaultDeriver@3@V83@V83@V83@V83@@vcg@@VDefaultDeriver@2@V32@V32@V32@V32@V32@V32@V32@V32@V32@V32@@vcg@@V01@@std@@YA_NAEBV?$allocator@V?$HEdge@V?$UsedTypes@UAsVertexType@?$Use@VCVertexO@@@vcg@@UAsEdgeType@?$Use@VCEdgeO@@@3@UAsFaceType@?$Use@VCFaceO@@@3@VDefaultDeriver@3@V83@V83@V83@V83@@vcg@@VDefaultDeriver@2@V32@V32@V32@V32@V32@V32@V32@V32@V32@V32@@vcg@@@0@0@Z
	??$?8V?$TetraSimp@V?$UsedTypes@UAsVertexType@?$Use@VCVertexO@@@vcg@@UAsEdgeType@?$Use@VCEdgeO@@@3@UAsFaceType@?$Use@VCFaceO@@@3@VDefaultDeriver@3@V83@V83@V83@V83@@vcg@@VDefaultDeriver@2@V32@V32@V32@V32@V32@V32@V32@V32@V32@V32@V32@@vcg@@V01@@std@@YA_NAEBV?$allocator@V?$TetraSimp@V?$UsedTypes@UAsVertexType@?$Use@VCVertexO@@@vcg@@UAsEdgeType@?$Use@VCEdgeO@@@3@UAsFaceType@?$Use@VCFaceO@@@3@VDefaultDeriver@3@V83@V83@V83@V83@@vcg@@VDefaultDeriver@2@V32@V32@V32@V32@V32@V32@V32@V32@V32@V32@V32@@vcg@@@0@0@Z
	??$?8V?$basic_string@DU?$char_traits@D@std@@V?$allocator@D@2@@std@@V01@@std@@YA_NAEBV?$allocator@V?$basic_string@DU?$char_traits@D@std@@V?$allocator@D@2@@std@@@0@0@Z
	??$?8VCEdgeO@@V0@@std@@YA_NAEBV?$allocator@VCEdgeO@@@0@0@Z
	??$?9DU?$char_traits@D@std@@V?$allocator@D@1@@std@@YA_NAEBV?$basic_string@DU?$char_traits@D@std@@V?$allocator@D@2@@0@0@Z
	??$?9V?$_Tree_iterator@V?$_Tree_val@U?$_Tree_simple_types@U?$pair@$$CBMV?$vector@PEAVQAction@@V?$allocator@PEAVQAction@@@std@@@std@@@std@@@std@@@std@@@std@@V01@@std@@YA_NAEBV?$reverse_iterator@V?$_Tree_iterator@V?$_Tree_val@U?$_Tree_simple_types@U?$pair@$$CBMV?$vector@PEAVQAction@@V?$allocator@PEAVQAction@@@std@@@std@@@std@@@std@@@std@@@std@@@0@0@Z
	??$?AI@?$AttributeHandle@MV?$vector_ocf@VCFaceO@@@face@vcg@@@?$TriMesh@V?$vector_ocf@VCVertexO@@@vertex@vcg@@V?$vector_ocf@VCFaceO@@@face@3@UDummyContainer@tri@3@U673@U673@@tri@vcg@@QEAAAEAMAEBI@Z
	??$?AI@?$AttributeHandle@MV?$vector_ocf@VCVertexO@@@vertex@vcg@@@?$TriMesh@V?$vector_ocf@VCVertexO@@@vertex@vcg@@V?$vector_ocf@VCFaceO@@@face@3@UDummyContainer@tri@3@U673@U673@@tri@vcg@@QEAAAEAMAEBI@Z
	??$?AI@?$AttributeHandle@V?$Point3@M@vcg@@V?$vector_ocf@VCFaceO@@@face@2@@?$TriMesh@V?$vector_ocf@VCVertexO@@@vertex@vcg@@V?$vector_ocf@VCFaceO@@@face@3@UDummyContainer@tri@3@U673@U673@@tri@vcg@@QEAAAEAV?$Point3@M@3@AEBI@Z
	??$?AI@?$AttributeHandle@V?$Point3@M@vcg@@V?$vector_ocf@VCVertexO@@@vertex@2@@?$TriMesh@V?$vector_ocf@VCVertexO@@@vertex@vcg@@V?$vector_ocf@VCFaceO@@@face@3@UDummyContainer@tri@3@U673@U673@@tri@vcg@@QEAAAEAV?$Point3@M@3@AEBI@Z
	??$?AI@?$ConstAttributeHandle@MV?$vector_ocf@VCFaceO@@@face@vcg@@@?$TriMesh@V?$vector_ocf@VCVertexO@@@vertex@vcg@@V?$vector_ocf@VCFaceO@@@face@3@UDummyContainer@tri@3@U673@U673@@tri@vcg@@QEBAAEBMAEBI@Z
	??$?AI@?$ConstAttributeHandle@MV?$vector_ocf@VCVertexO@@@vertex@vcg@@@?$TriMesh@V?$vector_ocf@VCVertexO@@@vertex@vcg@@V?$vector_ocf@VCFaceO@@@face@3@UDummyContainer@tri@3@U673@U673@@tri@vcg@@QEBAAEBMAEBI@Z
	??$?AI@?$ConstAttributeHandle@V?$Point3@M@vcg@@V?$vector_ocf@VCFaceO@@@face@2@@?$TriMesh@V?$vector_ocf@VCVertexO@@@vertex@vcg@@V?$vector_ocf@VCFaceO@@@face@3@UDummyContainer@tri@3@U673@U673@@tri@vcg@@QEBAAEBV?$Point3@M@3@AEBI@Z
	??$?AI@?$ConstAttributeHandle@V?$Point3@M@vcg@@V?$vector_ocf@VCVertexO@@@vertex@2@@?$TriMesh@V?$vector_ocf@VCVertexO@@@vertex@vcg@@V?$vector_ocf@VCFaceO@@@face@3@UDummyContainer@tri@3@U673@U673@@tri@vcg@@QEBAAEBV?$Point3@M@3@AEBI@Z
	??$?DM@vcg@@YA?AV?$Point3@M@0@AEBV?$Matrix44@M@0@AEBV10@@Z
	??$?HDU?$char_traits@D@std@@V?$allocator@D@1@@std@@YA?AV?$basic_string@DU?$char_traits@D@std@@V?$allocator@D@2@@0@$$QEAV10@0@Z
	??$?HDU?$char_traits@D@std@@V?$allocator@D@1@@std@@YA?AV?$basic_string@DU?$char_traits@D@std@@V?$allocator@D@2@@0@$$QEAV10@AEBV10@@Z
	??$?HDU?$char_traits@D@std@@V?$allocator@D@1@@std@@YA?AV?$basic_string@DU?$char_traits@D@std@@V?$allocator@D@2@@0@$$QEAV10@QEBD@Z
	??$?HDU?$char_traits@D@std@@V?$allocator@D@1@@std@@YA?AV?$basic_string@DU?$char_traits@D@std@@V?$allocator@D@2@@0@AEBV10@QEBD@Z
	??$?HDU?$char_traits@D@std@@V?$allocator@D@1@@std@@YA?AV?$basic_string@DU?$char_traits@D@std@@V?$allocator@D@2@@0@QEBD$$QEAV10@@Z
	??$?HDU?$char_traits@D@std@@V?$allocator@D@1@@std@@YA?AV?$basic_string@DU?$char_traits@D@std@@V?$allocator@D@2@@0@QEBDAEBV10@@Z
	??$?MDU?$char_traits@D@std@@V?$allocator@D@1@@std@@YA_NAEBV?$basic_string@DU?$char_traits@D@std@@V?$allocator@D@2@@0@0@Z
	??$?RAEAVEdgeVertInd@?$NotThreadSafeGLMeshAttributesMultiViewerBOManager@VCMeshO@@PEAVQGLContext@@UMLPerViewGLOptions@@@vcg@@AEAV012@@?$equal_to@X@std@@QEBA_NAEAVEdgeVertInd@?$NotThreadSafeGLMeshAttributesMultiViewerBOManager@VCMeshO@@PEAVQGLContext@@UMLPerViewGLOptions@@@vcg@@0@Z
	??$?RAEAVEdgeVertInd@?$NotThreadSafeGLMeshAttributesMultiViewerBOManager@VCMeshO@@PEAVQGLContext@@UMLPerViewGLOptions@@@vcg@@AEAV012@@?$less@X@std@@QEBA_NAEAVEdgeVertInd@?$NotThreadSafeGLMeshAttributesMultiViewerBOManager@VCMeshO@@PEAVQGLContext@@UMLPerViewGLOptions@@@vcg@@0@Z
	??$?RAEAVPEdge@?$UpdateTopology@VCMeshO@@@tri@vcg@@AEAV0123@@?$less@X@std@@QEBA_NAEAVPEdge@?$UpdateTopology@VCMeshO@@@tri@vcg@@0@Z
	??$?RAEBMAEBM@?$equal_to@X@std@@QEBA_NAEBM0@Z
	??$AddPerFaceAttribute@M@?$Allocator@VCMeshO@@@tri@vcg@@SA?AV?$PerFaceAttributeHandle@M@?$TriMesh@V?$vector_ocf@VCVertexO@@@vertex@vcg@@V?$vector_ocf@VCFaceO@@@face@3@UDummyContainer@tri@3@U673@U673@@12@AEAVCMeshO@@V?$basic_string@DU?$char_traits@D@std@@V?$allocator@D@2@@std@@@Z
	??$AddPerFaceAttribute@V?$Point3@M@vcg@@@?$Allocator@VCMeshO@@@tri@vcg@@SA?AV?$PerFaceAttributeHandle@V?$Point3@M@vcg@@@?$TriMesh@V?$vector_ocf@VCVertexO@@@vertex@vcg@@V?$vector_ocf@VCFaceO@@@face@3@UDummyContainer@tri@3@U673@U673@@12@AEAVCMeshO@@V?$basic_string@DU?$char_traits@D@std@@V?$allocator@D@2@@std@@@Z
	??$AddPerVertexAttribute@M@?$Allocator@VCMeshO@@@tri@vcg@@SA?AV?$PerVertexAttributeHandle@M@?$TriMesh@V?$vector_ocf@VCVertexO@@@vertex@vcg@@V?$vector_ocf@VCFaceO@@@face@3@UDummyContainer@tri@3@U673@U673@@12@AEAVCMeshO@@V?$basic_string@DU?$char_traits@D@std@@V?$allocator@D@2@@std@@@Z
	??$AddPerVertexAttribute@V?$Point3@M@vcg@@@?$Allocator@VCMeshO@@@tri@vcg@@SA?AV?$PerVertexAttributeHandle@V?$Point3@M@vcg@@@?$TriMesh@V?$vector_ocf@VCVertexO@@@vertex@vcg@@V?$vector_ocf@VCFaceO@@@face@3@UDummyContainer@tri@3@U673@U673@@12@AEAVCMeshO@@V?$basic_string@DU?$char_traits@D@std@@V?$allocator@D@2@@std@@@Z
	??$AngleN@M@vcg@@YAMAEBV?$Point3@M@0@0@Z
	??$Box@VCMeshO@@@tri@vcg@@YAXAEAVCMeshO@@AEBV?$Box3@M@1@@Z
	??$Construct@M@?$Camera@M@vcg@@SA?AV01@AEBV01@@Z
	??$Construct@M@?$Matrix44@M@vcg@@SA?AV01@AEBV01@@Z
	??$Construct@M@?$Shot@MV?$Matrix44@M@vcg@@@vcg@@SA?AV01@AEBV01@@Z
	??$Cross@M@vcg@@YA_NAEBV?$Point2@M@0@000@Z
	??$EdgeVectorHasEEAdjacency@VCEdgeO@@@tri@vcg@@YA_NAEBV?$vector@VCEdgeO@@V?$allocator@VCEdgeO@@@std@@@std@@@Z
	??$EdgeVectorHasEFAdjacency@VCEdgeO@@@tri@vcg@@YA_NAEBV?$vector@VCEdgeO@@V?$allocator@VCEdgeO@@@std@@@std@@@Z
	??$EdgeVectorHasEFAdjacency@VPEdge@vcg@@@tri@vcg@@YA_NAEBV?$vector@VPEdge@vcg@@V?$allocator@VPEdge@vcg@@@std@@@std@@@Z
	??$EdgeVectorHasVEAdjacency@VCEdgeO@@@tri@vcg@@YA_NAEBV?$vector@VCEdgeO@@V?$allocator@VCEdgeO@@@std@@@std@@@Z
	??$FaceVectorHasFEAdjacency@VCFaceO@@@tri@vcg@@YA_NAEBV?$vector@VCFaceO@@V?$allocator@VCFaceO@@@std@@@std@@@Z
	??$FaceVectorHasFEAdjacency@VPFace@vcg@@@tri@vcg@@YA_NAEBV?$vector@VPFace@vcg@@V?$allocator@VPFace@vcg@@@std@@@std@@@Z
	??$FaceVectorHasFFAdjacency@VCFaceO@@@tri@vcg@@YA_NAEBV?$vector_ocf@VCFaceO@@@face@1@@Z
	??$FaceVectorHasFFAdjacency@VPFace@vcg@@@tri@vcg@@YA_NAEBV?$vector@VPFace@vcg@@V?$allocator@VPFace@vcg@@@std@@@std@@@Z
	??$FaceVectorHasFVAdjacency@VCFaceO@@@tri@vcg@@YA_NAEBV?$vector@VCFaceO@@V?$allocator@VCFaceO@@@std@@@std@@@Z
	??$FaceVectorHasPerFaceColor@VCFaceO@@@tri@vcg@@YA_NAEBV?$vector_ocf@VCFaceO@@@face@1@@Z
	??$FaceVectorHasPerFaceColor@VPFace@vcg@@@tri@vcg@@YA_NAEBV?$vector@VPFace@vcg@@V?$allocator@VPFace@vcg@@@std@@@std@@@Z
	??$FaceVectorHasPerFaceCurvatureDir@VCFaceO@@@tri@vcg@@YA_NAEBV?$vector_ocf@VCFaceO@@@face@1@@Z
	??$FaceVectorHasPerFaceFlags@VCFaceO@@@tri@vcg@@YA_NAEBV?$vector@VCFaceO@@V?$allocator@VCFaceO@@@std@@@std@@@Z
	??$FaceVectorHasPerFaceNormal@VCFaceO@@@tri@vcg@@YA_NAEBV?$vector_ocf@VCFaceO@@@face@1@@Z
	??$FaceVectorHasPerFaceQuality@VCFaceO@@@tri@vcg@@YA_NAEBV?$vector_ocf@VCFaceO@@@face@1@@Z
	??$FaceVectorHasPerFaceQuality@VPFace@vcg@@@tri@vcg@@YA_NAEBV?$vector@VPFace@vcg@@V?$allocator@VPFace@vcg@@@std@@@std@@@Z
	??$FaceVectorHasPerWedgeTexCoord@VCFaceO@@@tri@vcg@@YA_NAEBV?$vector_ocf@VCFaceO@@@face@1@@Z
	??$FaceVectorHasVFAdjacency@VCFaceO@@@tri@vcg@@YA_NAEBV?$vector_ocf@VCFaceO@@@face@1@@Z
	??$FaceVectorHasVFAdjacency@VPFace@vcg@@@tri@vcg@@YA_NAEBV?$vector@VPFace@vcg@@V?$allocator@VPFace@vcg@@@std@@@std@@@Z
	??$FindPerFaceAttribute@M@?$Allocator@VCMeshO@@@tri@vcg@@SA?AV?$ConstPerFaceAttributeHandle@M@?$TriMesh@V?$vector_ocf@VCVertexO@@@vertex@vcg@@V?$vector_ocf@VCFaceO@@@face@3@UDummyContainer@tri@3@U673@U673@@12@AEBVCMeshO@@AEBV?$basic_string@DU?$char_traits@D@std@@V?$allocator@D@2@@std@@@Z
	??$FindPerFaceAttribute@M@?$Allocator@VCMeshO@@@tri@vcg@@SA?AV?$PerFaceAttributeHandle@M@?$TriMesh@V?$vector_ocf@VCVertexO@@@vertex@vcg@@V?$vector_ocf@VCFaceO@@@face@3@UDummyContainer@tri@3@U673@U673@@12@AEAVCMeshO@@AEBV?$basic_string@DU?$char_traits@D@std@@V?$allocator@D@2@@std@@@Z
	??$FindPerFaceAttribute@V?$Point3@M@vcg@@@?$Allocator@VCMeshO@@@tri@vcg@@SA?AV?$ConstPerFaceAttributeHandle@V?$Point3@M@vcg@@@?$TriMesh@V?$vector_ocf@VCVertexO@@@vertex@vcg@@V?$vector_ocf@VCFaceO@@@face@3@UDummyContainer@tri@3@U673@U673@@12@AEBVCMeshO@@AEBV?$basic_string@DU?$char_traits@D@std@@V?$allocator@D@2@@std@@@Z
	??$FindPerFaceAttribute@V?$Point3@M@vcg@@@?$Allocator@VCMeshO@@@tri@vcg@@SA?AV?$PerFaceAttributeHandle@V?$Point3@M@vcg@@@?$TriMesh@V?$vector_ocf@VCVertexO@@@vertex@vcg@@V?$vector_ocf@VCFaceO@@@face@3@UDummyContainer@tri@3@U673@U673@@12@AEAVCMeshO@@AEBV?$basic_string@DU?$char_traits@D@std@@V?$allocator@D@2@@std@@@Z
	??$FindPerVertexAttribute@M@?$Allocator@VCMeshO@@@tri@vcg@@SA?AV?$ConstPerVertexAttributeHandle@M@?$TriMesh@V?$vector_ocf@VCVertexO@@@vertex@vcg@@V?$vector_ocf@VCFaceO@@@face@3@UDummyContainer@tri@3@U673@U673@@12@AEBVCMeshO@@AEBV?$basic_string@DU?$char_traits@D@std@@V?$allocator@D@2@@std@@@Z
	??$FindPerVertexAttribute@M@?$Allocator@VCMeshO@@@tri@vcg@@SA?AV?$PerVertexAttributeHandle@M@?$TriMesh@V?$vector_ocf@VCVertexO@@@vertex@vcg@@V?$vector_ocf@VCFaceO@@@face@3@UDummyContainer@tri@3@U673@U673@@12@AEAVCMeshO@@AEBV?$basic_string@DU?$char_traits@D@std@@V?$allocator@D@2@@std@@@Z
	??$FindPerVertexAttribute@V?$Point3@M@vcg@@@?$Allocator@VCMeshO@@@tri@vcg@@SA?AV?$ConstPerVertexAttributeHandle@V?$Point3@M@vcg@@@?$TriMesh@V?$vector_ocf@VCVertexO@@@vertex@vcg@@V?$vector_ocf@VCFaceO@@@face@3@UDummyContainer@tri@3@U673@U673@@12@AEBVCMeshO@@AEBV?$basic_string@DU?$char_traits@D@std@@V?$allocator@D@2@@std@@@Z
	??$FindPerVertexAttribute@V?$Point3@M@vcg@@@?$Allocator@VCMeshO@@@tri@vcg@@SA?AV?$PerVertexAttributeHandle@V?$Point3@M@vcg@@@?$TriMesh@V?$vector_ocf@VCVertexO@@@vertex@vcg@@V?$vector_ocf@VCFaceO@@@face@3@UDummyContainer@tri@3@U673@U673@@12@AEAVCMeshO@@AEBV?$basic_string@DU?$char_traits@D@std@@V?$allocator@D@2@@std@@@Z
	??$FixPaddedPerFaceAttribute@M@?$Allocator@VCMeshO@@@tri@vcg@@SAXAEAVCMeshO@@AEAVPointerToAttribute@2@@Z
	??$FixPaddedPerFaceAttribute@V?$Point3@M@vcg@@@?$Allocator@VCMeshO@@@tri@vcg@@SAXAEAVCMeshO@@AEAVPointerToAttribute@2@@Z
	??$FixPaddedPerVertexAttribute@M@?$Allocator@VCMeshO@@@tri@vcg@@SAXAEAVCMeshO@@AEAVPointerToAttribute@2@@Z
	??$FixPaddedPerVertexAttribute@V?$Point3@M@vcg@@@?$Allocator@VCMeshO@@@tri@vcg@@SAXAEAVCMeshO@@AEAVPointerToAttribute@2@@Z
	??$ForEachEdge@V?$TriMesh@V?$vector_ocf@VCVertexO@@@vertex@vcg@@V?$vector_ocf@VCFaceO@@@face@3@UDummyContainer@tri@3@U673@U673@@tri@vcg@@V<lambda_6d207cbcd7dc68e89d043bd53e330547>@@@tri@vcg@@YAXAEBV?$TriMesh@V?$vector_ocf@VCVertexO@@@vertex@vcg@@V?$vector_ocf@VCFaceO@@@face@3@UDummyContainer@tri@3@U673@U673@@01@V<lambda_6d207cbcd7dc68e89d043bd53e330547>@@@Z
	??$ForEachEdge@V?$TriMesh@V?$vector_ocf@VCVertexO@@@vertex@vcg@@V?$vector_ocf@VCFaceO@@@face@3@UDummyContainer@tri@3@U673@U673@@tri@vcg@@V<lambda_b1789f587386da9b2e000e3cb2816abb>@@@tri@vcg@@YAXAEBV?$TriMesh@V?$vector_ocf@VCVertexO@@@vertex@vcg@@V?$vector_ocf@VCFaceO@@@face@3@UDummyContainer@tri@3@U673@U673@@01@V<lambda_b1789f587386da9b2e000e3cb2816abb>@@@Z
	??$ForEachEdge@V?$TriMesh@V?$vector_ocf@VCVertexO@@@vertex@vcg@@V?$vector_ocf@VCFaceO@@@face@3@UDummyContainer@tri@3@U673@U673@@tri@vcg@@V<lambda_dc2e04d8d8799d09f279d80b7ab19b9f>@@@tri@vcg@@YAXAEBV?$TriMesh@V?$vector_ocf@VCVertexO@@@vertex@vcg@@V?$vector_ocf@VCFaceO@@@face@3@UDummyContainer@tri@3@U673@U673@@01@V<lambda_dc2e04d8d8799d09f279d80b7ab19b9f>@@@Z
	??$ForEachFace@V?$TriMesh@V?$vector_ocf@VCVertexO@@@vertex@vcg@@V?$vector_ocf@VCFaceO@@@face@3@UDummyContainer@tri@3@U673@U673@@tri@vcg@@V<lambda_5726286b44d0428cf6564cae74abed28>@@@tri@vcg@@YAXAEBV?$TriMesh@V?$vector_ocf@VCVertexO@@@vertex@vcg@@V?$vector_ocf@VCFaceO@@@face@3@UDummyContainer@tri@3@U673@U673@@01@V<lambda_5726286b44d0428cf6564cae74abed28>@@@Z
	??$ForEachFace@V?$TriMesh@V?$vector_ocf@VCVertexO@@@vertex@vcg@@V?$vector_ocf@VCFaceO@@@face@3@UDummyContainer@tri@3@U673@U673@@tri@vcg@@V<lambda_a89d7969109dc80a786af9d5c90a4f8e>@@@tri@vcg@@YAXAEBV?$TriMesh@V?$vector_ocf@VCVertexO@@@vertex@vcg@@V?$vector_ocf@VCFaceO@@@face@3@UDummyContainer@tri@3@U673@U673@@01@V<lambda_a89d7969109dc80a786af9d5c90a4f8e>@@@Z
	??$ForEachFace@V?$TriMesh@V?$vector_ocf@VCVertexO@@@vertex@vcg@@V?$vector_ocf@VCFaceO@@@face@3@UDummyContainer@tri@3@U673@U673@@tri@vcg@@V<lambda_de47146ae1bb3196ce530b98952882dc>@@@tri@vcg@@YAXAEBV?$TriMesh@V?$vector_ocf@VCVertexO@@@vertex@vcg@@V?$vector_ocf@VCFaceO@@@face@3@UDummyContainer@tri@3@U673@U673@@01@V<lambda_de47146ae1bb3196ce530b98952882dc>@@@Z
	??$ForEachHEdge@V?$TriMesh@V?$vector_ocf@VCVertexO@@@vertex@vcg@@V?$vector_ocf@VCFaceO@@@face@3@UDummyContainer@tri@3@U673@U673@@tri@vcg@@V<lambda_902e70d588b6ec01e42a740d82414f6c>@@@tri@vcg@@YAXAEBV?$TriMesh@V?$vector_ocf@VCVertexO@@@vertex@vcg@@V?$vector_ocf@VCFaceO@@@face@3@UDummyContainer@tri@3@U673@U673@@01@V<lambda_902e70d588b6ec01e42a740d82414f6c>@@@Z
	??$ForEachHEdge@V?$TriMesh@V?$vector_ocf@VCVertexO@@@vertex@vcg@@V?$vector_ocf@VCFaceO@@@face@3@UDummyContainer@tri@3@U673@U673@@tri@vcg@@V<lambda_ae5e9b67042afd3fdec968f9011fcfdf>@@@tri@vcg@@YAXAEBV?$TriMesh@V?$vector_ocf@VCVertexO@@@vertex@vcg@@V?$vector_ocf@VCFaceO@@@face@3@UDummyContainer@tri@3@U673@U673@@01@V<lambda_ae5e9b67042afd3fdec968f9011fcfdf>@@@Z
	??$ForEachTetra@V?$TriMesh@V?$vector_ocf@VCVertexO@@@vertex@vcg@@V?$vector_ocf@VCFaceO@@@face@3@UDummyContainer@tri@3@U673@U673@@tri@vcg@@V<lambda_741a1349a60506d8c68ffe0b06396aa6>@@@tri@vcg@@YAXAEBV?$TriMesh@V?$vector_ocf@VCVertexO@@@vertex@vcg@@V?$vector_ocf@VCFaceO@@@face@3@UDummyContainer@tri@3@U673@U673@@01@V<lambda_741a1349a60506d8c68ffe0b06396aa6>@@@Z
	??$ForEachTetra@V?$TriMesh@V?$vector_ocf@VCVertexO@@@vertex@vcg@@V?$vector_ocf@VCFaceO@@@face@3@UDummyContainer@tri@3@U673@U673@@tri@vcg@@V<lambda_b60d848c53e8a47412dfe8d2d2dd2c65>@@@tri@vcg@@YAXAEBV?$TriMesh@V?$vector_ocf@VCVertexO@@@vertex@vcg@@V?$vector_ocf@VCFaceO@@@face@3@UDummyContainer@tri@3@U673@U673@@01@V<lambda_b60d848c53e8a47412dfe8d2d2dd2c65>@@@Z
	??$ForEachVertex@V?$TriMesh@V?$vector_ocf@VCVertexO@@@vertex@vcg@@V?$vector_ocf@VCFaceO@@@face@3@UDummyContainer@tri@3@U673@U673@@tri@vcg@@V<lambda_8dccb40b72abad22d4e46c8f0c151f6e>@@@tri@vcg@@YAXAEBV?$TriMesh@V?$vector_ocf@VCVertexO@@@vertex@vcg@@V?$vector_ocf@VCFaceO@@@face@3@UDummyContainer@tri@3@U673@U673@@01@V<lambda_8dccb40b72abad22d4e46c8f0c151f6e>@@@Z
	??$ForEachVertex@V?$TriMesh@V?$vector_ocf@VCVertexO@@@vertex@vcg@@V?$vector_ocf@VCFaceO@@@face@3@UDummyContainer@tri@3@U673@U673@@tri@vcg@@V<lambda_e3bc5d01dfc54c1a308e3ee38ea01385>@@@tri@vcg@@YAXAEBV?$TriMesh@V?$vector_ocf@VCVertexO@@@vertex@vcg@@V?$vector_ocf@VCFaceO@@@face@3@UDummyContainer@tri@3@U673@U673@@01@V<lambda_e3bc5d01dfc54c1a308e3ee38ea01385>@@@Z
	??$ForEachVertex@V?$TriMesh@V?$vector_ocf@VCVertexO@@@vertex@vcg@@V?$vector_ocf@VCFaceO@@@face@3@UDummyContainer@tri@3@U673@U673@@tri@vcg@@V<lambda_e55cb16cde6a4ca58e05ad61e1ec6df0>@@@tri@vcg@@YAXAEBV?$TriMesh@V?$vector_ocf@VCVertexO@@@vertex@vcg@@V?$vector_ocf@VCFaceO@@@face@3@UDummyContainer@tri@3@U673@U673@@01@V<lambda_e55cb16cde6a4ca58e05ad61e1ec6df0>@@@Z
	??$FromMatrix@V?$Matrix44@M@vcg@@@?$Matrix44@M@vcg@@QEAAXAEBV01@@Z
	??$GetAllPerFaceAttribute@M@?$Allocator@VCMeshO@@@tri@vcg@@SAXAEBVCMeshO@@AEAV?$vector@V?$basic_string@DU?$char_traits@D@std@@V?$allocator@D@2@@std@@V?$allocator@V?$basic_string@DU?$char_traits@D@std@@V?$allocator@D@2@@std@@@2@@std@@@Z
	??$GetAllPerFaceAttribute@V?$Point3@M@vcg@@@?$Allocator@VCMeshO@@@tri@vcg@@SAXAEBVCMeshO@@AEAV?$vector@V?$basic_string@DU?$char_traits@D@std@@V?$allocator@D@2@@std@@V?$allocator@V?$basic_string@DU?$char_traits@D@std@@V?$allocator@D@2@@std@@@2@@std@@@Z
	??$GetAllPerVertexAttribute@M@?$Allocator@VCMeshO@@@tri@vcg@@SAXAEBVCMeshO@@AEAV?$vector@V?$basic_string@DU?$char_traits@D@std@@V?$allocator@D@2@@std@@V?$allocator@V?$basic_string@DU?$char_traits@D@std@@V?$allocator@D@2@@std@@@2@@std@@@Z
	??$GetAllPerVertexAttribute@V?$Point3@M@vcg@@@?$Allocator@VCMeshO@@@tri@vcg@@SAXAEBVCMeshO@@AEAV?$vector@V?$basic_string@DU?$char_traits@D@std@@V?$allocator@D@2@@std@@V?$allocator@V?$basic_string@DU?$char_traits@D@std@@V?$allocator@D@2@@std@@@2@@std@@@Z
	??$GetPerFaceAttribute@M@?$Allocator@VCMeshO@@@tri@vcg@@SA?AV?$ConstPerFaceAttributeHandle@M@?$TriMesh@V?$vector_ocf@VCVertexO@@@vertex@vcg@@V?$vector_ocf@VCFaceO@@@face@3@UDummyContainer@tri@3@U673@U673@@12@AEBVCMeshO@@V?$basic_string@DU?$char_traits@D@std@@V?$allocator@D@2@@std@@@Z
	??$GetPerFaceAttribute@V?$Point3@M@vcg@@@?$Allocator@VCMeshO@@@tri@vcg@@SA?AV?$ConstPerFaceAttributeHandle@V?$Point3@M@vcg@@@?$TriMesh@V?$vector_ocf@VCVertexO@@@vertex@vcg@@V?$vector_ocf@VCFaceO@@@face@3@UDummyContainer@tri@3@U673@U673@@12@AEBVCMeshO@@V?$basic_string@DU?$char_traits@D@std@@V?$allocator@D@2@@std@@@Z
	??$GetPerVertexAttribute@M@?$Allocator@VCMeshO@@@tri@vcg@@SA?AV?$ConstPerVertexAttributeHandle@M@?$TriMesh@V?$vector_ocf@VCVertexO@@@vertex@vcg@@V?$vector_ocf@VCFaceO@@@face@3@UDummyContainer@tri@3@U673@U673@@12@AEBVCMeshO@@V?$basic_string@DU?$char_traits@D@std@@V?$allocator@D@2@@std@@@Z
	??$GetPerVertexAttribute@V?$Point3@M@vcg@@@?$Allocator@VCMeshO@@@tri@vcg@@SA?AV?$ConstPerVertexAttributeHandle@V?$Point3@M@vcg@@@?$TriMesh@V?$vector_ocf@VCVertexO@@@vertex@vcg@@V?$vector_ocf@VCFaceO@@@face@3@UDummyContainer@tri@3@U673@U673@@12@AEBVCMeshO@@V?$basic_string@DU?$char_traits@D@std@@V?$allocator@D@2@@std@@@Z
	??$GetUV@M@vcg@@YAXAEAV?$Point3@M@0@00V10@@Z
	??$HasEEAdjacency@V?$TriMesh@V?$vector_ocf@VCVertexO@@@vertex@vcg@@V?$vector_ocf@VCFaceO@@@face@3@UDummyContainer@tri@3@U673@U673@@tri@vcg@@@tri@vcg@@YA_NAEBV?$TriMesh@V?$vector_ocf@VCVertexO@@@vertex@vcg@@V?$vector_ocf@VCFaceO@@@face@3@UDummyContainer@tri@3@U673@U673@@01@@Z
	??$HasEEAdjacency@VCMeshO@@@tri@vcg@@YA_NAEBVCMeshO@@@Z
	??$HasEFAdjacency@V?$vector_ocf@VCVertexO@@@vertex@vcg@@V?$vector_ocf@VCFaceO@@@face@3@UDummyContainer@tri@3@U673@@tri@vcg@@YA_NAEBV?$TriMesh@V?$vector_ocf@VCVertexO@@@vertex@vcg@@V?$vector_ocf@VCFaceO@@@face@3@UDummyContainer@tri@3@U673@U673@@01@@Z
	??$HasEFAdjacency@VCMeshO@@@tri@vcg@@YA_NAEBVCMeshO@@@Z
	??$HasEFAdjacency@VPolyMesh@@@tri@vcg@@YA_NAEBVPolyMesh@@@Z
	??$HasEHAdjacency@V?$vector_ocf@VCVertexO@@@vertex@vcg@@V?$vector_ocf@VCFaceO@@@face@3@UDummyContainer@tri@3@U673@@tri@vcg@@YA_NAEBV?$TriMesh@V?$vector_ocf@VCVertexO@@@vertex@vcg@@V?$vector_ocf@VCFaceO@@@face@3@UDummyContainer@tri@3@U673@U673@@01@@Z
	??$HasEVAdjacency@V?$vector_ocf@VCVertexO@@@vertex@vcg@@V?$vector_ocf@VCFaceO@@@face@3@UDummyContainer@tri@3@U673@@tri@vcg@@YA_NAEBV?$TriMesh@V?$vector_ocf@VCVertexO@@@vertex@vcg@@V?$vector_ocf@VCFaceO@@@face@3@UDummyContainer@tri@3@U673@U673@@01@@Z
	??$HasFEAdjacency@V?$TriMesh@V?$vector_ocf@VCVertexO@@@vertex@vcg@@V?$vector_ocf@VCFaceO@@@face@3@UDummyContainer@tri@3@U673@U673@@tri@vcg@@@tri@vcg@@YA_NAEBV?$TriMesh@V?$vector_ocf@VCVertexO@@@vertex@vcg@@V?$vector_ocf@VCFaceO@@@face@3@UDummyContainer@tri@3@U673@U673@@01@@Z
	??$HasFEAdjacency@VCMeshO@@@tri@vcg@@YA_NAEBVCMeshO@@@Z
	??$HasFFAdjacency@V?$TriMesh@V?$vector_ocf@VCVertexO@@@vertex@vcg@@V?$vector_ocf@VCFaceO@@@face@3@UDummyContainer@tri@3@U673@U673@@tri@vcg@@@tri@vcg@@YA_NAEBV?$TriMesh@V?$vector_ocf@VCVertexO@@@vertex@vcg@@V?$vector_ocf@VCFaceO@@@face@3@UDummyContainer@tri@3@U673@U673@@01@@Z
	??$HasFFAdjacency@VCMeshO@@@tri@vcg@@YA_NAEBVCMeshO@@@Z
	??$HasFFAdjacency@VPolyMesh@@@tri@vcg@@YA_NAEBVPolyMesh@@@Z
	??$HasFHAdjacency@V?$vector_ocf@VCVertexO@@@vertex@vcg@@V?$vector_ocf@VCFaceO@@@face@3@UDummyContainer@tri@3@U673@@tri@vcg@@YA_NAEBV?$TriMesh@V?$vector_ocf@VCVertexO@@@vertex@vcg@@V?$vector_ocf@VCFaceO@@@face@3@UDummyContainer@tri@3@U673@U673@@01@@Z
	??$HasFVAdjacency@V?$TriMesh@V?$vector_ocf@VCVertexO@@@vertex@vcg@@V?$vector_ocf@VCFaceO@@@face@3@UDummyContainer@tri@3@U673@U673@@tri@vcg@@@tri@vcg@@YA_NAEBV?$TriMesh@V?$vector_ocf@VCVertexO@@@vertex@vcg@@V?$vector_ocf@VCFaceO@@@face@3@UDummyContainer@tri@3@U673@U673@@01@@Z
	??$HasHEAdjacency@V?$vector_ocf@VCVertexO@@@vertex@vcg@@V?$vector_ocf@VCFaceO@@@face@3@UDummyContainer@tri@3@U673@@tri@vcg@@YA_NAEBV?$TriMesh@V?$vector_ocf@VCVertexO@@@vertex@vcg@@V?$vector_ocf@VCFaceO@@@face@3@UDummyContainer@tri@3@U673@U673@@01@@Z
	??$HasHFAdjacency@V?$vector@VPVertex@vcg@@V?$allocator@VPVertex@vcg@@@std@@@std@@V?$vector@VPEdge@vcg@@V?$allocator@VPEdge@vcg@@@std@@@2@V?$vector@VPFace@vcg@@V?$allocator@VPFace@vcg@@@std@@@2@UDummyContainer@tri@vcg@@@tri@vcg@@YA_NAEBV?$TriMesh@V?$vector@VPVertex@vcg@@V?$allocator@VPVertex@vcg@@@std@@@std@@V?$vector@VPEdge@vcg@@V?$allocator@VPEdge@vcg@@@std@@@2@V?$vector@VPFace@vcg@@V?$allocator@VPFace@vcg@@@std@@@2@UDummyContainer@tri@vcg@@U567@@01@@Z
	??$HasHFAdjacency@V?$vector_ocf@VCVertexO@@@vertex@vcg@@V?$vector_ocf@VCFaceO@@@face@3@UDummyContainer@tri@3@U673@@tri@vcg@@YA_NAEBV?$TriMesh@V?$vector_ocf@VCVertexO@@@vertex@vcg@@V?$vector_ocf@VCFaceO@@@face@3@UDummyContainer@tri@3@U673@U673@@01@@Z
	??$HasHNextAdjacency@V?$vector_ocf@VCVertexO@@@vertex@vcg@@V?$vector_ocf@VCFaceO@@@face@3@UDummyContainer@tri@3@U673@@tri@vcg@@YA_NAEBV?$TriMesh@V?$vector_ocf@VCVertexO@@@vertex@vcg@@V?$vector_ocf@VCFaceO@@@face@3@UDummyContainer@tri@3@U673@U673@@01@@Z
	??$HasHOppAdjacency@V?$vector_ocf@VCVertexO@@@vertex@vcg@@V?$vector_ocf@VCFaceO@@@face@3@UDummyContainer@tri@3@U673@@tri@vcg@@YA_NAEBV?$TriMesh@V?$vector_ocf@VCVertexO@@@vertex@vcg@@V?$vector_ocf@VCFaceO@@@face@3@UDummyContainer@tri@3@U673@U673@@01@@Z
	??$HasHPrevAdjacency@V?$vector_ocf@VCVertexO@@@vertex@vcg@@V?$vector_ocf@VCFaceO@@@face@3@UDummyContainer@tri@3@U673@@tri@vcg@@YA_NAEBV?$TriMesh@V?$vector_ocf@VCVertexO@@@vertex@vcg@@V?$vector_ocf@VCFaceO@@@face@3@UDummyContainer@tri@3@U673@U673@@01@@Z
	??$HasHVAdjacency@V?$vector@VPVertex@vcg@@V?$allocator@VPVertex@vcg@@@std@@@std@@V?$vector@VPEdge@vcg@@V?$allocator@VPEdge@vcg@@@std@@@2@V?$vector@VPFace@vcg@@V?$allocator@VPFace@vcg@@@std@@@2@UDummyContainer@tri@vcg@@@tri@vcg@@YA_NAEBV?$TriMesh@V?$vector@VPVertex@vcg@@V?$allocator@VPVertex@vcg@@@std@@@std@@V?$vector@VPEdge@vcg@@V?$allocator@VPEdge@vcg@@@std@@@2@V?$vector@VPFace@vcg@@V?$allocator@VPFace@vcg@@@std@@@2@UDummyContainer@tri@vcg@@U567@@01@@Z
	??$HasHVAdjacency@V?$vector_ocf@VCVertexO@@@vertex@vcg@@V?$vector_ocf@VCFaceO@@@face@3@UDummyContainer@tri@3@U673@@tri@vcg@@YA_NAEBV?$TriMesh@V?$vector_ocf@VCVertexO@@@vertex@vcg@@V?$vector_ocf@VCFaceO@@@face@3@UDummyContainer@tri@3@U673@U673@@01@@Z
	??$HasPerFaceColor@VCMeshO@@@tri@vcg@@YA_NAEBVCMeshO@@@Z
	??$HasPerFaceColor@VPolyMesh@@@tri@vcg@@YA_NAEBVPolyMesh@@@Z
	??$HasPerFaceCurvatureDir@VCMeshO@@@tri@vcg@@YA_NAEBVCMeshO@@@Z
	??$HasPerFaceFlags@VCMeshO@@@tri@vcg@@YA_NAEBVCMeshO@@@Z
	??$HasPerFaceNormal@VCMeshO@@@tri@vcg@@YA_NAEBVCMeshO@@@Z
	??$HasPerFaceQuality@VCMeshO@@@tri@vcg@@YA_NAEBVCMeshO@@@Z
	??$HasPerFaceQuality@VPolyMesh@@@tri@vcg@@YA_NAEBVPolyMesh@@@Z
	??$HasPerFaceVFAdjacency@V?$TriMesh@V?$vector_ocf@VCVertexO@@@vertex@vcg@@V?$vector_ocf@VCFaceO@@@face@3@UDummyContainer@tri@3@U673@U673@@tri@vcg@@@tri@vcg@@YA_NAEBV?$TriMesh@V?$vector_ocf@VCVertexO@@@vertex@vcg@@V?$vector_ocf@VCFaceO@@@face@3@UDummyContainer@tri@3@U673@U673@@01@@Z
	??$HasPerFaceVFAdjacency@VCMeshO@@@tri@vcg@@YA_NAEBVCMeshO@@@Z
	??$HasPerFaceVFAdjacency@VPolyMesh@@@tri@vcg@@YA_NAEBVPolyMesh@@@Z
	??$HasPerVertexColor@VCMeshO@@@tri@vcg@@YA_NAEBVCMeshO@@@Z
	??$HasPerVertexCurvatureDir@VCMeshO@@@tri@vcg@@YA_NAEBVCMeshO@@@Z
	??$HasPerVertexFlags@VCMeshO@@@tri@vcg@@YA_NAEBVCMeshO@@@Z
	??$HasPerVertexNormal@VCMeshO@@@tri@vcg@@YA_NAEBVCMeshO@@@Z
	??$HasPerVertexQuality@VCMeshO@@@tri@vcg@@YA_NAEBVCMeshO@@@Z
	??$HasPerVertexTexCoord@V?$TriMesh@V?$vector_ocf@VCVertexO@@@vertex@vcg@@V?$vector_ocf@VCFaceO@@@face@3@UDummyContainer@tri@3@U673@U673@@tri@vcg@@@tri@vcg@@YA_NAEBV?$TriMesh@V?$vector_ocf@VCVertexO@@@vertex@vcg@@V?$vector_ocf@VCFaceO@@@face@3@UDummyContainer@tri@3@U673@U673@@01@@Z
	??$HasPerVertexTexCoord@VCMeshO@@@tri@vcg@@YA_NAEBVCMeshO@@@Z
	??$HasPerVertexVFAdjacency@V?$TriMesh@V?$vector_ocf@VCVertexO@@@vertex@vcg@@V?$vector_ocf@VCFaceO@@@face@3@UDummyContainer@tri@3@U673@U673@@tri@vcg@@@tri@vcg@@YA_NAEBV?$TriMesh@V?$vector_ocf@VCVertexO@@@vertex@vcg@@V?$vector_ocf@VCFaceO@@@face@3@UDummyContainer@tri@3@U673@U673@@01@@Z
	??$HasPerVertexVFAdjacency@VCMeshO@@@tri@vcg@@YA_NAEBVCMeshO@@@Z
	??$HasPerVertexVFAdjacency@VPolyMesh@@@tri@vcg@@YA_NAEBVPolyMesh@@@Z
	??$HasPerWedgeTexCoord@V?$TriMesh@V?$vector_ocf@VCVertexO@@@vertex@vcg@@V?$vector_ocf@VCFaceO@@@face@3@UDummyContainer@tri@3@U673@U673@@tri@vcg@@@tri@vcg@@YA_NAEBV?$TriMesh@V?$vector_ocf@VCVertexO@@@vertex@vcg@@V?$vector_ocf@VCFaceO@@@face@3@UDummyContainer@tri@3@U673@U673@@01@@Z
	??$HasPerWedgeTexCoord@VCMeshO@@@tri@vcg@@YA_NAEBVCMeshO@@@Z
	??$HasPolyInfo@V?$vector@VPVertex@vcg@@V?$allocator@VPVertex@vcg@@@std@@@std@@V?$vector@VPEdge@vcg@@V?$allocator@VPEdge@vcg@@@std@@@2@V?$vector@VPFace@vcg@@V?$allocator@VPFace@vcg@@@std@@@2@UDummyContainer@tri@vcg@@@tri@vcg@@YA_NAEBV?$TriMesh@V?$vector@VPVertex@vcg@@V?$allocator@VPVertex@vcg@@@std@@@std@@V?$vector@VPEdge@vcg@@V?$allocator@VPEdge@vcg@@@std@@@2@V?$vector@VPFace@vcg@@V?$allocator@VPFace@vcg@@@std@@@2@UDummyContainer@tri@vcg@@U567@@01@@Z
	??$HasPolyInfo@V?$vector_ocf@VCVertexO@@@vertex@vcg@@V?$vector_ocf@VCFaceO@@@face@3@UDummyContainer@tri@3@U673@@tri@vcg@@YA_NAEBV?$TriMesh@V?$vector_ocf@VCVertexO@@@vertex@vcg@@V?$vector_ocf@VCFaceO@@@face@3@UDummyContainer@tri@3@U673@U673@@01@@Z
	??$HasTTAdjacency@V?$TriMesh@V?$vector_ocf@VCVertexO@@@vertex@vcg@@V?$vector_ocf@VCFaceO@@@face@3@UDummyContainer@tri@3@U673@U673@@tri@vcg@@@tri@vcg@@YA_NAEBV?$TriMesh@V?$vector_ocf@VCVertexO@@@vertex@vcg@@V?$vector_ocf@VCFaceO@@@face@3@UDummyContainer@tri@3@U673@U673@@01@@Z
	??$HasTTAdjacency@VCMeshO@@@tri@vcg@@YA_NAEBVCMeshO@@@Z
	??$HasVEAdjacency@V?$TriMesh@V?$vector_ocf@VCVertexO@@@vertex@vcg@@V?$vector_ocf@VCFaceO@@@face@3@UDummyContainer@tri@3@U673@U673@@tri@vcg@@@tri@vcg@@YA_NAEBV?$TriMesh@V?$vector_ocf@VCVertexO@@@vertex@vcg@@V?$vector_ocf@VCFaceO@@@face@3@UDummyContainer@tri@3@U673@U673@@01@@Z
	??$HasVEAdjacency@VCMeshO@@@tri@vcg@@YA_NAEBVCMeshO@@@Z
	??$HasVFAdjacency@VCMeshO@@@tri@vcg@@YA_NAEBVCMeshO@@@Z
	??$HasVHAdjacency@V?$vector_ocf@VCVertexO@@@vertex@vcg@@V?$vector_ocf@VCFaceO@@@face@3@UDummyContainer@tri@3@U673@@tri@vcg@@YA_NAEBV?$TriMesh@V?$vector_ocf@VCVertexO@@@vertex@vcg@@V?$vector_ocf@VCFaceO@@@face@3@UDummyContainer@tri@3@U673@U673@@01@@Z
	??$HasVTAdjacency@V?$TriMesh@V?$vector_ocf@VCVertexO@@@vertex@vcg@@V?$vector_ocf@VCFaceO@@@face@3@UDummyContainer@tri@3@U673@U673@@tri@vcg@@@tri@vcg@@YA_NAEBV?$TriMesh@V?$vector_ocf@VCVertexO@@@vertex@vcg@@V?$vector_ocf@VCFaceO@@@face@3@UDummyContainer@tri@3@U673@U673@@01@@Z
	??$HasVTAdjacency@VCMeshO@@@tri@vcg@@YA_NAEBVCMeshO@@@Z
	??$Import@H@?$Point2@H@vcg@@QEAAXAEBV01@@Z
	??$Import@M@?$Point2@M@vcg@@QEAAXAEBV01@@Z
	??$Import@M@?$Point3@M@vcg@@QEAAXAEBV01@@Z
	??$Import@_N@?$Point3@M@vcg@@QEAAXAEBV?$Point3@_N@1@@Z
	??$ImportData@V?$HEdge@V?$UsedTypes@UAsVertexType@?$Use@VCVertexO@@@vcg@@UAsEdgeType@?$Use@VCEdgeO@@@3@UAsFaceType@?$Use@VCFaceO@@@3@VDefaultDeriver@3@V83@V83@V83@V83@@vcg@@VDefaultDeriver@2@V32@V32@V32@V32@V32@V32@V32@V32@V32@V32@@vcg@@@?$EmptyBitFlags@V?$HEdgeTypeHolder@V?$UsedTypes@UAsVertexType@?$Use@VCVertexO@@@vcg@@UAsEdgeType@?$Use@VCEdgeO@@@3@UAsFaceType@?$Use@VCFaceO@@@3@VDefaultDeriver@3@V83@V83@V83@V83@@vcg@@@vcg@@@hedge@vcg@@QEAAXAEBV?$HEdge@V?$UsedTypes@UAsVertexType@?$Use@VCVertexO@@@vcg@@UAsEdgeType@?$Use@VCEdgeO@@@3@UAsFaceType@?$Use@VCFaceO@@@3@VDefaultDeriver@3@V83@V83@V83@V83@@vcg@@VDefaultDeriver@2@V32@V32@V32@V32@V32@V32@V32@V32@V32@V32@@2@@Z
	??$ImportData@V?$HEdge@V?$UsedTypes@UAsVertexType@?$Use@VCVertexO@@@vcg@@UAsEdgeType@?$Use@VCEdgeO@@@3@UAsFaceType@?$Use@VCFaceO@@@3@VDefaultDeriver@3@V83@V83@V83@V83@@vcg@@VDefaultDeriver@2@V32@V32@V32@V32@V32@V32@V32@V32@V32@V32@@vcg@@@?$EmptyHEAdj@V?$EmptyHPrevAdj@V?$EmptyBitFlags@V?$HEdgeTypeHolder@V?$UsedTypes@UAsVertexType@?$Use@VCVertexO@@@vcg@@UAsEdgeType@?$Use@VCEdgeO@@@3@UAsFaceType@?$Use@VCFaceO@@@3@VDefaultDeriver@3@V83@V83@V83@V83@@vcg@@@vcg@@@hedge@vcg@@@hedge@vcg@@@hedge@vcg@@QEAAXAEBV?$HEdge@V?$UsedTypes@UAsVertexType@?$Use@VCVertexO@@@vcg@@UAsEdgeType@?$Use@VCEdgeO@@@3@UAsFaceType@?$Use@VCFaceO@@@3@VDefaultDeriver@3@V83@V83@V83@V83@@vcg@@VDefaultDeriver@2@V32@V32@V32@V32@V32@V32@V32@V32@V32@V32@@2@@Z
	??$ImportData@V?$HEdge@V?$UsedTypes@UAsVertexType@?$Use@VCVertexO@@@vcg@@UAsEdgeType@?$Use@VCEdgeO@@@3@UAsFaceType@?$Use@VCFaceO@@@3@VDefaultDeriver@3@V83@V83@V83@V83@@vcg@@VDefaultDeriver@2@V32@V32@V32@V32@V32@V32@V32@V32@V32@V32@@vcg@@@?$EmptyHFAdj@V?$EmptyHOppAdj@V?$EmptyHNextAdj@V?$EmptyHVAdj@V?$EmptyHEAdj@V?$EmptyHPrevAdj@V?$EmptyBitFlags@V?$HEdgeTypeHolder@V?$UsedTypes@UAsVertexType@?$Use@VCVertexO@@@vcg@@UAsEdgeType@?$Use@VCEdgeO@@@3@UAsFaceType@?$Use@VCFaceO@@@3@VDefaultDeriver@3@V83@V83@V83@V83@@vcg@@@vcg@@@hedge@vcg@@@hedge@vcg@@@hedge@vcg@@@hedge@vcg@@@hedge@vcg@@@hedge@vcg@@@hedge@vcg@@QEAAXAEBV?$HEdge@V?$UsedTypes@UAsVertexType@?$Use@VCVertexO@@@vcg@@UAsEdgeType@?$Use@VCEdgeO@@@3@UAsFaceType@?$Use@VCFaceO@@@3@VDefaultDeriver@3@V83@V83@V83@V83@@vcg@@VDefaultDeriver@2@V32@V32@V32@V32@V32@V32@V32@V32@V32@V32@@2@@Z
	??$ImportData@V?$HEdge@V?$UsedTypes@UAsVertexType@?$Use@VCVertexO@@@vcg@@UAsEdgeType@?$Use@VCEdgeO@@@3@UAsFaceType@?$Use@VCFaceO@@@3@VDefaultDeriver@3@V83@V83@V83@V83@@vcg@@VDefaultDeriver@2@V32@V32@V32@V32@V32@V32@V32@V32@V32@V32@@vcg@@@?$EmptyHNextAdj@V?$EmptyHVAdj@V?$EmptyHEAdj@V?$EmptyHPrevAdj@V?$EmptyBitFlags@V?$HEdgeTypeHolder@V?$UsedTypes@UAsVertexType@?$Use@VCVertexO@@@vcg@@UAsEdgeType@?$Use@VCEdgeO@@@3@UAsFaceType@?$Use@VCFaceO@@@3@VDefaultDeriver@3@V83@V83@V83@V83@@vcg@@@vcg@@@hedge@vcg@@@hedge@vcg@@@hedge@vcg@@@hedge@vcg@@@hedge@vcg@@QEAAXAEBV?$HEdge@V?$UsedTypes@UAsVertexType@?$Use@VCVertexO@@@vcg@@UAsEdgeType@?$Use@VCEdgeO@@@3@UAsFaceType@?$Use@VCFaceO@@@3@VDefaultDeriver@3@V83@V83@V83@V83@@vcg@@VDefaultDeriver@2@V32@V32@V32@V32@V32@V32@V32@V32@V32@V32@@2@@Z
	??$ImportData@V?$HEdge@V?$UsedTypes@UAsVertexType@?$Use@VCVertexO@@@vcg@@UAsEdgeType@?$Use@VCEdgeO@@@3@UAsFaceType@?$Use@VCFaceO@@@3@VDefaultDeriver@3@V83@V83@V83@V83@@vcg@@VDefaultDeriver@2@V32@V32@V32@V32@V32@V32@V32@V32@V32@V32@@vcg@@@?$EmptyHOppAdj@V?$EmptyHNextAdj@V?$EmptyHVAdj@V?$EmptyHEAdj@V?$EmptyHPrevAdj@V?$EmptyBitFlags@V?$HEdgeTypeHolder@V?$UsedTypes@UAsVertexType@?$Use@VCVertexO@@@vcg@@UAsEdgeType@?$Use@VCEdgeO@@@3@UAsFaceType@?$Use@VCFaceO@@@3@VDefaultDeriver@3@V83@V83@V83@V83@@vcg@@@vcg@@@hedge@vcg@@@hedge@vcg@@@hedge@vcg@@@hedge@vcg@@@hedge@vcg@@@hedge@vcg@@QEAAXAEBV?$HEdge@V?$UsedTypes@UAsVertexType@?$Use@VCVertexO@@@vcg@@UAsEdgeType@?$Use@VCEdgeO@@@3@UAsFaceType@?$Use@VCFaceO@@@3@VDefaultDeriver@3@V83@V83@V83@V83@@vcg@@VDefaultDeriver@2@V32@V32@V32@V32@V32@V32@V32@V32@V32@V32@@2@@Z
	??$ImportData@V?$HEdge@V?$UsedTypes@UAsVertexType@?$Use@VCVertexO@@@vcg@@UAsEdgeType@?$Use@VCEdgeO@@@3@UAsFaceType@?$Use@VCFaceO@@@3@VDefaultDeriver@3@V83@V83@V83@V83@@vcg@@VDefaultDeriver@2@V32@V32@V32@V32@V32@V32@V32@V32@V32@V32@@vcg@@@?$EmptyHPrevAdj@V?$EmptyBitFlags@V?$HEdgeTypeHolder@V?$UsedTypes@UAsVertexType@?$Use@VCVertexO@@@vcg@@UAsEdgeType@?$Use@VCEdgeO@@@3@UAsFaceType@?$Use@VCFaceO@@@3@VDefaultDeriver@3@V83@V83@V83@V83@@vcg@@@vcg@@@hedge@vcg@@@hedge@vcg@@QEAAXAEBV?$HEdge@V?$UsedTypes@UAsVertexType@?$Use@VCVertexO@@@vcg@@UAsEdgeType@?$Use@VCEdgeO@@@3@UAsFaceType@?$Use@VCFaceO@@@3@VDefaultDeriver@3@V83@V83@V83@V83@@vcg@@VDefaultDeriver@2@V32@V32@V32@V32@V32@V32@V32@V32@V32@V32@@2@@Z
	??$ImportData@V?$HEdge@V?$UsedTypes@UAsVertexType@?$Use@VCVertexO@@@vcg@@UAsEdgeType@?$Use@VCEdgeO@@@3@UAsFaceType@?$Use@VCFaceO@@@3@VDefaultDeriver@3@V83@V83@V83@V83@@vcg@@VDefaultDeriver@2@V32@V32@V32@V32@V32@V32@V32@V32@V32@V32@@vcg@@@?$EmptyHVAdj@V?$EmptyHEAdj@V?$EmptyHPrevAdj@V?$EmptyBitFlags@V?$HEdgeTypeHolder@V?$UsedTypes@UAsVertexType@?$Use@VCVertexO@@@vcg@@UAsEdgeType@?$Use@VCEdgeO@@@3@UAsFaceType@?$Use@VCFaceO@@@3@VDefaultDeriver@3@V83@V83@V83@V83@@vcg@@@vcg@@@hedge@vcg@@@hedge@vcg@@@hedge@vcg@@@hedge@vcg@@QEAAXAEBV?$HEdge@V?$UsedTypes@UAsVertexType@?$Use@VCVertexO@@@vcg@@UAsEdgeType@?$Use@VCEdgeO@@@3@UAsFaceType@?$Use@VCFaceO@@@3@VDefaultDeriver@3@V83@V83@V83@V83@@vcg@@VDefaultDeriver@2@V32@V32@V32@V32@V32@V32@V32@V32@V32@V32@@2@@Z
	??$ImportData@V?$HEdge@V?$UsedTypes@UAsVertexType@?$Use@VCVertexO@@@vcg@@UAsEdgeType@?$Use@VCEdgeO@@@3@UAsFaceType@?$Use@VCFaceO@@@3@VDefaultDeriver@3@V83@V83@V83@V83@@vcg@@VDefaultDeriver@2@V32@V32@V32@V32@V32@V32@V32@V32@V32@V32@@vcg@@@?$HEdgeTypeHolder@V?$UsedTypes@UAsVertexType@?$Use@VCVertexO@@@vcg@@UAsEdgeType@?$Use@VCEdgeO@@@3@UAsFaceType@?$Use@VCFaceO@@@3@VDefaultDeriver@3@V83@V83@V83@V83@@vcg@@@vcg@@QEAAXAEBV?$HEdge@V?$UsedTypes@UAsVertexType@?$Use@VCVertexO@@@vcg@@UAsEdgeType@?$Use@VCEdgeO@@@3@UAsFaceType@?$Use@VCFaceO@@@3@VDefaultDeriver@3@V83@V83@V83@V83@@vcg@@VDefaultDeriver@2@V32@V32@V32@V32@V32@V32@V32@V32@V32@V32@@1@@Z
	??$ImportData@V?$TetraSimp@V?$UsedTypes@UAsVertexType@?$Use@VCVertexO@@@vcg@@UAsEdgeType@?$Use@VCEdgeO@@@3@UAsFaceType@?$Use@VCFaceO@@@3@VDefaultDeriver@3@V83@V83@V83@V83@@vcg@@VDefaultDeriver@2@V32@V32@V32@V32@V32@V32@V32@V32@V32@V32@V32@@vcg@@@?$EmptyCore@V?$TetraTypeHolder@V?$UsedTypes@UAsVertexType@?$Use@VCVertexO@@@vcg@@UAsEdgeType@?$Use@VCEdgeO@@@3@UAsFaceType@?$Use@VCFaceO@@@3@VDefaultDeriver@3@V83@V83@V83@V83@@vcg@@@vcg@@@tetrahedron@vcg@@QEAAXAEBV?$TetraSimp@V?$UsedTypes@UAsVertexType@?$Use@VCVertexO@@@vcg@@UAsEdgeType@?$Use@VCEdgeO@@@3@UAsFaceType@?$Use@VCFaceO@@@3@VDefaultDeriver@3@V83@V83@V83@V83@@vcg@@VDefaultDeriver@2@V32@V32@V32@V32@V32@V32@V32@V32@V32@V32@V32@@2@@Z
	??$ImportData@VCEdgeO@@@?$BitFlags@V?$EmptyCore@VCUsedTypesO@@@edge@vcg@@@edge@vcg@@QEAAXAEBVCEdgeO@@@Z
	??$ImportData@VCEdgeO@@@?$EEAdj@V?$Arity2@V?$EmptyCore@VCUsedTypesO@@@edge@vcg@@VBitFlags@23@VEVAdj@23@@vcg@@@edge@vcg@@QEAAXAEBVCEdgeO@@@Z
	??$ImportData@VCEdgeO@@@?$EmptyCore@VCUsedTypesO@@@edge@vcg@@QEAAXAEBVCEdgeO@@@Z
	??$ImportData@VCEdgeO@@@?$VertexRef@V?$Arity1@V?$EmptyCore@VCUsedTypesO@@@edge@vcg@@VBitFlags@23@@vcg@@@edge@vcg@@QEAAXAEBVCEdgeO@@@Z
	??$ImportData@VCEdgeO@@@DummyTypes@vcg@@QEAAXAEBVCEdgeO@@@Z
	??$ImportData@VCFaceO@@@?$BitFlags@V?$Arity2@V?$FaceBase@VCUsedTypesO@@@vcg@@VInfoOcf@face@2@VVertexRef@42@@vcg@@@face@vcg@@QEAAXAEBVCFaceO@@@Z
	??$ImportData@VCFaceO@@@?$ColorOcf@V?$Color4@E@vcg@@V?$Arity6@V?$FaceBase@VCUsedTypesO@@@vcg@@VInfoOcf@face@2@VVertexRef@42@VBitFlags@42@VNormal3m@42@VQualitymOcf@42@VMarkOcf@42@@2@@face@vcg@@QEAAXAEBVCFaceO@@@Z
	??$ImportData@VCFaceO@@@?$CurvatureDirOcf@U?$CurvatureDirOcfBaseType@M@face@vcg@@V?$Arity9@V?$FaceBase@VCUsedTypesO@@@vcg@@VInfoOcf@face@2@VVertexRef@42@VBitFlags@42@VNormal3m@42@VQualitymOcf@42@VMarkOcf@42@VColor4bOcf@42@VFFAdjOcf@42@VVFAdjOcf@42@@3@@face@vcg@@QEAAXAEBVCFaceO@@@Z
	??$ImportData@VCFaceO@@@?$EmptyCore@V?$FaceTypeHolder@VCUsedTypesO@@@vcg@@@face@vcg@@QEAAXAEBVCFaceO@@@Z
	??$ImportData@VCFaceO@@@?$FFAdjOcf@V?$Arity7@V?$FaceBase@VCUsedTypesO@@@vcg@@VInfoOcf@face@2@VVertexRef@42@VBitFlags@42@VNormal3m@42@VQualitymOcf@42@VMarkOcf@42@VColor4bOcf@42@@vcg@@@face@vcg@@QEAAXAEBVCFaceO@@@Z
	??$ImportData@VCFaceO@@@?$FaceTypeHolder@VCUsedTypesO@@@vcg@@QEAAXAEBVCFaceO@@@Z
	??$ImportData@VCFaceO@@@?$InfoOcf@V?$FaceBase@VCUsedTypesO@@@vcg@@@face@vcg@@QEAAXAEBVCFaceO@@@Z
	??$ImportData@VCFaceO@@@?$MarkOcf@V?$Arity5@V?$FaceBase@VCUsedTypesO@@@vcg@@VInfoOcf@face@2@VVertexRef@42@VBitFlags@42@VNormal3m@42@VQualitymOcf@42@@vcg@@@face@vcg@@QEAAXAEBVCFaceO@@@Z
	??$ImportData@VCFaceO@@@?$NormalAbs@V?$Point3@M@vcg@@V?$Arity3@V?$FaceBase@VCUsedTypesO@@@vcg@@VInfoOcf@face@2@VVertexRef@42@VBitFlags@42@@2@@face@vcg@@QEAAXAEBVCFaceO@@@Z
	??$ImportData@VCFaceO@@@?$QualityOcf@MV?$Arity4@V?$FaceBase@VCUsedTypesO@@@vcg@@VInfoOcf@face@2@VVertexRef@42@VBitFlags@42@VNormal3m@42@@vcg@@@face@vcg@@QEAAXAEBVCFaceO@@@Z
	??$ImportData@VCFaceO@@@?$VFAdjOcf@V?$Arity8@V?$FaceBase@VCUsedTypesO@@@vcg@@VInfoOcf@face@2@VVertexRef@42@VBitFlags@42@VNormal3m@42@VQualitymOcf@42@VMarkOcf@42@VColor4bOcf@42@VFFAdjOcf@42@@vcg@@@face@vcg@@QEAAXAEBVCFaceO@@@Z
	??$ImportData@VCFaceO@@@?$VertexRef@V?$Arity1@V?$FaceBase@VCUsedTypesO@@@vcg@@VInfoOcf@face@2@@vcg@@@face@vcg@@QEAAXAEBVCFaceO@@@Z
	??$ImportData@VCFaceO@@@?$WedgeTexCoordOcf@V?$TexCoord2@M$00@vcg@@V?$Arity10@V?$FaceBase@VCUsedTypesO@@@vcg@@VInfoOcf@face@2@VVertexRef@42@VBitFlags@42@VNormal3m@42@VQualitymOcf@42@VMarkOcf@42@VColor4bOcf@42@VFFAdjOcf@42@VVFAdjOcf@42@VCurvatureDirmOcf@42@@2@@face@vcg@@QEAAXAEBVCFaceO@@@Z
	??$ImportData@VCVertexO@@@?$BitFlags@V?$Arity2@V?$EmptyCore@VCUsedTypesO@@@vertex@vcg@@VInfoOcf@23@VCoord3m@23@@vcg@@@vertex@vcg@@QEAAXAEBVCVertexO@@@Z
	??$ImportData@VCVertexO@@@?$BitFlags@V?$Arity4@V?$EmptyCore@UPUsedTypes@vcg@@@vertex@vcg@@VCoord3f@23@VNormal3f@23@VQualityf@23@VColor4b@23@@vcg@@@vertex@vcg@@QEAAXAEBVCVertexO@@@Z
	??$ImportData@VCVertexO@@@?$Color@V?$Color4@E@vcg@@V?$Arity3@V?$EmptyCore@UPUsedTypes@vcg@@@vertex@vcg@@VCoord3f@23@VNormal3f@23@VQualityf@23@@2@@vertex@vcg@@QEAAXAEBVCVertexO@@@Z
	??$ImportData@VCVertexO@@@?$Color@V?$Color4@E@vcg@@V?$Arity5@V?$EmptyCore@VCUsedTypesO@@@vertex@vcg@@VInfoOcf@23@VCoord3m@23@VBitFlags@23@VNormal3m@23@VQualitym@23@@2@@vertex@vcg@@QEAAXAEBVCVertexO@@@Z
	??$ImportData@VCVertexO@@@?$Coord@V?$Point3@M@vcg@@V?$Arity1@V?$EmptyCore@VCUsedTypesO@@@vertex@vcg@@VInfoOcf@23@@2@@vertex@vcg@@QEAAXAEBVCVertexO@@@Z
	??$ImportData@VCVertexO@@@?$Coord@V?$Point3@M@vcg@@V?$EmptyCore@UPUsedTypes@vcg@@@vertex@2@@vertex@vcg@@QEAAXAEBVCVertexO@@@Z
	??$ImportData@VCVertexO@@@?$CurvatureDirOcf@U?$CurvatureDirTypeOcf@M@vertex@vcg@@V?$Arity9@V?$EmptyCore@VCUsedTypesO@@@vertex@vcg@@VInfoOcf@23@VCoord3m@23@VBitFlags@23@VNormal3m@23@VQualitym@23@VColor4b@23@VVFAdjOcf@23@VMarkOcf@23@VTexCoordfOcf@23@@3@@vertex@vcg@@QEAAXAEBVCVertexO@@@Z
	??$ImportData@VCVertexO@@@?$EmptyCore@UPUsedTypes@vcg@@@vertex@vcg@@QEAAXAEBVCVertexO@@@Z
	??$ImportData@VCVertexO@@@?$EmptyCore@VCUsedTypesO@@@vertex@vcg@@QEAAXAEBVCVertexO@@@Z
	??$ImportData@VCVertexO@@@?$MarkOcf@V?$Arity7@V?$EmptyCore@VCUsedTypesO@@@vertex@vcg@@VInfoOcf@23@VCoord3m@23@VBitFlags@23@VNormal3m@23@VQualitym@23@VColor4b@23@VVFAdjOcf@23@@vcg@@@vertex@vcg@@QEAAXAEBVCVertexO@@@Z
	??$ImportData@VCVertexO@@@?$Normal@V?$Point3@M@vcg@@V?$Arity1@V?$EmptyCore@UPUsedTypes@vcg@@@vertex@vcg@@VCoord3f@23@@2@@vertex@vcg@@QEAAXAEBVCVertexO@@@Z
	??$ImportData@VCVertexO@@@?$Normal@V?$Point3@M@vcg@@V?$Arity3@V?$EmptyCore@VCUsedTypesO@@@vertex@vcg@@VInfoOcf@23@VCoord3m@23@VBitFlags@23@@2@@vertex@vcg@@QEAAXAEBVCVertexO@@@Z
	??$ImportData@VCVertexO@@@?$Quality@MV?$Arity2@V?$EmptyCore@UPUsedTypes@vcg@@@vertex@vcg@@VCoord3f@23@VNormal3f@23@@vcg@@@vertex@vcg@@QEAAXAEBVCVertexO@@@Z
	??$ImportData@VCVertexO@@@?$Quality@MV?$Arity4@V?$EmptyCore@VCUsedTypesO@@@vertex@vcg@@VInfoOcf@23@VCoord3m@23@VBitFlags@23@VNormal3m@23@@vcg@@@vertex@vcg@@QEAAXAEBVCVertexO@@@Z
	??$ImportData@VCVertexO@@@?$RadiusOcf@MV?$Arity10@V?$EmptyCore@VCUsedTypesO@@@vertex@vcg@@VInfoOcf@23@VCoord3m@23@VBitFlags@23@VNormal3m@23@VQualitym@23@VColor4b@23@VVFAdjOcf@23@VMarkOcf@23@VTexCoordfOcf@23@VCurvatureDirmOcf@23@@vcg@@@vertex@vcg@@QEAAXAEBVCVertexO@@@Z
	??$ImportData@VCVertexO@@@?$TexCoordOcf@V?$TexCoord2@M$00@vcg@@V?$Arity8@V?$EmptyCore@VCUsedTypesO@@@vertex@vcg@@VInfoOcf@23@VCoord3m@23@VBitFlags@23@VNormal3m@23@VQualitym@23@VColor4b@23@VVFAdjOcf@23@VMarkOcf@23@@2@@vertex@vcg@@QEAAXAEBVCVertexO@@@Z
	??$ImportData@VCVertexO@@@?$VFAdjOcf@V?$Arity6@V?$EmptyCore@VCUsedTypesO@@@vertex@vcg@@VInfoOcf@23@VCoord3m@23@VBitFlags@23@VNormal3m@23@VQualitym@23@VColor4b@23@@vcg@@@vertex@vcg@@QEAAXAEBVCVertexO@@@Z
	??$ImportData@VPFace@vcg@@@?$BitFlags@V?$Arity2@V?$FaceBase@VCUsedTypesO@@@vcg@@VInfoOcf@face@2@VVertexRef@42@@vcg@@@face@vcg@@QEAAXAEBVPFace@2@@Z
	??$ImportData@VPFace@vcg@@@?$ColorOcf@V?$Color4@E@vcg@@V?$Arity6@V?$FaceBase@VCUsedTypesO@@@vcg@@VInfoOcf@face@2@VVertexRef@42@VBitFlags@42@VNormal3m@42@VQualitymOcf@42@VMarkOcf@42@@2@@face@vcg@@QEAAXAEBVPFace@2@@Z
	??$ImportData@VPFace@vcg@@@?$CurvatureDirOcf@U?$CurvatureDirOcfBaseType@M@face@vcg@@V?$Arity9@V?$FaceBase@VCUsedTypesO@@@vcg@@VInfoOcf@face@2@VVertexRef@42@VBitFlags@42@VNormal3m@42@VQualitymOcf@42@VMarkOcf@42@VColor4bOcf@42@VFFAdjOcf@42@VVFAdjOcf@42@@3@@face@vcg@@QEAAXAEBVPFace@2@@Z
	??$ImportData@VPFace@vcg@@@?$EmptyCore@V?$FaceTypeHolder@VCUsedTypesO@@@vcg@@@face@vcg@@QEAAXAEBVPFace@2@@Z
	??$ImportData@VPFace@vcg@@@?$FFAdjOcf@V?$Arity7@V?$FaceBase@VCUsedTypesO@@@vcg@@VInfoOcf@face@2@VVertexRef@42@VBitFlags@42@VNormal3m@42@VQualitymOcf@42@VMarkOcf@42@VColor4bOcf@42@@vcg@@@face@vcg@@QEAAXAEBVPFace@2@@Z
	??$ImportData@VPFace@vcg@@@?$FaceTypeHolder@VCUsedTypesO@@@vcg@@QEAAXAEBVPFace@1@@Z
	??$ImportData@VPFace@vcg@@@?$InfoOcf@V?$FaceBase@VCUsedTypesO@@@vcg@@@face@vcg@@QEAAXAEBVPFace@2@@Z
	??$ImportData@VPFace@vcg@@@?$MarkOcf@V?$Arity5@V?$FaceBase@VCUsedTypesO@@@vcg@@VInfoOcf@face@2@VVertexRef@42@VBitFlags@42@VNormal3m@42@VQualitymOcf@42@@vcg@@@face@vcg@@QEAAXAEBVPFace@2@@Z
	??$ImportData@VPFace@vcg@@@?$NormalAbs@V?$Point3@M@vcg@@V?$Arity3@V?$FaceBase@VCUsedTypesO@@@vcg@@VInfoOcf@face@2@VVertexRef@42@VBitFlags@42@@2@@face@vcg@@QEAAXAEBVPFace@2@@Z
	??$ImportData@VPFace@vcg@@@?$QualityOcf@MV?$Arity4@V?$FaceBase@VCUsedTypesO@@@vcg@@VInfoOcf@face@2@VVertexRef@42@VBitFlags@42@VNormal3m@42@@vcg@@@face@vcg@@QEAAXAEBVPFace@2@@Z
	??$ImportData@VPFace@vcg@@@?$VFAdjOcf@V?$Arity8@V?$FaceBase@VCUsedTypesO@@@vcg@@VInfoOcf@face@2@VVertexRef@42@VBitFlags@42@VNormal3m@42@VQualitymOcf@42@VMarkOcf@42@VColor4bOcf@42@VFFAdjOcf@42@@vcg@@@face@vcg@@QEAAXAEBVPFace@2@@Z
	??$ImportData@VPFace@vcg@@@?$VertexRef@V?$Arity1@V?$FaceBase@VCUsedTypesO@@@vcg@@VInfoOcf@face@2@@vcg@@@face@vcg@@QEAAXAEBVPFace@2@@Z
	??$ImportData@VPFace@vcg@@@?$WedgeTexCoordOcf@V?$TexCoord2@M$00@vcg@@V?$Arity10@V?$FaceBase@VCUsedTypesO@@@vcg@@VInfoOcf@face@2@VVertexRef@42@VBitFlags@42@VNormal3m@42@VQualitymOcf@42@VMarkOcf@42@VColor4bOcf@42@VFFAdjOcf@42@VVFAdjOcf@42@VCurvatureDirmOcf@42@@2@@face@vcg@@QEAAXAEBVPFace@2@@Z
	??$ImportData@VPVertex@vcg@@@?$BitFlags@V?$Arity2@V?$EmptyCore@VCUsedTypesO@@@vertex@vcg@@VInfoOcf@23@VCoord3m@23@@vcg@@@vertex@vcg@@QEAAXAEBVPVertex@2@@Z
	??$ImportData@VPVertex@vcg@@@?$Color@V?$Color4@E@vcg@@V?$Arity5@V?$EmptyCore@VCUsedTypesO@@@vertex@vcg@@VInfoOcf@23@VCoord3m@23@VBitFlags@23@VNormal3m@23@VQualitym@23@@2@@vertex@vcg@@QEAAXAEBVPVertex@2@@Z
	??$ImportData@VPVertex@vcg@@@?$Coord@V?$Point3@M@vcg@@V?$Arity1@V?$EmptyCore@VCUsedTypesO@@@vertex@vcg@@VInfoOcf@23@@2@@vertex@vcg@@QEAAXAEBVPVertex@2@@Z
	??$ImportData@VPVertex@vcg@@@?$CurvatureDirOcf@U?$CurvatureDirTypeOcf@M@vertex@vcg@@V?$Arity9@V?$EmptyCore@VCUsedTypesO@@@vertex@vcg@@VInfoOcf@23@VCoord3m@23@VBitFlags@23@VNormal3m@23@VQualitym@23@VColor4b@23@VVFAdjOcf@23@VMarkOcf@23@VTexCoordfOcf@23@@3@@vertex@vcg@@QEAAXAEBVPVertex@2@@Z
	??$ImportData@VPVertex@vcg@@@?$EmptyCore@VCUsedTypesO@@@vertex@vcg@@QEAAXAEBVPVertex@2@@Z
	??$ImportData@VPVertex@vcg@@@?$MarkOcf@V?$Arity7@V?$EmptyCore@VCUsedTypesO@@@vertex@vcg@@VInfoOcf@23@VCoord3m@23@VBitFlags@23@VNormal3m@23@VQualitym@23@VColor4b@23@VVFAdjOcf@23@@vcg@@@vertex@vcg@@QEAAXAEBVPVertex@2@@Z
	??$ImportData@VPVertex@vcg@@@?$Normal@V?$Point3@M@vcg@@V?$Arity3@V?$EmptyCore@VCUsedTypesO@@@vertex@vcg@@VInfoOcf@23@VCoord3m@23@VBitFlags@23@@2@@vertex@vcg@@QEAAXAEBVPVertex@2@@Z
	??$ImportData@VPVertex@vcg@@@?$Quality@MV?$Arity4@V?$EmptyCore@VCUsedTypesO@@@vertex@vcg@@VInfoOcf@23@VCoord3m@23@VBitFlags@23@VNormal3m@23@@vcg@@@vertex@vcg@@QEAAXAEBVPVertex@2@@Z
	??$ImportData@VPVertex@vcg@@@?$RadiusOcf@MV?$Arity10@V?$EmptyCore@VCUsedTypesO@@@vertex@vcg@@VInfoOcf@23@VCoord3m@23@VBitFlags@23@VNormal3m@23@VQualitym@23@VColor4b@23@VVFAdjOcf@23@VMarkOcf@23@VTexCoordfOcf@23@VCurvatureDirmOcf@23@@vcg@@@vertex@vcg@@QEAAXAEBVPVertex@2@@Z
	??$ImportData@VPVertex@vcg@@@?$TexCoordOcf@V?$TexCoord2@M$00@vcg@@V?$Arity8@V?$EmptyCore@VCUsedTypesO@@@vertex@vcg@@VInfoOcf@23@VCoord3m@23@VBitFlags@23@VNormal3m@23@VQualitym@23@VColor4b@23@VVFAdjOcf@23@VMarkOcf@23@@2@@vertex@vcg@@QEAAXAEBVPVertex@2@@Z
	??$ImportData@VPVertex@vcg@@@?$VFAdjOcf@V?$Arity6@V?$EmptyCore@VCUsedTypesO@@@vertex@vcg@@VInfoOcf@23@VCoord3m@23@VBitFlags@23@VNormal3m@23@VQualitym@23@VColor4b@23@@vcg@@@vertex@vcg@@QEAAXAEBVPVertex@2@@Z
	??$Index@V?$TriMesh@V?$vector_ocf@VCVertexO@@@vertex@vcg@@V?$vector_ocf@VCFaceO@@@face@3@UDummyContainer@tri@3@U673@U673@@tri@vcg@@@tri@vcg@@YA_KAEBV?$TriMesh@V?$vector_ocf@VCVertexO@@@vertex@vcg@@V?$vector_ocf@VCFaceO@@@face@3@UDummyContainer@tri@3@U673@U673@@01@AEBV?$HEdge@V?$UsedTypes@UAsVertexType@?$Use@VCVertexO@@@vcg@@UAsEdgeType@?$Use@VCEdgeO@@@3@UAsFaceType@?$Use@VCFaceO@@@3@VDefaultDeriver@3@V83@V83@V83@V83@@vcg@@VDefaultDeriver@2@V32@V32@V32@V32@V32@V32@V32@V32@V32@V32@@1@@Z
	??$Index@V?$TriMesh@V?$vector_ocf@VCVertexO@@@vertex@vcg@@V?$vector_ocf@VCFaceO@@@face@3@UDummyContainer@tri@3@U673@U673@@tri@vcg@@@tri@vcg@@YA_KAEBV?$TriMesh@V?$vector_ocf@VCVertexO@@@vertex@vcg@@V?$vector_ocf@VCFaceO@@@face@3@UDummyContainer@tri@3@U673@U673@@01@AEBV?$TetraSimp@V?$UsedTypes@UAsVertexType@?$Use@VCVertexO@@@vcg@@UAsEdgeType@?$Use@VCEdgeO@@@3@UAsFaceType@?$Use@VCFaceO@@@3@VDefaultDeriver@3@V83@V83@V83@V83@@vcg@@VDefaultDeriver@2@V32@V32@V32@V32@V32@V32@V32@V32@V32@V32@V32@@1@@Z
	??$Index@V?$TriMesh@V?$vector_ocf@VCVertexO@@@vertex@vcg@@V?$vector_ocf@VCFaceO@@@face@3@UDummyContainer@tri@3@U673@U673@@tri@vcg@@@tri@vcg@@YA_KAEBV?$TriMesh@V?$vector_ocf@VCVertexO@@@vertex@vcg@@V?$vector_ocf@VCFaceO@@@face@3@UDummyContainer@tri@3@U673@U673@@01@AEBVCEdgeO@@@Z
	??$Index@V?$TriMesh@V?$vector_ocf@VCVertexO@@@vertex@vcg@@V?$vector_ocf@VCFaceO@@@face@3@UDummyContainer@tri@3@U673@U673@@tri@vcg@@@tri@vcg@@YA_KAEBV?$TriMesh@V?$vector_ocf@VCVertexO@@@vertex@vcg@@V?$vector_ocf@VCFaceO@@@face@3@UDummyContainer@tri@3@U673@U673@@01@AEBVCFaceO@@@Z
	??$Index@V?$TriMesh@V?$vector_ocf@VCVertexO@@@vertex@vcg@@V?$vector_ocf@VCFaceO@@@face@3@UDummyContainer@tri@3@U673@U673@@tri@vcg@@@tri@vcg@@YA_KAEBV?$TriMesh@V?$vector_ocf@VCVertexO@@@vertex@vcg@@V?$vector_ocf@VCFaceO@@@face@3@UDummyContainer@tri@3@U673@U673@@01@AEBVCVertexO@@@Z
	??$Index@V?$TriMesh@V?$vector_ocf@VCVertexO@@@vertex@vcg@@V?$vector_ocf@VCFaceO@@@face@3@UDummyContainer@tri@3@U673@U673@@tri@vcg@@@tri@vcg@@YA_KAEBV?$TriMesh@V?$vector_ocf@VCVertexO@@@vertex@vcg@@V?$vector_ocf@VCFaceO@@@face@3@UDummyContainer@tri@3@U673@U673@@01@PEBV?$HEdge@V?$UsedTypes@UAsVertexType@?$Use@VCVertexO@@@vcg@@UAsEdgeType@?$Use@VCEdgeO@@@3@UAsFaceType@?$Use@VCFaceO@@@3@VDefaultDeriver@3@V83@V83@V83@V83@@vcg@@VDefaultDeriver@2@V32@V32@V32@V32@V32@V32@V32@V32@V32@V32@@1@@Z
	??$Index@V?$TriMesh@V?$vector_ocf@VCVertexO@@@vertex@vcg@@V?$vector_ocf@VCFaceO@@@face@3@UDummyContainer@tri@3@U673@U673@@tri@vcg@@@tri@vcg@@YA_KAEBV?$TriMesh@V?$vector_ocf@VCVertexO@@@vertex@vcg@@V?$vector_ocf@VCFaceO@@@face@3@UDummyContainer@tri@3@U673@U673@@01@PEBV?$TetraSimp@V?$UsedTypes@UAsVertexType@?$Use@VCVertexO@@@vcg@@UAsEdgeType@?$Use@VCEdgeO@@@3@UAsFaceType@?$Use@VCFaceO@@@3@VDefaultDeriver@3@V83@V83@V83@V83@@vcg@@VDefaultDeriver@2@V32@V32@V32@V32@V32@V32@V32@V32@V32@V32@V32@@1@@Z
	??$Index@V?$TriMesh@V?$vector_ocf@VCVertexO@@@vertex@vcg@@V?$vector_ocf@VCFaceO@@@face@3@UDummyContainer@tri@3@U673@U673@@tri@vcg@@@tri@vcg@@YA_KAEBV?$TriMesh@V?$vector_ocf@VCVertexO@@@vertex@vcg@@V?$vector_ocf@VCFaceO@@@face@3@UDummyContainer@tri@3@U673@U673@@01@PEBVCEdgeO@@@Z
	??$Index@V?$TriMesh@V?$vector_ocf@VCVertexO@@@vertex@vcg@@V?$vector_ocf@VCFaceO@@@face@3@UDummyContainer@tri@3@U673@U673@@tri@vcg@@@tri@vcg@@YA_KAEBV?$TriMesh@V?$vector_ocf@VCVertexO@@@vertex@vcg@@V?$vector_ocf@VCFaceO@@@face@3@UDummyContainer@tri@3@U673@U673@@01@PEBVCFaceO@@@Z
	??$Index@V?$TriMesh@V?$vector_ocf@VCVertexO@@@vertex@vcg@@V?$vector_ocf@VCFaceO@@@face@3@UDummyContainer@tri@3@U673@U673@@tri@vcg@@@tri@vcg@@YA_KAEBV?$TriMesh@V?$vector_ocf@VCVertexO@@@vertex@vcg@@V?$vector_ocf@VCFaceO@@@face@3@UDummyContainer@tri@3@U673@U673@@01@PEBVCVertexO@@@Z
	??$Index@VCMeshO@@@tri@vcg@@YA_KAEBVCMeshO@@PEBVCVertexO@@@Z
	??$Index@VPolyMesh@@@tri@vcg@@YA_KAEBVPolyMesh@@AEBVPFace@1@@Z
	??$Index@VPolyMesh@@@tri@vcg@@YA_KAEBVPolyMesh@@PEBVPVertex@1@@Z
	??$Intersect@M@vcg@@YA_N_KHAEAV?$vector@HV?$allocator@H@std@@@std@@AEAV?$vector@V?$Point2@M@vcg@@V?$allocator@V?$Point2@M@vcg@@@std@@@2@@Z
	??$IsNAN@M@math@vcg@@YAHM@Z
	??$IsValidHandle@M@?$Allocator@VCMeshO@@@tri@vcg@@SA_NAEBVCMeshO@@AEBV?$ConstPerFaceAttributeHandle@M@?$TriMesh@V?$vector_ocf@VCVertexO@@@vertex@vcg@@V?$vector_ocf@VCFaceO@@@face@3@UDummyContainer@tri@3@U673@U673@@12@@Z
	??$IsValidHandle@M@?$Allocator@VCMeshO@@@tri@vcg@@SA_NAEBVCMeshO@@AEBV?$ConstPerVertexAttributeHandle@M@?$TriMesh@V?$vector_ocf@VCVertexO@@@vertex@vcg@@V?$vector_ocf@VCFaceO@@@face@3@UDummyContainer@tri@3@U673@U673@@12@@Z
	??$IsValidHandle@M@?$Allocator@VCMeshO@@@tri@vcg@@SA_NAEBVCMeshO@@AEBV?$PerFaceAttributeHandle@M@?$TriMesh@V?$vector_ocf@VCVertexO@@@vertex@vcg@@V?$vector_ocf@VCFaceO@@@face@3@UDummyContainer@tri@3@U673@U673@@12@@Z
	??$IsValidHandle@M@?$Allocator@VCMeshO@@@tri@vcg@@SA_NAEBVCMeshO@@AEBV?$PerVertexAttributeHandle@M@?$TriMesh@V?$vector_ocf@VCVertexO@@@vertex@vcg@@V?$vector_ocf@VCFaceO@@@face@3@UDummyContainer@tri@3@U673@U673@@12@@Z
	??$IsValidHandle@V?$Point3@M@vcg@@@?$Allocator@VCMeshO@@@tri@vcg@@SA_NAEBVCMeshO@@AEBV?$ConstPerFaceAttributeHandle@V?$Point3@M@vcg@@@?$TriMesh@V?$vector_ocf@VCVertexO@@@vertex@vcg@@V?$vector_ocf@VCFaceO@@@face@3@UDummyContainer@tri@3@U673@U673@@12@@Z
	??$IsValidHandle@V?$Point3@M@vcg@@@?$Allocator@VCMeshO@@@tri@vcg@@SA_NAEBVCMeshO@@AEBV?$ConstPerVertexAttributeHandle@V?$Point3@M@vcg@@@?$TriMesh@V?$vector_ocf@VCVertexO@@@vertex@vcg@@V?$vector_ocf@VCFaceO@@@face@3@UDummyContainer@tri@3@U673@U673@@12@@Z
	??$IsValidHandle@V?$Point3@M@vcg@@@?$Allocator@VCMeshO@@@tri@vcg@@SA_NAEBVCMeshO@@AEBV?$PerFaceAttributeHandle@V?$Point3@M@vcg@@@?$TriMesh@V?$vector_ocf@VCVertexO@@@vertex@vcg@@V?$vector_ocf@VCFaceO@@@face@3@UDummyContainer@tri@3@U673@U673@@12@@Z
	??$IsValidHandle@V?$Point3@M@vcg@@@?$Allocator@VCMeshO@@@tri@vcg@@SA_NAEBVCMeshO@@AEBV?$PerVertexAttributeHandle@V?$Point3@M@vcg@@@?$TriMesh@V?$vector_ocf@VCVertexO@@@vertex@vcg@@V?$vector_ocf@VCFaceO@@@face@3@UDummyContainer@tri@3@U673@U673@@12@@Z
	??$Norm@M@vcg@@YAMAEBV?$Point3@M@0@@Z
	??$ReorderAttribute@VCMeshO@@V?$set@VPointerToAttribute@vcg@@U?$less@VPointerToAttribute@vcg@@@std@@V?$allocator@VPointerToAttribute@vcg@@@4@@std@@@tri@vcg@@YAXAEAV?$set@VPointerToAttribute@vcg@@U?$less@VPointerToAttribute@vcg@@@std@@V?$allocator@VPointerToAttribute@vcg@@@4@@std@@AEAV?$vector@_KV?$allocator@_K@std@@@3@AEAVCMeshO@@@Z
	??$RequireCompactness@VCMeshO@@@tri@vcg@@YAXAEBVCMeshO@@@Z
	??$RequireEdgeCompactness@VCMeshO@@@tri@vcg@@YAXAEBVCMeshO@@@Z
	??$RequireFFAdjacency@VCMeshO@@@tri@vcg@@YAXAEBVCMeshO@@@Z
	??$RequireFaceCompactness@VCMeshO@@@tri@vcg@@YAXAEBVCMeshO@@@Z
	??$RequirePerFaceColor@VCMeshO@@@tri@vcg@@YAXAEBVCMeshO@@@Z
	??$RequirePerFaceCurvatureDir@VCMeshO@@@tri@vcg@@YAXAEBVCMeshO@@@Z
	??$RequirePerFaceFlags@VCMeshO@@@tri@vcg@@YAXAEBVCMeshO@@@Z
	??$RequirePerFaceNormal@VCMeshO@@@tri@vcg@@YAXAEBVCMeshO@@@Z
	??$RequirePerFaceQuality@VCMeshO@@@tri@vcg@@YAXAEBVCMeshO@@@Z
	??$RequirePerFaceWedgeTexCoord@VCMeshO@@@tri@vcg@@YAXAEBVCMeshO@@@Z
	??$RequirePerVertexCurvatureDir@VCMeshO@@@tri@vcg@@YAXAEBVCMeshO@@@Z
	??$RequirePerVertexFlags@VCMeshO@@@tri@vcg@@YAXAEBVCMeshO@@@Z
	??$RequirePerVertexNormal@VCMeshO@@@tri@vcg@@YAXAEBVCMeshO@@@Z
	??$RequirePerVertexQuality@VCMeshO@@@tri@vcg@@YAXAEBVCMeshO@@@Z
	??$RequirePerVertexTexCoord@VCMeshO@@@tri@vcg@@YAXAEBVCMeshO@@@Z
	??$RequirePolygonalMesh@VPolyMesh@@@tri@vcg@@YAXAEBVPolyMesh@@@Z
	??$RequireTetraCompactness@VCMeshO@@@tri@vcg@@YAXAEBVCMeshO@@@Z
	??$RequireTriangularMesh@VCMeshO@@@tri@vcg@@YAXAEBVCMeshO@@@Z
	??$RequireVFAdjacency@VCMeshO@@@tri@vcg@@YAXAEBVCMeshO@@@Z
	??$RequireVertexCompactness@VCMeshO@@@tri@vcg@@YAXAEBVCMeshO@@@Z
	??$ResizeAttribute@VCMeshO@@V?$set@VPointerToAttribute@vcg@@U?$less@VPointerToAttribute@vcg@@@std@@V?$allocator@VPointerToAttribute@vcg@@@4@@std@@@tri@vcg@@YAXAEAV?$set@VPointerToAttribute@vcg@@U?$less@VPointerToAttribute@vcg@@@std@@V?$allocator@VPointerToAttribute@vcg@@@4@@std@@_KAEAVCMeshO@@@Z
	??$TessellatePlanarPolygon2@V?$vector@V?$Point2@M@vcg@@V?$allocator@V?$Point2@M@vcg@@@std@@@std@@@vcg@@YAXAEAV?$vector@V?$Point2@M@vcg@@V?$allocator@V?$Point2@M@vcg@@@std@@@std@@AEAV?$vector@HV?$allocator@H@std@@@2@@Z
	??$TessellatePlanarPolygon3@V?$vector@V?$Point3@M@vcg@@V?$allocator@V?$Point3@M@vcg@@@std@@@std@@@vcg@@YAXAEAV?$vector@V?$Point3@M@vcg@@V?$allocator@V?$Point3@M@vcg@@@std@@@std@@AEAV?$vector@HV?$allocator@H@std@@@2@@Z
	??$TetraVectorHasTTAdjacency@V?$TetraSimp@V?$UsedTypes@UAsVertexType@?$Use@VCVertexO@@@vcg@@UAsEdgeType@?$Use@VCEdgeO@@@3@UAsFaceType@?$Use@VCFaceO@@@3@VDefaultDeriver@3@V83@V83@V83@V83@@vcg@@VDefaultDeriver@2@V32@V32@V32@V32@V32@V32@V32@V32@V32@V32@V32@@vcg@@@tri@vcg@@YA_NAEBV?$vector@V?$TetraSimp@V?$UsedTypes@UAsVertexType@?$Use@VCVertexO@@@vcg@@UAsEdgeType@?$Use@VCEdgeO@@@3@UAsFaceType@?$Use@VCFaceO@@@3@VDefaultDeriver@3@V83@V83@V83@V83@@vcg@@VDefaultDeriver@2@V32@V32@V32@V32@V32@V32@V32@V32@V32@V32@V32@@vcg@@V?$allocator@V?$TetraSimp@V?$UsedTypes@UAsVertexType@?$Use@VCVertexO@@@vcg@@UAsEdgeType@?$Use@VCEdgeO@@@3@UAsFaceType@?$Use@VCFaceO@@@3@VDefaultDeriver@3@V83@V83@V83@V83@@vcg@@VDefaultDeriver@2@V32@V32@V32@V32@V32@V32@V32@V32@V32@V32@V32@@vcg@@@std@@@std@@@Z
	??$TetraVectorHasVTAdjacency@V?$TetraSimp@V?$UsedTypes@UAsVertexType@?$Use@VCVertexO@@@vcg@@UAsEdgeType@?$Use@VCEdgeO@@@3@UAsFaceType@?$Use@VCFaceO@@@3@VDefaultDeriver@3@V83@V83@V83@V83@@vcg@@VDefaultDeriver@2@V32@V32@V32@V32@V32@V32@V32@V32@V32@V32@V32@@vcg@@@tri@vcg@@YA_NAEBV?$vector@V?$TetraSimp@V?$UsedTypes@UAsVertexType@?$Use@VCVertexO@@@vcg@@UAsEdgeType@?$Use@VCEdgeO@@@3@UAsFaceType@?$Use@VCFaceO@@@3@VDefaultDeriver@3@V83@V83@V83@V83@@vcg@@VDefaultDeriver@2@V32@V32@V32@V32@V32@V32@V32@V32@V32@V32@V32@@vcg@@V?$allocator@V?$TetraSimp@V?$UsedTypes@UAsVertexType@?$Use@VCVertexO@@@vcg@@UAsEdgeType@?$Use@VCEdgeO@@@3@UAsFaceType@?$Use@VCFaceO@@@3@VDefaultDeriver@3@V83@V83@V83@V83@@vcg@@VDefaultDeriver@2@V32@V32@V32@V32@V32@V32@V32@V32@V32@V32@V32@@vcg@@@std@@@std@@@Z
	??$Transpose@M@vcg@@YAAEAV?$Matrix44@M@0@AEAV10@@Z
	??$TriangleNormal@VCFaceO@@@vcg@@YA?AV?$Point3@M@0@AEBVCFaceO@@@Z
	??$VertexVectorHasPerVertexColor@VCVertexO@@@tri@vcg@@YA_NAEBV?$vector_ocf@VCVertexO@@@vertex@1@@Z
	??$VertexVectorHasPerVertexCurvatureDir@VCVertexO@@@tri@vcg@@YA_NAEBV?$vector_ocf@VCVertexO@@@vertex@1@@Z
	??$VertexVectorHasPerVertexFlags@VCVertexO@@@tri@vcg@@YA_NAEBV?$vector@VCVertexO@@V?$allocator@VCVertexO@@@std@@@std@@@Z
	??$VertexVectorHasPerVertexNormal@VCVertexO@@@tri@vcg@@YA_NAEBV?$vector_ocf@VCVertexO@@@vertex@1@@Z
	??$VertexVectorHasPerVertexQuality@VCVertexO@@@tri@vcg@@YA_NAEBV?$vector_ocf@VCVertexO@@@vertex@1@@Z
	??$VertexVectorHasPerVertexTexCoord@VCVertexO@@@tri@vcg@@YA_NAEBV?$vector_ocf@VCVertexO@@@vertex@1@@Z
	??$VertexVectorHasVEAdjacency@VCVertexO@@@tri@vcg@@YA_NAEBV?$vector@VCVertexO@@V?$allocator@VCVertexO@@@std@@@std@@@Z
	??$VertexVectorHasVFAdjacency@VCVertexO@@@tri@vcg@@YA_NAEBV?$vector_ocf@VCVertexO@@@vertex@1@@Z
	??$VertexVectorHasVFAdjacency@VPVertex@vcg@@@tri@vcg@@YA_NAEBV?$vector@VPVertex@vcg@@V?$allocator@VPVertex@vcg@@@std@@@std@@@Z
	??$VertexVectorHasVTAdjacency@VCVertexO@@@tri@vcg@@YA_NAEBV?$vector@VCVertexO@@V?$allocator@VCVertexO@@@std@@@std@@@Z
	??$_Adl_verify_range@PEADPEAD@std@@YAXAEBQEAD0@Z
	??$_Adl_verify_range@PEAIPEAI@std@@YAXAEBQEAI0@Z
	??$_Adl_verify_range@PEAV?$basic_string@DU?$char_traits@D@std@@V?$allocator@D@2@@std@@PEAV12@@std@@YAXAEBQEAV?$basic_string@DU?$char_traits@D@std@@V?$allocator@D@2@@0@0@Z
	??$_Adl_verify_range@PEAVInternalRendAtts@GLMeshAttributesInfo@vcg@@PEAV123@@std@@YAXAEBQEAVInternalRendAtts@GLMeshAttributesInfo@vcg@@0@Z
	??$_Adl_verify_range@PEBMPEBM@std@@YAXAEBQEBM0@Z
	??$_Adl_verify_range@PEBVQString@@PEBV1@@std@@YAXAEBQEBVQString@@0@Z
	??$_Adl_verify_range@V?$_List_const_iterator@V?$_List_val@U?$_List_simple_types@VFunctionParameter@pymeshlab@@@std@@@std@@@std@@V12@@std@@YAXAEBV?$_List_const_iterator@V?$_List_val@U?$_List_simple_types@VFunctionParameter@pymeshlab@@@std@@@std@@@0@0@Z
	??$_Adl_verify_range@V?$_List_iterator@V?$_List_val@U?$_List_simple_types@PEAVQAction@@@std@@@std@@@std@@V12@@std@@YAXAEBV?$_List_iterator@V?$_List_val@U?$_List_simple_types@PEAVQAction@@@std@@@std@@@0@0@Z
	??$_Adl_verify_range@V?$_List_iterator@V?$_List_val@U?$_List_simple_types@V?$basic_string@DU?$char_traits@D@std@@V?$allocator@D@2@@std@@@std@@@std@@@std@@V12@@std@@YAXAEBV?$_List_iterator@V?$_List_val@U?$_List_simple_types@V?$basic_string@DU?$char_traits@D@std@@V?$allocator@D@2@@std@@@std@@@std@@@0@0@Z
	??$_Adl_verify_range@V?$_Tree_unchecked_const_iterator@V?$_Tree_val@U?$_Tree_simple_types@U?$pair@QEAVQGLContext@@V?$PerViewData@UMLPerViewGLOptions@@@vcg@@@std@@@std@@@std@@U_Iterator_base0@2@@std@@V12@@std@@YAXAEBV?$_Tree_unchecked_const_iterator@V?$_Tree_val@U?$_Tree_simple_types@U?$pair@QEAVQGLContext@@V?$PerViewData@UMLPerViewGLOptions@@@vcg@@@std@@@std@@@std@@U_Iterator_base0@2@@0@0@Z
	??$_Adl_verify_range@V?$_Vb_iterator@U?$_Wrap_alloc@V?$allocator@I@std@@@std@@@std@@V12@@std@@YAXAEBV?$_Vb_iterator@U?$_Wrap_alloc@V?$allocator@I@std@@@std@@@0@0@Z
	??$_Adl_verify_range@V?$_Vector_iterator@V?$_Vector_val@U?$_Simple_types@I@std@@@std@@@std@@V12@@std@@YAXAEBV?$_Vector_iterator@V?$_Vector_val@U?$_Simple_types@I@std@@@std@@@0@0@Z
	??$_Adl_verify_range@V?$_Vector_iterator@V?$_Vector_val@U?$_Simple_types@PEAVCVertexO@@@std@@@std@@@std@@V12@@std@@YAXAEBV?$_Vector_iterator@V?$_Vector_val@U?$_Simple_types@PEAVCVertexO@@@std@@@std@@@0@0@Z
	??$_Adl_verify_range@V?$_Vector_iterator@V?$_Vector_val@U?$_Simple_types@PEAVDecoratePlugin@@@std@@@std@@@std@@V12@@std@@YAXAEBV?$_Vector_iterator@V?$_Vector_val@U?$_Simple_types@PEAVDecoratePlugin@@@std@@@std@@@0@0@Z
	??$_Adl_verify_range@V?$_Vector_iterator@V?$_Vector_val@U?$_Simple_types@PEAVEditPlugin@@@std@@@std@@@std@@V12@@std@@YAXAEBV?$_Vector_iterator@V?$_Vector_val@U?$_Simple_types@PEAVEditPlugin@@@std@@@std@@@0@0@Z
	??$_Adl_verify_range@V?$_Vector_iterator@V?$_Vector_val@U?$_Simple_types@PEAVFilterPlugin@@@std@@@std@@@std@@V12@@std@@YAXAEBV?$_Vector_iterator@V?$_Vector_val@U?$_Simple_types@PEAVFilterPlugin@@@std@@@std@@@0@0@Z
	??$_Adl_verify_range@V?$_Vector_iterator@V?$_Vector_val@U?$_Simple_types@PEAVIOPlugin@@@std@@@std@@@std@@V12@@std@@YAXAEBV?$_Vector_iterator@V?$_Vector_val@U?$_Simple_types@PEAVIOPlugin@@@std@@@std@@@0@0@Z
	??$_Adl_verify_range@V?$_Vector_iterator@V?$_Vector_val@U?$_Simple_types@PEAVMeshLabPlugin@@@std@@@std@@@std@@V12@@std@@YAXAEBV?$_Vector_iterator@V?$_Vector_val@U?$_Simple_types@PEAVMeshLabPlugin@@@std@@@std@@@0@0@Z
	??$_Adl_verify_range@V?$_Vector_iterator@V?$_Vector_val@U?$_Simple_types@PEAVQAction@@@std@@@std@@@std@@V12@@std@@YAXAEBV?$_Vector_iterator@V?$_Vector_val@U?$_Simple_types@PEAVQAction@@@std@@@std@@@0@0@Z
	??$_Adl_verify_range@V?$_Vector_iterator@V?$_Vector_val@U?$_Simple_types@PEAVRenderPlugin@@@std@@@std@@@std@@V12@@std@@YAXAEBV?$_Vector_iterator@V?$_Vector_val@U?$_Simple_types@PEAVRenderPlugin@@@std@@@std@@@0@0@Z
	??$_Adl_verify_range@V?$_Vector_iterator@V?$_Vector_val@U?$_Simple_types@V?$basic_string@DU?$char_traits@D@std@@V?$allocator@D@2@@std@@@std@@@std@@@std@@V12@@std@@YAXAEBV?$_Vector_iterator@V?$_Vector_val@U?$_Simple_types@V?$basic_string@DU?$char_traits@D@std@@V?$allocator@D@2@@std@@@std@@@std@@@0@0@Z
	??$_Adl_verify_range@V?$_Vector_iterator@V?$_Vector_val@U?$_Simple_types@VEdgeVertInd@?$NotThreadSafeGLMeshAttributesMultiViewerBOManager@VCMeshO@@PEAVQGLContext@@UMLPerViewGLOptions@@@vcg@@@std@@@std@@@std@@V12@@std@@YAXAEBV?$_Vector_iterator@V?$_Vector_val@U?$_Simple_types@VEdgeVertInd@?$NotThreadSafeGLMeshAttributesMultiViewerBOManager@VCMeshO@@PEAVQGLContext@@UMLPerViewGLOptions@@@vcg@@@std@@@std@@@0@0@Z
	??$_Adl_verify_range@V?$_Vector_iterator@V?$_Vector_val@U?$_Simple_types@VPEdge@?$UpdateTopology@VCMeshO@@@tri@vcg@@@std@@@std@@@std@@V12@@std@@YAXAEBV?$_Vector_iterator@V?$_Vector_val@U?$_Simple_types@VPEdge@?$UpdateTopology@VCMeshO@@@tri@vcg@@@std@@@std@@@0@0@Z
	??$_Alloc_proxy@V?$allocator@U_Container_proxy@std@@@std@@@_Container_base12@std@@QEAAX$$QEAV?$allocator@U_Container_proxy@std@@@1@@Z
	??$_Allocate@$0BA@U_Default_allocate_traits@std@@$0A@@std@@YAPEAX_K@Z
	??$_Allocate_manually_vector_aligned@U_Default_allocate_traits@std@@@std@@YAPEAX_K@Z
	??$_Allocators_equal@V?$allocator@D@std@@@std@@YA_NAEBV?$allocator@D@0@0@Z
	??$_Append_range_unchecked@V?$_List_unchecked_const_iterator@V?$_List_val@U?$_List_simple_types@VFunctionParameter@pymeshlab@@@std@@@std@@U_Iterator_base0@2@@std@@V12@@?$_List_node_insert_op2@V?$allocator@U?$_List_node@VFunctionParameter@pymeshlab@@PEAX@std@@@std@@@std@@QEAAXV?$_List_unchecked_const_iterator@V?$_List_val@U?$_List_simple_types@VFunctionParameter@pymeshlab@@@std@@@std@@U_Iterator_base0@2@@1@V21@@Z
	??$_Append_range_unchecked@V?$_List_unchecked_iterator@V?$_List_val@U?$_List_simple_types@V?$basic_string@DU?$char_traits@D@std@@V?$allocator@D@2@@std@@@std@@@std@@@std@@V12@@?$_List_node_insert_op2@V?$allocator@U?$_List_node@V?$basic_string@DU?$char_traits@D@std@@V?$allocator@D@2@@std@@PEAX@std@@@std@@@std@@QEAAXV?$_List_unchecked_iterator@V?$_List_val@U?$_List_simple_types@V?$basic_string@DU?$char_traits@D@std@@V?$allocator@D@2@@std@@@std@@@std@@@1@V21@@Z
	??$_Assign_range@PEAV?$basic_string@DU?$char_traits@D@std@@V?$allocator@D@2@@std@@@?$vector@V?$basic_string@DU?$char_traits@D@std@@V?$allocator@D@2@@std@@V?$allocator@V?$basic_string@DU?$char_traits@D@std@@V?$allocator@D@2@@std@@@2@@std@@AEAAXPEAV?$basic_string@DU?$char_traits@D@std@@V?$allocator@D@2@@1@0Uforward_iterator_tag@1@@Z
	??$_Assign_range@PEAVInternalRendAtts@GLMeshAttributesInfo@vcg@@@?$vector@VInternalRendAtts@GLMeshAttributesInfo@vcg@@V?$allocator@VInternalRendAtts@GLMeshAttributesInfo@vcg@@@std@@@std@@AEAAXPEAVInternalRendAtts@GLMeshAttributesInfo@vcg@@0Uforward_iterator_tag@1@@Z
	??$_Atomic_address_as@HU?$_Atomic_padded@H@std@@@std@@YAPEDHAEBU?$_Atomic_padded@H@0@@Z
	??$_Atomic_address_as@JU?$_Atomic_padded@H@std@@@std@@YAPECJAEAU?$_Atomic_padded@H@0@@Z
	??$_Attach_before@U?$_List_simple_types@V?$basic_string@DU?$char_traits@D@std@@V?$allocator@D@2@@std@@@std@@@?$_List_node_insert_op2@V?$allocator@U?$_List_node@V?$basic_string@DU?$char_traits@D@std@@V?$allocator@D@2@@std@@PEAX@std@@@std@@@std@@QEAAPEAU?$_List_node@V?$basic_string@DU?$char_traits@D@std@@V?$allocator@D@2@@std@@PEAX@1@AEAV?$_List_val@U?$_List_simple_types@V?$basic_string@DU?$char_traits@D@std@@V?$allocator@D@2@@std@@@std@@@1@QEAU21@@Z
	??$_Attach_head@U?$_List_simple_types@VFunctionParameter@pymeshlab@@@std@@@?$_List_node_insert_op2@V?$allocator@U?$_List_node@VFunctionParameter@pymeshlab@@PEAX@std@@@std@@@std@@QEAAXAEAV?$_List_val@U?$_List_simple_types@VFunctionParameter@pymeshlab@@@std@@@1@@Z
	??$_Buyheadnode@V?$allocator@U?$_Tree_node@U?$pair@$$CBFV?$vector@U?$pair@II@std@@V?$allocator@U?$pair@II@std@@@2@@std@@@std@@PEAX@std@@@std@@@?$_Tree_node@U?$pair@$$CBFV?$vector@U?$pair@II@std@@V?$allocator@U?$pair@II@std@@@2@@std@@@std@@PEAX@std@@SAPEAU01@AEAV?$allocator@U?$_Tree_node@U?$pair@$$CBFV?$vector@U?$pair@II@std@@V?$allocator@U?$pair@II@std@@@2@@std@@@std@@PEAX@std@@@1@@Z
	??$_Buyheadnode@V?$allocator@U?$_Tree_node@U?$pair@$$CBHPEAV?$QtThreadSafeGLMeshAttributesMultiViewerBOManager@VCMeshO@@PEAVQGLContext@@UMLPerViewGLOptions@@@vcg@@@std@@PEAX@std@@@std@@@?$_Tree_node@U?$pair@$$CBHPEAV?$QtThreadSafeGLMeshAttributesMultiViewerBOManager@VCMeshO@@PEAVQGLContext@@UMLPerViewGLOptions@@@vcg@@@std@@PEAX@std@@SAPEAU01@AEAV?$allocator@U?$_Tree_node@U?$pair@$$CBHPEAV?$QtThreadSafeGLMeshAttributesMultiViewerBOManager@VCMeshO@@PEAVQGLContext@@UMLPerViewGLOptions@@@vcg@@@std@@PEAX@std@@@1@@Z
	??$_Buyheadnode@V?$allocator@U?$_Tree_node@U?$pair@$$CBMV?$vector@PEAVQAction@@V?$allocator@PEAVQAction@@@std@@@std@@@std@@PEAX@std@@@std@@@?$_Tree_node@U?$pair@$$CBMV?$vector@PEAVQAction@@V?$allocator@PEAVQAction@@@std@@@std@@@std@@PEAX@std@@SAPEAU01@AEAV?$allocator@U?$_Tree_node@U?$pair@$$CBMV?$vector@PEAVQAction@@V?$allocator@PEAVQAction@@@std@@@std@@@std@@PEAX@std@@@1@@Z
	??$_Buyheadnode@V?$allocator@U?$_Tree_node@U?$pair@$$CBV?$basic_string@DU?$char_traits@D@std@@V?$allocator@D@2@@std@@VQImage@@@std@@PEAX@std@@@std@@@?$_Tree_node@U?$pair@$$CBV?$basic_string@DU?$char_traits@D@std@@V?$allocator@D@2@@std@@VQImage@@@std@@PEAX@std@@SAPEAU01@AEAV?$allocator@U?$_Tree_node@U?$pair@$$CBV?$basic_string@DU?$char_traits@D@std@@V?$allocator@D@2@@std@@VQImage@@@std@@PEAX@std@@@1@@Z
	??$_Buyheadnode@V?$allocator@U?$_Tree_node@U?$pair@$$CBVQString@@V?$vector@PEAVQAction@@V?$allocator@PEAVQAction@@@std@@@std@@@std@@PEAX@std@@@std@@@?$_Tree_node@U?$pair@$$CBVQString@@V?$vector@PEAVQAction@@V?$allocator@PEAVQAction@@@std@@@std@@@std@@PEAX@std@@SAPEAU01@AEAV?$allocator@U?$_Tree_node@U?$pair@$$CBVQString@@V?$vector@PEAVQAction@@V?$allocator@PEAVQAction@@@std@@@std@@@std@@PEAX@std@@@1@@Z
	??$_Buyheadnode@V?$allocator@U?$_Tree_node@U?$pair@QEAVQAction@@M@std@@PEAX@std@@@std@@@?$_Tree_node@U?$pair@QEAVQAction@@M@std@@PEAX@std@@SAPEAU01@AEAV?$allocator@U?$_Tree_node@U?$pair@QEAVQAction@@M@std@@PEAX@std@@@1@@Z
	??$_Buyheadnode@V?$allocator@U?$_Tree_node@U?$pair@QEAVQGLContext@@V?$PerViewData@UMLPerViewGLOptions@@@vcg@@@std@@PEAX@std@@@std@@@?$_Tree_node@U?$pair@QEAVQGLContext@@V?$PerViewData@UMLPerViewGLOptions@@@vcg@@@std@@PEAX@std@@SAPEAU01@AEAV?$allocator@U?$_Tree_node@U?$pair@QEAVQGLContext@@V?$PerViewData@UMLPerViewGLOptions@@@vcg@@@std@@PEAX@std@@@1@@Z
	??$_Buyheadnode@V?$allocator@U?$_Tree_node@VFunction@pymeshlab@@PEAX@std@@@std@@@?$_Tree_node@VFunction@pymeshlab@@PEAX@std@@SAPEAU01@AEAV?$allocator@U?$_Tree_node@VFunction@pymeshlab@@PEAX@std@@@1@@Z
	??$_Buyheadnode@V?$allocator@U?$_Tree_node@VPointerToAttribute@vcg@@PEAX@std@@@std@@@?$_Tree_node@VPointerToAttribute@vcg@@PEAX@std@@SAPEAU01@AEAV?$allocator@U?$_Tree_node@VPointerToAttribute@vcg@@PEAX@std@@@1@@Z
	??$_Buyheadnode@V?$allocator@U?$_Tree_node@VQString@@PEAX@std@@@std@@@?$_Tree_node@VQString@@PEAX@std@@SAPEAU01@AEAV?$allocator@U?$_Tree_node@VQString@@PEAX@std@@@1@@Z
	??$_Buynode@AEAU?$pair@$$CBV?$basic_string@DU?$char_traits@D@std@@V?$allocator@D@2@@std@@VQImage@@@std@@@?$_Tree@V?$_Tmap_traits@V?$basic_string@DU?$char_traits@D@std@@V?$allocator@D@2@@std@@VQImage@@U?$less@V?$basic_string@DU?$char_traits@D@std@@V?$allocator@D@2@@std@@@2@V?$allocator@U?$pair@$$CBV?$basic_string@DU?$char_traits@D@std@@V?$allocator@D@2@@std@@VQImage@@@std@@@2@$0A@@std@@@std@@IEAAPEAU?$_Tree_node@U?$pair@$$CBV?$basic_string@DU?$char_traits@D@std@@V?$allocator@D@2@@std@@VQImage@@@std@@PEAX@1@AEAU?$pair@$$CBV?$basic_string@DU?$char_traits@D@std@@V?$allocator@D@2@@std@@VQImage@@@1@@Z
	??$_Buynode@V?$allocator@U?$_Tree_node@U?$pair@$$CBV?$basic_string@DU?$char_traits@D@std@@V?$allocator@D@2@@std@@VQImage@@@std@@PEAX@std@@@std@@AEAU?$pair@$$CBV?$basic_string@DU?$char_traits@D@std@@V?$allocator@D@2@@std@@VQImage@@@2@@?$_Tree_node@U?$pair@$$CBV?$basic_string@DU?$char_traits@D@std@@V?$allocator@D@2@@std@@VQImage@@@std@@PEAX@std@@SAPEAU01@AEAV?$allocator@U?$_Tree_node@U?$pair@$$CBV?$basic_string@DU?$char_traits@D@std@@V?$allocator@D@2@@std@@VQImage@@@std@@PEAX@std@@@1@PEAU01@AEAU?$pair@$$CBV?$basic_string@DU?$char_traits@D@std@@V?$allocator@D@2@@std@@VQImage@@@1@@Z
	??$_Construct_in_place@PEADAEAPEAD@std@@YAXAEAPEAD0@Z
	??$_Construct_in_place@PEADAEBQEAD@std@@YAXAEAPEADAEBQEAD@Z
	??$_Construct_in_place@PEAU?$_List_node@HPEAX@std@@AEAPEAU12@@std@@YAXAEAPEAU?$_List_node@HPEAX@0@0@Z
	??$_Construct_in_place@PEAU?$_List_node@HPEAX@std@@AEBQEAU12@@std@@YAXAEAPEAU?$_List_node@HPEAX@0@AEBQEAU10@@Z
	??$_Construct_in_place@PEAU?$_List_node@PEAVMeshModel@@PEAX@std@@AEAPEAU12@@std@@YAXAEAPEAU?$_List_node@PEAVMeshModel@@PEAX@0@0@Z
	??$_Construct_in_place@PEAU?$_List_node@PEAVMeshModel@@PEAX@std@@AEBQEAU12@@std@@YAXAEAPEAU?$_List_node@PEAVMeshModel@@PEAX@0@AEBQEAU10@@Z
	??$_Construct_in_place@PEAU?$_List_node@PEAVRichParameter@@PEAX@std@@AEAPEAU12@@std@@YAXAEAPEAU?$_List_node@PEAVRichParameter@@PEAX@0@0@Z
	??$_Construct_in_place@PEAU?$_List_node@PEAVRichParameter@@PEAX@std@@AEBQEAU12@@std@@YAXAEAPEAU?$_List_node@PEAVRichParameter@@PEAX@0@AEBQEAU10@@Z
	??$_Construct_in_place@PEAU?$_List_node@U?$pair@VQString@@V1@@std@@PEAX@std@@AEAPEAU12@@std@@YAXAEAPEAU?$_List_node@U?$pair@VQString@@V1@@std@@PEAX@0@0@Z
	??$_Construct_in_place@PEAU?$_List_node@U?$pair@VQString@@V1@@std@@PEAX@std@@AEBQEAU12@@std@@YAXAEAPEAU?$_List_node@U?$pair@VQString@@V1@@std@@PEAX@0@AEBQEAU10@@Z
	??$_Construct_in_place@PEAU?$_List_node@V?$Matrix@I$0?0$00$0A@$0?0$00@Eigen@@PEAX@std@@AEAPEAU12@@std@@YAXAEAPEAU?$_List_node@V?$Matrix@I$0?0$00$0A@$0?0$00@Eigen@@PEAX@0@0@Z
	??$_Construct_in_place@PEAU?$_List_node@V?$Matrix@I$0?0$00$0A@$0?0$00@Eigen@@PEAX@std@@AEBQEAU12@@std@@YAXAEAPEAU?$_List_node@V?$Matrix@I$0?0$00$0A@$0?0$00@Eigen@@PEAX@0@AEBQEAU10@@Z
	??$_Construct_in_place@PEAU?$_List_node@V?$basic_string@DU?$char_traits@D@std@@V?$allocator@D@2@@std@@PEAX@std@@AEAPEAU12@@std@@YAXAEAPEAU?$_List_node@V?$basic_string@DU?$char_traits@D@std@@V?$allocator@D@2@@std@@PEAX@0@0@Z
	??$_Construct_in_place@PEAU?$_List_node@V?$basic_string@DU?$char_traits@D@std@@V?$allocator@D@2@@std@@PEAX@std@@AEBQEAU12@@std@@YAXAEAPEAU?$_List_node@V?$basic_string@DU?$char_traits@D@std@@V?$allocator@D@2@@std@@PEAX@0@AEBQEAU10@@Z
	??$_Construct_in_place@PEAU?$_List_node@V?$basic_string@DU?$char_traits@D@std@@V?$allocator@D@2@@std@@PEAX@std@@PEAU12@@std@@YAXAEAPEAU?$_List_node@V?$basic_string@DU?$char_traits@D@std@@V?$allocator@D@2@@std@@PEAX@0@$$QEAPEAU10@@Z
	??$_Construct_in_place@PEAU?$_List_node@VFunctionParameter@pymeshlab@@PEAX@std@@AEAPEAU12@@std@@YAXAEAPEAU?$_List_node@VFunctionParameter@pymeshlab@@PEAX@0@0@Z
	??$_Construct_in_place@PEAU?$_List_node@VFunctionParameter@pymeshlab@@PEAX@std@@AEBQEAU12@@std@@YAXAEAPEAU?$_List_node@VFunctionParameter@pymeshlab@@PEAX@0@AEBQEAU10@@Z
	??$_Construct_in_place@PEAU?$_List_node@VFunctionParameter@pymeshlab@@PEAX@std@@PEAU12@@std@@YAXAEAPEAU?$_List_node@VFunctionParameter@pymeshlab@@PEAX@0@$$QEAPEAU10@@Z
	??$_Construct_in_place@PEAU?$_List_node@VMeshModel@@PEAX@std@@AEAPEAU12@@std@@YAXAEAPEAU?$_List_node@VMeshModel@@PEAX@0@0@Z
	??$_Construct_in_place@PEAU?$_List_node@VMeshModel@@PEAX@std@@AEBQEAU12@@std@@YAXAEAPEAU?$_List_node@VMeshModel@@PEAX@0@AEBQEAU10@@Z
	??$_Construct_in_place@PEAU?$_List_node@VRasterModel@@PEAX@std@@AEAPEAU12@@std@@YAXAEAPEAU?$_List_node@VRasterModel@@PEAX@0@0@Z
	??$_Construct_in_place@PEAU?$_List_node@VRasterModel@@PEAX@std@@AEBQEAU12@@std@@YAXAEAPEAU?$_List_node@VRasterModel@@PEAX@0@AEBQEAU10@@Z
	??$_Construct_in_place@PEAU?$_Tree_node@U?$pair@$$CBFV?$vector@U?$pair@II@std@@V?$allocator@U?$pair@II@std@@@2@@std@@@std@@PEAX@std@@AEAPEAU12@@std@@YAXAEAPEAU?$_Tree_node@U?$pair@$$CBFV?$vector@U?$pair@II@std@@V?$allocator@U?$pair@II@std@@@2@@std@@@std@@PEAX@0@0@Z
	??$_Construct_in_place@PEAU?$_Tree_node@U?$pair@$$CBFV?$vector@U?$pair@II@std@@V?$allocator@U?$pair@II@std@@@2@@std@@@std@@PEAX@std@@AEBQEAU12@@std@@YAXAEAPEAU?$_Tree_node@U?$pair@$$CBFV?$vector@U?$pair@II@std@@V?$allocator@U?$pair@II@std@@@2@@std@@@std@@PEAX@0@AEBQEAU10@@Z
	??$_Construct_in_place@PEAU?$_Tree_node@U?$pair@$$CBHPEAV?$QtThreadSafeGLMeshAttributesMultiViewerBOManager@VCMeshO@@PEAVQGLContext@@UMLPerViewGLOptions@@@vcg@@@std@@PEAX@std@@AEAPEAU12@@std@@YAXAEAPEAU?$_Tree_node@U?$pair@$$CBHPEAV?$QtThreadSafeGLMeshAttributesMultiViewerBOManager@VCMeshO@@PEAVQGLContext@@UMLPerViewGLOptions@@@vcg@@@std@@PEAX@0@0@Z
	??$_Construct_in_place@PEAU?$_Tree_node@U?$pair@$$CBHPEAV?$QtThreadSafeGLMeshAttributesMultiViewerBOManager@VCMeshO@@PEAVQGLContext@@UMLPerViewGLOptions@@@vcg@@@std@@PEAX@std@@AEBQEAU12@@std@@YAXAEAPEAU?$_Tree_node@U?$pair@$$CBHPEAV?$QtThreadSafeGLMeshAttributesMultiViewerBOManager@VCMeshO@@PEAVQGLContext@@UMLPerViewGLOptions@@@vcg@@@std@@PEAX@0@AEBQEAU10@@Z
	??$_Construct_in_place@PEAU?$_Tree_node@U?$pair@$$CBMV?$vector@PEAVQAction@@V?$allocator@PEAVQAction@@@std@@@std@@@std@@PEAX@std@@AEAPEAU12@@std@@YAXAEAPEAU?$_Tree_node@U?$pair@$$CBMV?$vector@PEAVQAction@@V?$allocator@PEAVQAction@@@std@@@std@@@std@@PEAX@0@0@Z
	??$_Construct_in_place@PEAU?$_Tree_node@U?$pair@$$CBMV?$vector@PEAVQAction@@V?$allocator@PEAVQAction@@@std@@@std@@@std@@PEAX@std@@AEBQEAU12@@std@@YAXAEAPEAU?$_Tree_node@U?$pair@$$CBMV?$vector@PEAVQAction@@V?$allocator@PEAVQAction@@@std@@@std@@@std@@PEAX@0@AEBQEAU10@@Z
	??$_Construct_in_place@PEAU?$_Tree_node@U?$pair@$$CBV?$basic_string@DU?$char_traits@D@std@@V?$allocator@D@2@@std@@VQImage@@@std@@PEAX@std@@AEAPEAU12@@std@@YAXAEAPEAU?$_Tree_node@U?$pair@$$CBV?$basic_string@DU?$char_traits@D@std@@V?$allocator@D@2@@std@@VQImage@@@std@@PEAX@0@0@Z
	??$_Construct_in_place@PEAU?$_Tree_node@U?$pair@$$CBV?$basic_string@DU?$char_traits@D@std@@V?$allocator@D@2@@std@@VQImage@@@std@@PEAX@std@@AEBQEAU12@@std@@YAXAEAPEAU?$_Tree_node@U?$pair@$$CBV?$basic_string@DU?$char_traits@D@std@@V?$allocator@D@2@@std@@VQImage@@@std@@PEAX@0@AEBQEAU10@@Z
	??$_Construct_in_place@PEAU?$_Tree_node@U?$pair@$$CBVQString@@V?$vector@PEAVQAction@@V?$allocator@PEAVQAction@@@std@@@std@@@std@@PEAX@std@@AEAPEAU12@@std@@YAXAEAPEAU?$_Tree_node@U?$pair@$$CBVQString@@V?$vector@PEAVQAction@@V?$allocator@PEAVQAction@@@std@@@std@@@std@@PEAX@0@0@Z
	??$_Construct_in_place@PEAU?$_Tree_node@U?$pair@$$CBVQString@@V?$vector@PEAVQAction@@V?$allocator@PEAVQAction@@@std@@@std@@@std@@PEAX@std@@AEBQEAU12@@std@@YAXAEAPEAU?$_Tree_node@U?$pair@$$CBVQString@@V?$vector@PEAVQAction@@V?$allocator@PEAVQAction@@@std@@@std@@@std@@PEAX@0@AEBQEAU10@@Z
	??$_Construct_in_place@PEAU?$_Tree_node@U?$pair@QEAVQAction@@M@std@@PEAX@std@@AEAPEAU12@@std@@YAXAEAPEAU?$_Tree_node@U?$pair@QEAVQAction@@M@std@@PEAX@0@0@Z
	??$_Construct_in_place@PEAU?$_Tree_node@U?$pair@QEAVQAction@@M@std@@PEAX@std@@AEBQEAU12@@std@@YAXAEAPEAU?$_Tree_node@U?$pair@QEAVQAction@@M@std@@PEAX@0@AEBQEAU10@@Z
	??$_Construct_in_place@PEAU?$_Tree_node@U?$pair@QEAVQGLContext@@V?$PerViewData@UMLPerViewGLOptions@@@vcg@@@std@@PEAX@std@@AEAPEAU12@@std@@YAXAEAPEAU?$_Tree_node@U?$pair@QEAVQGLContext@@V?$PerViewData@UMLPerViewGLOptions@@@vcg@@@std@@PEAX@0@0@Z
	??$_Construct_in_place@PEAU?$_Tree_node@U?$pair@QEAVQGLContext@@V?$PerViewData@UMLPerViewGLOptions@@@vcg@@@std@@PEAX@std@@AEBQEAU12@@std@@YAXAEAPEAU?$_Tree_node@U?$pair@QEAVQGLContext@@V?$PerViewData@UMLPerViewGLOptions@@@vcg@@@std@@PEAX@0@AEBQEAU10@@Z
	??$_Construct_in_place@PEAU?$_Tree_node@VFunction@pymeshlab@@PEAX@std@@AEAPEAU12@@std@@YAXAEAPEAU?$_Tree_node@VFunction@pymeshlab@@PEAX@0@0@Z
	??$_Construct_in_place@PEAU?$_Tree_node@VFunction@pymeshlab@@PEAX@std@@AEBQEAU12@@std@@YAXAEAPEAU?$_Tree_node@VFunction@pymeshlab@@PEAX@0@AEBQEAU10@@Z
	??$_Construct_in_place@PEAU?$_Tree_node@VPointerToAttribute@vcg@@PEAX@std@@AEAPEAU12@@std@@YAXAEAPEAU?$_Tree_node@VPointerToAttribute@vcg@@PEAX@0@0@Z
	??$_Construct_in_place@PEAU?$_Tree_node@VPointerToAttribute@vcg@@PEAX@std@@AEBQEAU12@@std@@YAXAEAPEAU?$_Tree_node@VPointerToAttribute@vcg@@PEAX@0@AEBQEAU10@@Z
	??$_Construct_in_place@PEAU?$_Tree_node@VQString@@PEAX@std@@AEAPEAU12@@std@@YAXAEAPEAU?$_Tree_node@VQString@@PEAX@0@0@Z
	??$_Construct_in_place@PEAU?$_Tree_node@VQString@@PEAX@std@@AEBQEAU12@@std@@YAXAEAPEAU?$_Tree_node@VQString@@PEAX@0@AEBQEAU10@@Z
	??$_Construct_in_place@U_Container_proxy@std@@PEAU_Container_base12@2@@std@@YAXAEAU_Container_proxy@0@$$QEAPEAU_Container_base12@0@@Z
	??$_Construct_n_copies_of_ty@PEAUGLBufferObject@?$NotThreadSafeGLMeshAttributesMultiViewerBOManager@VCMeshO@@PEAVQGLContext@@UMLPerViewGLOptions@@@vcg@@@?$vector@PEAUGLBufferObject@?$NotThreadSafeGLMeshAttributesMultiViewerBOManager@VCMeshO@@PEAVQGLContext@@UMLPerViewGLOptions@@@vcg@@V?$allocator@PEAUGLBufferObject@?$NotThreadSafeGLMeshAttributesMultiViewerBOManager@VCMeshO@@PEAVQGLContext@@UMLPerViewGLOptions@@@vcg@@@std@@@std@@AEAAX_KAEBQEAUGLBufferObject@?$NotThreadSafeGLMeshAttributesMultiViewerBOManager@VCMeshO@@PEAVQGLContext@@UMLPerViewGLOptions@@@vcg@@@Z
	??$_Construct_n_copies_of_ty@U_Value_init_tag@std@@@?$vector@IV?$allocator@I@std@@@std@@AEAAX_KAEBU_Value_init_tag@1@@Z
	??$_Construct_n_copies_of_ty@U_Value_init_tag@std@@@?$vector@PEAVCVertexO@@V?$allocator@PEAVCVertexO@@@std@@@std@@AEAAX_KAEBU_Value_init_tag@1@@Z
	??$_Construct_n_copies_of_ty@U_Value_init_tag@std@@@?$vector@PEAVPVertex@vcg@@V?$allocator@PEAVPVertex@vcg@@@std@@@std@@AEAAX_KAEBU_Value_init_tag@1@@Z
	??$_Construct_n_copies_of_ty@U_Value_init_tag@std@@@?$vector@V?$Point3@M@vcg@@V?$allocator@V?$Point3@M@vcg@@@std@@@std@@AEAAX_KAEBU_Value_init_tag@1@@Z
	??$_Construct_n_copies_of_ty@U_Value_init_tag@std@@@?$vector@V?$vector@IV?$allocator@I@std@@@std@@V?$allocator@V?$vector@IV?$allocator@I@std@@@std@@@2@@std@@AEAAX_KAEBU_Value_init_tag@1@@Z
	??$_Construct_n_copies_of_ty@U_Value_init_tag@std@@@?$vector@VInternalRendAtts@GLMeshAttributesInfo@vcg@@V?$allocator@VInternalRendAtts@GLMeshAttributesInfo@vcg@@@std@@@std@@AEAAX_KAEBU_Value_init_tag@1@@Z
	??$_Construct_n_copies_of_ty@VInternalRendAtts@GLMeshAttributesInfo@vcg@@@?$vector@VInternalRendAtts@GLMeshAttributesInfo@vcg@@V?$allocator@VInternalRendAtts@GLMeshAttributesInfo@vcg@@@std@@@std@@AEAAX_KAEBVInternalRendAtts@GLMeshAttributesInfo@vcg@@@Z
	??$_Construct_range_unchecked@V?$_List_unchecked_const_iterator@V?$_List_val@U?$_List_simple_types@VFunctionParameter@pymeshlab@@@std@@@std@@U_Iterator_base0@2@@std@@@?$list@VFunctionParameter@pymeshlab@@V?$allocator@VFunctionParameter@pymeshlab@@@std@@@std@@AEAAXV?$_List_unchecked_const_iterator@V?$_List_val@U?$_List_simple_types@VFunctionParameter@pymeshlab@@@std@@@std@@U_Iterator_base0@2@@1@0@Z
	??$_Convert_size@_K@std@@YA_K_K@Z
	??$_Copy@U_Copy_tag@?$_Tree@V?$_Tmap_traits@V?$basic_string@DU?$char_traits@D@std@@V?$allocator@D@2@@std@@VQImage@@U?$less@V?$basic_string@DU?$char_traits@D@std@@V?$allocator@D@2@@std@@@2@V?$allocator@U?$pair@$$CBV?$basic_string@DU?$char_traits@D@std@@V?$allocator@D@2@@std@@VQImage@@@std@@@2@$0A@@std@@@std@@@?$_Tree@V?$_Tmap_traits@V?$basic_string@DU?$char_traits@D@std@@V?$allocator@D@2@@std@@VQImage@@U?$less@V?$basic_string@DU?$char_traits@D@std@@V?$allocator@D@2@@std@@@2@V?$allocator@U?$pair@$$CBV?$basic_string@DU?$char_traits@D@std@@V?$allocator@D@2@@std@@VQImage@@@std@@@2@$0A@@std@@@std@@IEAAXAEBV01@U_Copy_tag@01@@Z
	??$_Copy_backward_memmove@PEAIPEAI@std@@YAPEAIPEAI00@Z
	??$_Copy_backward_memmove@PEAPEAVQAction@@PEAPEAV1@@std@@YAPEAPEAVQAction@@PEAPEAV1@00@Z
	??$_Copy_backward_memmove@PEAVEdgeVertInd@?$NotThreadSafeGLMeshAttributesMultiViewerBOManager@VCMeshO@@PEAVQGLContext@@UMLPerViewGLOptions@@@vcg@@PEAV123@@std@@YAPEAVEdgeVertInd@?$NotThreadSafeGLMeshAttributesMultiViewerBOManager@VCMeshO@@PEAVQGLContext@@UMLPerViewGLOptions@@@vcg@@PEAV123@00@Z
	??$_Copy_backward_memmove@PEAVPEdge@?$UpdateTopology@VCMeshO@@@tri@vcg@@PEAV1234@@std@@YAPEAVPEdge@?$UpdateTopology@VCMeshO@@@tri@vcg@@PEAV1234@00@Z
	??$_Copy_backward_unchecked@V?$_Vb_iterator@U?$_Wrap_alloc@V?$allocator@I@std@@@std@@@std@@V12@@std@@YA?AV?$_Vb_iterator@U?$_Wrap_alloc@V?$allocator@I@std@@@std@@@0@V10@00@Z
	??$_Copy_memmove@PEAHPEAH@std@@YAPEAHPEAH00@Z
	??$_Copy_memmove@PEAIPEAI@std@@YAPEAIPEAI00@Z
	??$_Copy_memmove@PEAMPEAM@std@@YAPEAMPEAM00@Z
	??$_Copy_memmove@PEAPEAVCFaceO@@PEAPEAV1@@std@@YAPEAPEAVCFaceO@@PEAPEAV1@00@Z
	??$_Copy_memmove@PEAPEAVCVertexO@@PEAPEAV1@@std@@YAPEAPEAVCVertexO@@PEAPEAV1@00@Z
	??$_Copy_memmove@PEAPEAVDecoratePlugin@@PEAPEAV1@@std@@YAPEAPEAVDecoratePlugin@@PEAPEAV1@00@Z
	??$_Copy_memmove@PEAPEAVEditPlugin@@PEAPEAV1@@std@@YAPEAPEAVEditPlugin@@PEAPEAV1@00@Z
	??$_Copy_memmove@PEAPEAVFilterPlugin@@PEAPEAV1@@std@@YAPEAPEAVFilterPlugin@@PEAPEAV1@00@Z
	??$_Copy_memmove@PEAPEAVIOPlugin@@PEAPEAV1@@std@@YAPEAPEAVIOPlugin@@PEAPEAV1@00@Z
	??$_Copy_memmove@PEAPEAVMeshLabPlugin@@PEAPEAV1@@std@@YAPEAPEAVMeshLabPlugin@@PEAPEAV1@00@Z
	??$_Copy_memmove@PEAPEAVQAction@@PEAPEAV1@@std@@YAPEAPEAVQAction@@PEAPEAV1@00@Z
	??$_Copy_memmove@PEAPEAVQPluginLoader@@PEAPEAV1@@std@@YAPEAPEAVQPluginLoader@@PEAPEAV1@00@Z
	??$_Copy_memmove@PEAPEAVRenderPlugin@@PEAPEAV1@@std@@YAPEAPEAVRenderPlugin@@PEAPEAV1@00@Z
	??$_Copy_memmove@PEAV?$HEdge@V?$UsedTypes@UAsVertexType@?$Use@VCVertexO@@@vcg@@UAsEdgeType@?$Use@VCEdgeO@@@3@UAsFaceType@?$Use@VCFaceO@@@3@VDefaultDeriver@3@V83@V83@V83@V83@@vcg@@VDefaultDeriver@2@V32@V32@V32@V32@V32@V32@V32@V32@V32@V32@@vcg@@PEAV12@@std@@YAPEAV?$HEdge@V?$UsedTypes@UAsVertexType@?$Use@VCVertexO@@@vcg@@UAsEdgeType@?$Use@VCEdgeO@@@3@UAsFaceType@?$Use@VCFaceO@@@3@VDefaultDeriver@3@V83@V83@V83@V83@@vcg@@VDefaultDeriver@2@V32@V32@V32@V32@V32@V32@V32@V32@V32@V32@@vcg@@PEAV12@00@Z
	??$_Copy_memmove@PEAV?$TetraSimp@V?$UsedTypes@UAsVertexType@?$Use@VCVertexO@@@vcg@@UAsEdgeType@?$Use@VCEdgeO@@@3@UAsFaceType@?$Use@VCFaceO@@@3@VDefaultDeriver@3@V83@V83@V83@V83@@vcg@@VDefaultDeriver@2@V32@V32@V32@V32@V32@V32@V32@V32@V32@V32@V32@@vcg@@PEAV12@@std@@YAPEAV?$TetraSimp@V?$UsedTypes@UAsVertexType@?$Use@VCVertexO@@@vcg@@UAsEdgeType@?$Use@VCEdgeO@@@3@UAsFaceType@?$Use@VCFaceO@@@3@VDefaultDeriver@3@V83@V83@V83@V83@@vcg@@VDefaultDeriver@2@V32@V32@V32@V32@V32@V32@V32@V32@V32@V32@V32@@vcg@@PEAV12@00@Z
	??$_Copy_memmove@PEA_KPEA_K@std@@YAPEA_KPEA_K00@Z
	??$_Copy_nodes@U_Copy_tag@?$_Tree@V?$_Tmap_traits@V?$basic_string@DU?$char_traits@D@std@@V?$allocator@D@2@@std@@VQImage@@U?$less@V?$basic_string@DU?$char_traits@D@std@@V?$allocator@D@2@@std@@@2@V?$allocator@U?$pair@$$CBV?$basic_string@DU?$char_traits@D@std@@V?$allocator@D@2@@std@@VQImage@@@std@@@2@$0A@@std@@@std@@@?$_Tree@V?$_Tmap_traits@V?$basic_string@DU?$char_traits@D@std@@V?$allocator@D@2@@std@@VQImage@@U?$less@V?$basic_string@DU?$char_traits@D@std@@V?$allocator@D@2@@std@@@2@V?$allocator@U?$pair@$$CBV?$basic_string@DU?$char_traits@D@std@@V?$allocator@D@2@@std@@VQImage@@@std@@@2@$0A@@std@@@std@@IEAAPEAU?$_Tree_node@U?$pair@$$CBV?$basic_string@DU?$char_traits@D@std@@V?$allocator@D@2@@std@@VQImage@@@std@@PEAX@1@PEAU21@0U_Copy_tag@01@@Z
	??$_Copy_or_move@U?$pair@$$CBV?$basic_string@DU?$char_traits@D@std@@V?$allocator@D@2@@std@@VQImage@@@std@@U?$integral_constant@_N$0A@@2@@?$_Tree@V?$_Tmap_traits@V?$basic_string@DU?$char_traits@D@std@@V?$allocator@D@2@@std@@VQImage@@U?$less@V?$basic_string@DU?$char_traits@D@std@@V?$allocator@D@2@@std@@@2@V?$allocator@U?$pair@$$CBV?$basic_string@DU?$char_traits@D@std@@V?$allocator@D@2@@std@@VQImage@@@std@@@2@$0A@@std@@@std@@IEAAPEAU?$_Tree_node@U?$pair@$$CBV?$basic_string@DU?$char_traits@D@std@@V?$allocator@D@2@@std@@VQImage@@@std@@PEAX@1@AEAU?$pair@$$CBV?$basic_string@DU?$char_traits@D@std@@V?$allocator@D@2@@std@@VQImage@@@1@U_Copy_tag@01@U?$integral_constant@_N$0A@@1@@Z
	??$_Copy_unchecked@PEAV?$basic_string@DU?$char_traits@D@std@@V?$allocator@D@2@@std@@PEAV12@@std@@YAPEAV?$basic_string@DU?$char_traits@D@std@@V?$allocator@D@2@@0@PEAV10@00@Z
	??$_Copy_unchecked@PEAVInternalRendAtts@GLMeshAttributesInfo@vcg@@PEAV123@@std@@YAPEAVInternalRendAtts@GLMeshAttributesInfo@vcg@@PEAV123@00@Z
	??$_Copy_unchecked@PEBVQString@@V?$back_insert_iterator@V?$QList@VQString@@@@@std@@@std@@YA?AV?$back_insert_iterator@V?$QList@VQString@@@@@0@PEBVQString@@0V10@@Z
	??$_Copy_unchecked@V?$_Vb_iterator@U?$_Wrap_alloc@V?$allocator@I@std@@@std@@@std@@V12@@std@@YA?AV?$_Vb_iterator@U?$_Wrap_alloc@V?$allocator@I@std@@@std@@@0@V10@00@Z
	??$_Deallocate@$0BA@$0A@@std@@YAXPEAX_K@Z
	??$_Deallocate_plain@V?$allocator@U_Container_proxy@std@@@std@@@std@@YAXAEAV?$allocator@U_Container_proxy@std@@@0@QEAU_Container_proxy@0@@Z
	??$_Debug_lt_pred@AEAU?$less@X@std@@AEAVEdgeVertInd@?$NotThreadSafeGLMeshAttributesMultiViewerBOManager@VCMeshO@@PEAVQGLContext@@UMLPerViewGLOptions@@@vcg@@AEAV345@$0A@@std@@YA_NAEAU?$less@X@0@AEAVEdgeVertInd@?$NotThreadSafeGLMeshAttributesMultiViewerBOManager@VCMeshO@@PEAVQGLContext@@UMLPerViewGLOptions@@@vcg@@1@Z
	??$_Debug_lt_pred@AEAU?$less@X@std@@AEAVPEdge@?$UpdateTopology@VCMeshO@@@tri@vcg@@AEAV3456@$0A@@std@@YA_NAEAU?$less@X@0@AEAVPEdge@?$UpdateTopology@VCMeshO@@@tri@vcg@@1@Z
	??$_Debug_lt_pred@AEAUActionComparator@ActionSearcher@@AEAPEAVQAction@@AEAPEAV3@$0A@@std@@YA_NAEAUActionComparator@ActionSearcher@@AEAPEAVQAction@@1@Z
	??$_Debug_lt_pred@AEBU?$less@F@std@@AEBFAEBF$0A@@std@@YA_NAEBU?$less@F@0@AEBF1@Z
	??$_Debug_lt_pred@AEBU?$less@H@std@@AEBHAEBH$0A@@std@@YA_NAEBU?$less@H@0@AEBH1@Z
	??$_Debug_lt_pred@AEBU?$less@M@std@@AEBMAEBM$0A@@std@@YA_NAEBU?$less@M@0@AEBM1@Z
	??$_Debug_lt_pred@AEBU?$less@PEAVQAction@@@std@@AEBQEAVQAction@@AEBQEAV3@$0A@@std@@YA_NAEBU?$less@PEAVQAction@@@0@AEBQEAVQAction@@1@Z
	??$_Debug_lt_pred@AEBU?$less@PEAVQGLContext@@@std@@AEBQEAVQGLContext@@AEBQEAV3@$0A@@std@@YA_NAEBU?$less@PEAVQGLContext@@@0@AEBQEAVQGLContext@@1@Z
	??$_Debug_lt_pred@AEBU?$less@V?$basic_string@DU?$char_traits@D@std@@V?$allocator@D@2@@std@@@std@@AEBV?$basic_string@DU?$char_traits@D@std@@V?$allocator@D@2@@2@AEBV32@$0A@@std@@YA_NAEBU?$less@V?$basic_string@DU?$char_traits@D@std@@V?$allocator@D@2@@std@@@0@AEBV?$basic_string@DU?$char_traits@D@std@@V?$allocator@D@2@@0@1@Z
	??$_Debug_lt_pred@AEBU?$less@VFunction@pymeshlab@@@std@@AEBVFunction@pymeshlab@@AEBV34@$0A@@std@@YA_NAEBU?$less@VFunction@pymeshlab@@@0@AEBVFunction@pymeshlab@@1@Z
	??$_Debug_lt_pred@AEBU?$less@VPointerToAttribute@vcg@@@std@@AEBVPointerToAttribute@vcg@@AEBV34@$0A@@std@@YA_NAEBU?$less@VPointerToAttribute@vcg@@@0@AEBVPointerToAttribute@vcg@@1@Z
	??$_Debug_lt_pred@AEBU?$less@VQString@@@std@@AEBVQString@@AEBV3@$0A@@std@@YA_NAEBU?$less@VQString@@@0@AEBVQString@@1@Z
	??$_Delete_plain_internal@V?$allocator@U_Container_proxy@std@@@std@@@std@@YAXAEAV?$allocator@U_Container_proxy@std@@@0@QEAU_Container_proxy@0@@Z
	??$_Destroy_in_place@PEAD@std@@YAXAEAPEAD@Z
	??$_Destroy_in_place@PEAU?$_List_node@HPEAX@std@@@std@@YAXAEAPEAU?$_List_node@HPEAX@0@@Z
	??$_Destroy_in_place@PEAU?$_List_node@PEAVMeshModel@@PEAX@std@@@std@@YAXAEAPEAU?$_List_node@PEAVMeshModel@@PEAX@0@@Z
	??$_Destroy_in_place@PEAU?$_List_node@PEAVQAction@@PEAX@std@@@std@@YAXAEAPEAU?$_List_node@PEAVQAction@@PEAX@0@@Z
	??$_Destroy_in_place@PEAU?$_List_node@PEAVRichParameter@@PEAX@std@@@std@@YAXAEAPEAU?$_List_node@PEAVRichParameter@@PEAX@0@@Z
	??$_Destroy_in_place@PEAU?$_List_node@U?$pair@VQString@@V1@@std@@PEAX@std@@@std@@YAXAEAPEAU?$_List_node@U?$pair@VQString@@V1@@std@@PEAX@0@@Z
	??$_Destroy_in_place@PEAU?$_List_node@V?$Matrix@I$0?0$00$0A@$0?0$00@Eigen@@PEAX@std@@@std@@YAXAEAPEAU?$_List_node@V?$Matrix@I$0?0$00$0A@$0?0$00@Eigen@@PEAX@0@@Z
	??$_Destroy_in_place@PEAU?$_List_node@V?$basic_string@DU?$char_traits@D@std@@V?$allocator@D@2@@std@@PEAX@std@@@std@@YAXAEAPEAU?$_List_node@V?$basic_string@DU?$char_traits@D@std@@V?$allocator@D@2@@std@@PEAX@0@@Z
	??$_Destroy_in_place@PEAU?$_List_node@VFileFormat@@PEAX@std@@@std@@YAXAEAPEAU?$_List_node@VFileFormat@@PEAX@0@@Z
	??$_Destroy_in_place@PEAU?$_List_node@VFunctionParameter@pymeshlab@@PEAX@std@@@std@@YAXAEAPEAU?$_List_node@VFunctionParameter@pymeshlab@@PEAX@0@@Z
	??$_Destroy_in_place@PEAU?$_List_node@VMeshModel@@PEAX@std@@@std@@YAXAEAPEAU?$_List_node@VMeshModel@@PEAX@0@@Z
	??$_Destroy_in_place@PEAU?$_List_node@VRasterModel@@PEAX@std@@@std@@YAXAEAPEAU?$_List_node@VRasterModel@@PEAX@0@@Z
	??$_Destroy_in_place@PEAU?$_Tree_node@U?$pair@$$CBFV?$vector@U?$pair@II@std@@V?$allocator@U?$pair@II@std@@@2@@std@@@std@@PEAX@std@@@std@@YAXAEAPEAU?$_Tree_node@U?$pair@$$CBFV?$vector@U?$pair@II@std@@V?$allocator@U?$pair@II@std@@@2@@std@@@std@@PEAX@0@@Z
	??$_Destroy_in_place@PEAU?$_Tree_node@U?$pair@$$CBHPEAV?$QtThreadSafeGLMeshAttributesMultiViewerBOManager@VCMeshO@@PEAVQGLContext@@UMLPerViewGLOptions@@@vcg@@@std@@PEAX@std@@@std@@YAXAEAPEAU?$_Tree_node@U?$pair@$$CBHPEAV?$QtThreadSafeGLMeshAttributesMultiViewerBOManager@VCMeshO@@PEAVQGLContext@@UMLPerViewGLOptions@@@vcg@@@std@@PEAX@0@@Z
	??$_Destroy_in_place@PEAU?$_Tree_node@U?$pair@$$CBMV?$vector@PEAVQAction@@V?$allocator@PEAVQAction@@@std@@@std@@@std@@PEAX@std@@@std@@YAXAEAPEAU?$_Tree_node@U?$pair@$$CBMV?$vector@PEAVQAction@@V?$allocator@PEAVQAction@@@std@@@std@@@std@@PEAX@0@@Z
	??$_Destroy_in_place@PEAU?$_Tree_node@U?$pair@$$CBV?$basic_string@DU?$char_traits@D@std@@V?$allocator@D@2@@std@@VQImage@@@std@@PEAX@std@@@std@@YAXAEAPEAU?$_Tree_node@U?$pair@$$CBV?$basic_string@DU?$char_traits@D@std@@V?$allocator@D@2@@std@@VQImage@@@std@@PEAX@0@@Z
	??$_Destroy_in_place@PEAU?$_Tree_node@U?$pair@$$CBVQString@@V?$vector@PEAVQAction@@V?$allocator@PEAVQAction@@@std@@@std@@@std@@PEAX@std@@@std@@YAXAEAPEAU?$_Tree_node@U?$pair@$$CBVQString@@V?$vector@PEAVQAction@@V?$allocator@PEAVQAction@@@std@@@std@@@std@@PEAX@0@@Z
	??$_Destroy_in_place@PEAU?$_Tree_node@U?$pair@QEAVQAction@@M@std@@PEAX@std@@@std@@YAXAEAPEAU?$_Tree_node@U?$pair@QEAVQAction@@M@std@@PEAX@0@@Z
	??$_Destroy_in_place@PEAU?$_Tree_node@U?$pair@QEAVQGLContext@@V?$PerViewData@UMLPerViewGLOptions@@@vcg@@@std@@PEAX@std@@@std@@YAXAEAPEAU?$_Tree_node@U?$pair@QEAVQGLContext@@V?$PerViewData@UMLPerViewGLOptions@@@vcg@@@std@@PEAX@0@@Z
	??$_Destroy_in_place@PEAU?$_Tree_node@VFunction@pymeshlab@@PEAX@std@@@std@@YAXAEAPEAU?$_Tree_node@VFunction@pymeshlab@@PEAX@0@@Z
	??$_Destroy_in_place@PEAU?$_Tree_node@VPointerToAttribute@vcg@@PEAX@std@@@std@@YAXAEAPEAU?$_Tree_node@VPointerToAttribute@vcg@@PEAX@0@@Z
	??$_Destroy_in_place@PEAU?$_Tree_node@VQString@@PEAX@std@@@std@@YAXAEAPEAU?$_Tree_node@VQString@@PEAX@0@@Z
	??$_Destroy_range@V?$allocator@H@std@@@std@@YAXPEAHQEAHAEAV?$allocator@H@0@@Z
	??$_Destroy_range@V?$allocator@I@std@@@std@@YAXPEAIQEAIAEAV?$allocator@I@0@@Z
	??$_Destroy_range@V?$allocator@M@std@@@std@@YAXPEAMQEAMAEAV?$allocator@M@0@@Z
	??$_Destroy_range@V?$allocator@PEAUGLBufferObject@?$NotThreadSafeGLMeshAttributesMultiViewerBOManager@VCMeshO@@PEAVQGLContext@@UMLPerViewGLOptions@@@vcg@@@std@@@std@@YAXPEAPEAUGLBufferObject@?$NotThreadSafeGLMeshAttributesMultiViewerBOManager@VCMeshO@@PEAVQGLContext@@UMLPerViewGLOptions@@@vcg@@QEAPEAU123@AEAV?$allocator@PEAUGLBufferObject@?$NotThreadSafeGLMeshAttributesMultiViewerBOManager@VCMeshO@@PEAVQGLContext@@UMLPerViewGLOptions@@@vcg@@@0@@Z
	??$_Destroy_range@V?$allocator@PEAVCFaceO@@@std@@@std@@YAXPEAPEAVCFaceO@@QEAPEAV1@AEAV?$allocator@PEAVCFaceO@@@0@@Z
	??$_Destroy_range@V?$allocator@PEAVCVertexO@@@std@@@std@@YAXPEAPEAVCVertexO@@QEAPEAV1@AEAV?$allocator@PEAVCVertexO@@@0@@Z
	??$_Destroy_range@V?$allocator@PEAVDecoratePlugin@@@std@@@std@@YAXPEAPEAVDecoratePlugin@@QEAPEAV1@AEAV?$allocator@PEAVDecoratePlugin@@@0@@Z
	??$_Destroy_range@V?$allocator@PEAVEditPlugin@@@std@@@std@@YAXPEAPEAVEditPlugin@@QEAPEAV1@AEAV?$allocator@PEAVEditPlugin@@@0@@Z
	??$_Destroy_range@V?$allocator@PEAVFilterPlugin@@@std@@@std@@YAXPEAPEAVFilterPlugin@@QEAPEAV1@AEAV?$allocator@PEAVFilterPlugin@@@0@@Z
	??$_Destroy_range@V?$allocator@PEAVIOPlugin@@@std@@@std@@YAXPEAPEAVIOPlugin@@QEAPEAV1@AEAV?$allocator@PEAVIOPlugin@@@0@@Z
	??$_Destroy_range@V?$allocator@PEAVMeshLabPlugin@@@std@@@std@@YAXPEAPEAVMeshLabPlugin@@QEAPEAV1@AEAV?$allocator@PEAVMeshLabPlugin@@@0@@Z
	??$_Destroy_range@V?$allocator@PEAVPVertex@vcg@@@std@@@std@@YAXPEAPEAVPVertex@vcg@@QEAPEAV12@AEAV?$allocator@PEAVPVertex@vcg@@@0@@Z
	??$_Destroy_range@V?$allocator@PEAVQAction@@@std@@@std@@YAXPEAPEAVQAction@@QEAPEAV1@AEAV?$allocator@PEAVQAction@@@0@@Z
	??$_Destroy_range@V?$allocator@PEAVQPluginLoader@@@std@@@std@@YAXPEAPEAVQPluginLoader@@QEAPEAV1@AEAV?$allocator@PEAVQPluginLoader@@@0@@Z
	??$_Destroy_range@V?$allocator@PEAVRenderPlugin@@@std@@@std@@YAXPEAPEAVRenderPlugin@@QEAPEAV1@AEAV?$allocator@PEAVRenderPlugin@@@0@@Z
	??$_Destroy_range@V?$allocator@U?$CurvatureDirOcfBaseType@M@face@vcg@@@std@@@std@@YAXPEAU?$CurvatureDirOcfBaseType@M@face@vcg@@QEAU123@AEAV?$allocator@U?$CurvatureDirOcfBaseType@M@face@vcg@@@0@@Z
	??$_Destroy_range@V?$allocator@U?$CurvatureDirTypeOcf@M@vertex@vcg@@@std@@@std@@YAXPEAU?$CurvatureDirTypeOcf@M@vertex@vcg@@QEAU123@AEAV?$allocator@U?$CurvatureDirTypeOcf@M@vertex@vcg@@@0@@Z
	??$_Destroy_range@V?$allocator@U?$pair@FI@std@@@std@@@std@@YAXPEAU?$pair@FI@0@QEAU10@AEAV?$allocator@U?$pair@FI@std@@@0@@Z
	??$_Destroy_range@V?$allocator@U?$pair@II@std@@@std@@@std@@YAXPEAU?$pair@II@0@QEAU10@AEAV?$allocator@U?$pair@II@std@@@0@@Z
	??$_Destroy_range@V?$allocator@UAdjTypePack@?$vector_ocf@VCFaceO@@@face@vcg@@@std@@@std@@YAXPEAUAdjTypePack@?$vector_ocf@VCFaceO@@@face@vcg@@QEAU1234@AEAV?$allocator@UAdjTypePack@?$vector_ocf@VCFaceO@@@face@vcg@@@0@@Z
	??$_Destroy_range@V?$allocator@UVFAdjType@?$vector_ocf@VCVertexO@@@vertex@vcg@@@std@@@std@@YAXPEAUVFAdjType@?$vector_ocf@VCVertexO@@@vertex@vcg@@QEAU1234@AEAV?$allocator@UVFAdjType@?$vector_ocf@VCVertexO@@@vertex@vcg@@@0@@Z
	??$_Destroy_range@V?$allocator@V?$Color4@E@vcg@@@std@@@std@@YAXPEAV?$Color4@E@vcg@@QEAV12@AEAV?$allocator@V?$Color4@E@vcg@@@0@@Z
	??$_Destroy_range@V?$allocator@V?$HEdge@V?$UsedTypes@UAsVertexType@?$Use@VCVertexO@@@vcg@@UAsEdgeType@?$Use@VCEdgeO@@@3@UAsFaceType@?$Use@VCFaceO@@@3@VDefaultDeriver@3@V83@V83@V83@V83@@vcg@@VDefaultDeriver@2@V32@V32@V32@V32@V32@V32@V32@V32@V32@V32@@vcg@@@std@@@std@@YAXPEAV?$HEdge@V?$UsedTypes@UAsVertexType@?$Use@VCVertexO@@@vcg@@UAsEdgeType@?$Use@VCEdgeO@@@3@UAsFaceType@?$Use@VCFaceO@@@3@VDefaultDeriver@3@V83@V83@V83@V83@@vcg@@VDefaultDeriver@2@V32@V32@V32@V32@V32@V32@V32@V32@V32@V32@@vcg@@QEAV12@AEAV?$allocator@V?$HEdge@V?$UsedTypes@UAsVertexType@?$Use@VCVertexO@@@vcg@@UAsEdgeType@?$Use@VCEdgeO@@@3@UAsFaceType@?$Use@VCFaceO@@@3@VDefaultDeriver@3@V83@V83@V83@V83@@vcg@@VDefaultDeriver@2@V32@V32@V32@V32@V32@V32@V32@V32@V32@V32@@vcg@@@0@@Z
	??$_Destroy_range@V?$allocator@V?$HEdge@V?$UsedTypes@UAsVertexType@?$Use@VPVertex@vcg@@@vcg@@UAsEdgeType@?$Use@VPEdge@vcg@@@3@UAsFaceType@?$Use@VPFace@vcg@@@3@VDefaultDeriver@3@V83@V83@V83@V83@@vcg@@VDefaultDeriver@2@V32@V32@V32@V32@V32@V32@V32@V32@V32@V32@@vcg@@@std@@@std@@YAXPEAV?$HEdge@V?$UsedTypes@UAsVertexType@?$Use@VPVertex@vcg@@@vcg@@UAsEdgeType@?$Use@VPEdge@vcg@@@3@UAsFaceType@?$Use@VPFace@vcg@@@3@VDefaultDeriver@3@V83@V83@V83@V83@@vcg@@VDefaultDeriver@2@V32@V32@V32@V32@V32@V32@V32@V32@V32@V32@@vcg@@QEAV12@AEAV?$allocator@V?$HEdge@V?$UsedTypes@UAsVertexType@?$Use@VPVertex@vcg@@@vcg@@UAsEdgeType@?$Use@VPEdge@vcg@@@3@UAsFaceType@?$Use@VPFace@vcg@@@3@VDefaultDeriver@3@V83@V83@V83@V83@@vcg@@VDefaultDeriver@2@V32@V32@V32@V32@V32@V32@V32@V32@V32@V32@@vcg@@@0@@Z
	??$_Destroy_range@V?$allocator@V?$Point2@M@vcg@@@std@@@std@@YAXPEAV?$Point2@M@vcg@@QEAV12@AEAV?$allocator@V?$Point2@M@vcg@@@0@@Z
	??$_Destroy_range@V?$allocator@V?$Point3@M@vcg@@@std@@@std@@YAXPEAV?$Point3@M@vcg@@QEAV12@AEAV?$allocator@V?$Point3@M@vcg@@@0@@Z
	??$_Destroy_range@V?$allocator@V?$TetraSimp@V?$UsedTypes@UAsVertexType@?$Use@VCVertexO@@@vcg@@UAsEdgeType@?$Use@VCEdgeO@@@3@UAsFaceType@?$Use@VCFaceO@@@3@VDefaultDeriver@3@V83@V83@V83@V83@@vcg@@VDefaultDeriver@2@V32@V32@V32@V32@V32@V32@V32@V32@V32@V32@V32@@vcg@@@std@@@std@@YAXPEAV?$TetraSimp@V?$UsedTypes@UAsVertexType@?$Use@VCVertexO@@@vcg@@UAsEdgeType@?$Use@VCEdgeO@@@3@UAsFaceType@?$Use@VCFaceO@@@3@VDefaultDeriver@3@V83@V83@V83@V83@@vcg@@VDefaultDeriver@2@V32@V32@V32@V32@V32@V32@V32@V32@V32@V32@V32@@vcg@@QEAV12@AEAV?$allocator@V?$TetraSimp@V?$UsedTypes@UAsVertexType@?$Use@VCVertexO@@@vcg@@UAsEdgeType@?$Use@VCEdgeO@@@3@UAsFaceType@?$Use@VCFaceO@@@3@VDefaultDeriver@3@V83@V83@V83@V83@@vcg@@VDefaultDeriver@2@V32@V32@V32@V32@V32@V32@V32@V32@V32@V32@V32@@vcg@@@0@@Z
	??$_Destroy_range@V?$allocator@V?$TetraSimp@V?$UsedTypes@UAsVertexType@?$Use@VPVertex@vcg@@@vcg@@UAsEdgeType@?$Use@VPEdge@vcg@@@3@UAsFaceType@?$Use@VPFace@vcg@@@3@VDefaultDeriver@3@V83@V83@V83@V83@@vcg@@VDefaultDeriver@2@V32@V32@V32@V32@V32@V32@V32@V32@V32@V32@V32@@vcg@@@std@@@std@@YAXPEAV?$TetraSimp@V?$UsedTypes@UAsVertexType@?$Use@VPVertex@vcg@@@vcg@@UAsEdgeType@?$Use@VPEdge@vcg@@@3@UAsFaceType@?$Use@VPFace@vcg@@@3@VDefaultDeriver@3@V83@V83@V83@V83@@vcg@@VDefaultDeriver@2@V32@V32@V32@V32@V32@V32@V32@V32@V32@V32@V32@@vcg@@QEAV12@AEAV?$allocator@V?$TetraSimp@V?$UsedTypes@UAsVertexType@?$Use@VPVertex@vcg@@@vcg@@UAsEdgeType@?$Use@VPEdge@vcg@@@3@UAsFaceType@?$Use@VPFace@vcg@@@3@VDefaultDeriver@3@V83@V83@V83@V83@@vcg@@VDefaultDeriver@2@V32@V32@V32@V32@V32@V32@V32@V32@V32@V32@V32@@vcg@@@0@@Z
	??$_Destroy_range@V?$allocator@V?$TexCoord2@M$00@vcg@@@std@@@std@@YAXPEAV?$TexCoord2@M$00@vcg@@QEAV12@AEAV?$allocator@V?$TexCoord2@M$00@vcg@@@0@@Z
	??$_Destroy_range@V?$allocator@V?$basic_string@DU?$char_traits@D@std@@V?$allocator@D@2@@std@@@std@@@std@@YAXPEAV?$basic_string@DU?$char_traits@D@std@@V?$allocator@D@2@@0@QEAV10@AEAV?$allocator@V?$basic_string@DU?$char_traits@D@std@@V?$allocator@D@2@@std@@@0@@Z
	??$_Destroy_range@V?$allocator@V?$vector@IV?$allocator@I@std@@@std@@@std@@@std@@YAXPEAV?$vector@IV?$allocator@I@std@@@0@QEAV10@AEAV?$allocator@V?$vector@IV?$allocator@I@std@@@std@@@0@@Z
	??$_Destroy_range@V?$allocator@VCEdgeO@@@std@@@std@@YAXPEAVCEdgeO@@QEAV1@AEAV?$allocator@VCEdgeO@@@0@@Z
	??$_Destroy_range@V?$allocator@VCFaceO@@@std@@@std@@YAXPEAVCFaceO@@QEAV1@AEAV?$allocator@VCFaceO@@@0@@Z
	??$_Destroy_range@V?$allocator@VCVertexO@@@std@@@std@@YAXPEAVCVertexO@@QEAV1@AEAV?$allocator@VCVertexO@@@0@@Z
	??$_Destroy_range@V?$allocator@VEdgeVertInd@?$NotThreadSafeGLMeshAttributesMultiViewerBOManager@VCMeshO@@PEAVQGLContext@@UMLPerViewGLOptions@@@vcg@@@std@@@std@@YAXPEAVEdgeVertInd@?$NotThreadSafeGLMeshAttributesMultiViewerBOManager@VCMeshO@@PEAVQGLContext@@UMLPerViewGLOptions@@@vcg@@QEAV123@AEAV?$allocator@VEdgeVertInd@?$NotThreadSafeGLMeshAttributesMultiViewerBOManager@VCMeshO@@PEAVQGLContext@@UMLPerViewGLOptions@@@vcg@@@0@@Z
	??$_Destroy_range@V?$allocator@VInternalRendAtts@GLMeshAttributesInfo@vcg@@@std@@@std@@YAXPEAVInternalRendAtts@GLMeshAttributesInfo@vcg@@QEAV123@AEAV?$allocator@VInternalRendAtts@GLMeshAttributesInfo@vcg@@@0@@Z
	??$_Destroy_range@V?$allocator@VMLRenderingData@@@std@@@std@@YAXPEAVMLRenderingData@@QEAV1@AEAV?$allocator@VMLRenderingData@@@0@@Z
	??$_Destroy_range@V?$allocator@VPEdge@?$UpdateTopology@VCMeshO@@@tri@vcg@@@std@@@std@@YAXPEAVPEdge@?$UpdateTopology@VCMeshO@@@tri@vcg@@QEAV1234@AEAV?$allocator@VPEdge@?$UpdateTopology@VCMeshO@@@tri@vcg@@@0@@Z
	??$_Destroy_range@V?$allocator@VPEdge@vcg@@@std@@@std@@YAXPEAVPEdge@vcg@@QEAV12@AEAV?$allocator@VPEdge@vcg@@@0@@Z
	??$_Destroy_range@V?$allocator@VPFace@vcg@@@std@@@std@@YAXPEAVPFace@vcg@@QEAV12@AEAV?$allocator@VPFace@vcg@@@0@@Z
	??$_Destroy_range@V?$allocator@VPVertex@vcg@@@std@@@std@@YAXPEAVPVertex@vcg@@QEAV12@AEAV?$allocator@VPVertex@vcg@@@0@@Z
	??$_Destroy_range@V?$allocator@VWedgeColorTypePack@?$vector_ocf@VCFaceO@@@face@vcg@@@std@@@std@@YAXPEAVWedgeColorTypePack@?$vector_ocf@VCFaceO@@@face@vcg@@QEAV1234@AEAV?$allocator@VWedgeColorTypePack@?$vector_ocf@VCFaceO@@@face@vcg@@@0@@Z
	??$_Destroy_range@V?$allocator@VWedgeNormalTypePack@?$vector_ocf@VCFaceO@@@face@vcg@@@std@@@std@@YAXPEAVWedgeNormalTypePack@?$vector_ocf@VCFaceO@@@face@vcg@@QEAV1234@AEAV?$allocator@VWedgeNormalTypePack@?$vector_ocf@VCFaceO@@@face@vcg@@@0@@Z
	??$_Destroy_range@V?$allocator@VWedgeTexTypePack@?$vector_ocf@VCFaceO@@@face@vcg@@@std@@@std@@YAXPEAVWedgeTexTypePack@?$vector_ocf@VCFaceO@@@face@vcg@@QEAV1234@AEAV?$allocator@VWedgeTexTypePack@?$vector_ocf@VCFaceO@@@face@vcg@@@0@@Z
	??$_Destroy_range@V?$allocator@_K@std@@@std@@YAXPEA_KQEA_KAEAV?$allocator@_K@0@@Z
	??$_Emplace@AEBH@?$list@HV?$allocator@H@std@@@std@@QEAAPEAU?$_List_node@HPEAX@1@QEAU21@AEBH@Z
	??$_Emplace@AEBQEAVMeshModel@@@?$list@PEAVMeshModel@@V?$allocator@PEAVMeshModel@@@std@@@std@@QEAAPEAU?$_List_node@PEAVMeshModel@@PEAX@1@QEAU21@AEBQEAVMeshModel@@@Z
	??$_Emplace@AEBQEAVRichParameter@@@?$list@PEAVRichParameter@@V?$allocator@PEAVRichParameter@@@std@@@std@@QEAAPEAU?$_List_node@PEAVRichParameter@@PEAX@1@QEAU21@AEBQEAVRichParameter@@@Z
	??$_Emplace@AEBV?$Matrix@I$0?0$00$0A@$0?0$00@Eigen@@@?$list@V?$Matrix@I$0?0$00$0A@$0?0$00@Eigen@@V?$allocator@V?$Matrix@I$0?0$00$0A@$0?0$00@Eigen@@@std@@@std@@QEAAPEAU?$_List_node@V?$Matrix@I$0?0$00$0A@$0?0$00@Eigen@@PEAX@1@QEAU21@AEBV?$Matrix@I$0?0$00$0A@$0?0$00@Eigen@@@Z
	??$_Emplace@AEBV?$basic_string@DU?$char_traits@D@std@@V?$allocator@D@2@@std@@@?$list@V?$basic_string@DU?$char_traits@D@std@@V?$allocator@D@2@@std@@V?$allocator@V?$basic_string@DU?$char_traits@D@std@@V?$allocator@D@2@@std@@@2@@std@@QEAAPEAU?$_List_node@V?$basic_string@DU?$char_traits@D@std@@V?$allocator@D@2@@std@@PEAX@1@QEAU21@AEBV?$basic_string@DU?$char_traits@D@std@@V?$allocator@D@2@@1@@Z
	??$_Emplace@AEBVFunction@pymeshlab@@@?$_Tree@V?$_Tset_traits@VFunction@pymeshlab@@U?$less@VFunction@pymeshlab@@@std@@V?$allocator@VFunction@pymeshlab@@@4@$0A@@std@@@std@@IEAA?AU?$pair@PEAU?$_Tree_node@VFunction@pymeshlab@@PEAX@std@@_N@1@AEBVFunction@pymeshlab@@@Z
	??$_Emplace@AEBVFunctionParameter@pymeshlab@@@?$list@VFunctionParameter@pymeshlab@@V?$allocator@VFunctionParameter@pymeshlab@@@std@@@std@@QEAAPEAU?$_List_node@VFunctionParameter@pymeshlab@@PEAX@1@QEAU21@AEBVFunctionParameter@pymeshlab@@@Z
	??$_Emplace@AEBVPointerToAttribute@vcg@@@?$_Tree@V?$_Tset_traits@VPointerToAttribute@vcg@@U?$less@VPointerToAttribute@vcg@@@std@@V?$allocator@VPointerToAttribute@vcg@@@4@$0A@@std@@@std@@IEAA?AU?$pair@PEAU?$_Tree_node@VPointerToAttribute@vcg@@PEAX@std@@_N@1@AEBVPointerToAttribute@vcg@@@Z
	??$_Emplace@PEAVMeshModel@@@?$list@PEAVMeshModel@@V?$allocator@PEAVMeshModel@@@std@@@std@@QEAAPEAU?$_List_node@PEAVMeshModel@@PEAX@1@QEAU21@$$QEAPEAVMeshModel@@@Z
	??$_Emplace@PEAVRichParameter@@@?$list@PEAVRichParameter@@V?$allocator@PEAVRichParameter@@@std@@@std@@QEAAPEAU?$_List_node@PEAVRichParameter@@PEAX@1@QEAU21@$$QEAPEAVRichParameter@@@Z
	??$_Emplace@U?$pair@VQString@@V1@@std@@@?$list@U?$pair@VQString@@V1@@std@@V?$allocator@U?$pair@VQString@@V1@@std@@@2@@std@@QEAAPEAU?$_List_node@U?$pair@VQString@@V1@@std@@PEAX@1@QEAU21@$$QEAU?$pair@VQString@@V1@@1@@Z
	??$_Emplace@V?$basic_string@DU?$char_traits@D@std@@V?$allocator@D@2@@std@@@?$list@V?$basic_string@DU?$char_traits@D@std@@V?$allocator@D@2@@std@@V?$allocator@V?$basic_string@DU?$char_traits@D@std@@V?$allocator@D@2@@std@@@2@@std@@QEAAPEAU?$_List_node@V?$basic_string@DU?$char_traits@D@std@@V?$allocator@D@2@@std@@PEAX@1@QEAU21@$$QEAV?$basic_string@DU?$char_traits@D@std@@V?$allocator@D@2@@1@@Z
	??$_Emplace@VMeshModel@@@?$list@VMeshModel@@V?$allocator@VMeshModel@@@std@@@std@@QEAAPEAU?$_List_node@VMeshModel@@PEAX@1@QEAU21@$$QEAVMeshModel@@@Z
	??$_Emplace@VQString@@@?$_Tree@V?$_Tset_traits@VQString@@U?$less@VQString@@@std@@V?$allocator@VQString@@@3@$0A@@std@@@std@@IEAA?AU?$pair@PEAU?$_Tree_node@VQString@@PEAX@std@@_N@1@$$QEAVQString@@@Z
	??$_Emplace@VRasterModel@@@?$list@VRasterModel@@V?$allocator@VRasterModel@@@std@@@std@@QEAAPEAU?$_List_node@VRasterModel@@PEAX@1@QEAU21@$$QEAVRasterModel@@@Z
	??$_Emplace_back@$$V@?$_Uninitialized_backout_al@V?$allocator@H@std@@@std@@QEAAXXZ
	??$_Emplace_back@$$V@?$_Uninitialized_backout_al@V?$allocator@I@std@@@std@@QEAAXXZ
	??$_Emplace_back@$$V@?$_Uninitialized_backout_al@V?$allocator@M@std@@@std@@QEAAXXZ
	??$_Emplace_back@$$V@?$_Uninitialized_backout_al@V?$allocator@PEAVCVertexO@@@std@@@std@@QEAAXXZ
	??$_Emplace_back@$$V@?$_Uninitialized_backout_al@V?$allocator@PEAVPVertex@vcg@@@std@@@std@@QEAAXXZ
	??$_Emplace_back@$$V@?$_Uninitialized_backout_al@V?$allocator@PEAVQAction@@@std@@@std@@QEAAXXZ
	??$_Emplace_back@$$V@?$_Uninitialized_backout_al@V?$allocator@U?$CurvatureDirOcfBaseType@M@face@vcg@@@std@@@std@@QEAAXXZ
	??$_Emplace_back@$$V@?$_Uninitialized_backout_al@V?$allocator@U?$CurvatureDirTypeOcf@M@vertex@vcg@@@std@@@std@@QEAAXXZ
	??$_Emplace_back@$$V@?$_Uninitialized_backout_al@V?$allocator@U?$pair@FI@std@@@std@@@std@@QEAAXXZ
	??$_Emplace_back@$$V@?$_Uninitialized_backout_al@V?$allocator@UAdjTypePack@?$vector_ocf@VCFaceO@@@face@vcg@@@std@@@std@@QEAAXXZ
	??$_Emplace_back@$$V@?$_Uninitialized_backout_al@V?$allocator@V?$Color4@E@vcg@@@std@@@std@@QEAAXXZ
	??$_Emplace_back@$$V@?$_Uninitialized_backout_al@V?$allocator@V?$HEdge@V?$UsedTypes@UAsVertexType@?$Use@VCVertexO@@@vcg@@UAsEdgeType@?$Use@VCEdgeO@@@3@UAsFaceType@?$Use@VCFaceO@@@3@VDefaultDeriver@3@V83@V83@V83@V83@@vcg@@VDefaultDeriver@2@V32@V32@V32@V32@V32@V32@V32@V32@V32@V32@@vcg@@@std@@@std@@QEAAXXZ
	??$_Emplace_back@$$V@?$_Uninitialized_backout_al@V?$allocator@V?$Point2@M@vcg@@@std@@@std@@QEAAXXZ
	??$_Emplace_back@$$V@?$_Uninitialized_backout_al@V?$allocator@V?$Point3@M@vcg@@@std@@@std@@QEAAXXZ
	??$_Emplace_back@$$V@?$_Uninitialized_backout_al@V?$allocator@V?$TetraSimp@V?$UsedTypes@UAsVertexType@?$Use@VCVertexO@@@vcg@@UAsEdgeType@?$Use@VCEdgeO@@@3@UAsFaceType@?$Use@VCFaceO@@@3@VDefaultDeriver@3@V83@V83@V83@V83@@vcg@@VDefaultDeriver@2@V32@V32@V32@V32@V32@V32@V32@V32@V32@V32@V32@@vcg@@@std@@@std@@QEAAXXZ
	??$_Emplace_back@$$V@?$_Uninitialized_backout_al@V?$allocator@V?$TexCoord2@M$00@vcg@@@std@@@std@@QEAAXXZ
	??$_Emplace_back@$$V@?$_Uninitialized_backout_al@V?$allocator@V?$vector@IV?$allocator@I@std@@@std@@@std@@@std@@QEAAXXZ
	??$_Emplace_back@$$V@?$_Uninitialized_backout_al@V?$allocator@VCEdgeO@@@std@@@std@@QEAAXXZ
	??$_Emplace_back@$$V@?$_Uninitialized_backout_al@V?$allocator@VCFaceO@@@std@@@std@@QEAAXXZ
	??$_Emplace_back@$$V@?$_Uninitialized_backout_al@V?$allocator@VCVertexO@@@std@@@std@@QEAAXXZ
	??$_Emplace_back@$$V@?$_Uninitialized_backout_al@V?$allocator@VEdgeVertInd@?$NotThreadSafeGLMeshAttributesMultiViewerBOManager@VCMeshO@@PEAVQGLContext@@UMLPerViewGLOptions@@@vcg@@@std@@@std@@QEAAXXZ
	??$_Emplace_back@$$V@?$_Uninitialized_backout_al@V?$allocator@VInternalRendAtts@GLMeshAttributesInfo@vcg@@@std@@@std@@QEAAXXZ
	??$_Emplace_back@$$V@?$_Uninitialized_backout_al@V?$allocator@VPFace@vcg@@@std@@@std@@QEAAXXZ
	??$_Emplace_back@$$V@?$_Uninitialized_backout_al@V?$allocator@VPVertex@vcg@@@std@@@std@@QEAAXXZ
	??$_Emplace_back@$$V@?$_Uninitialized_backout_al@V?$allocator@VWedgeColorTypePack@?$vector_ocf@VCFaceO@@@face@vcg@@@std@@@std@@QEAAXXZ
	??$_Emplace_back@$$V@?$_Uninitialized_backout_al@V?$allocator@VWedgeNormalTypePack@?$vector_ocf@VCFaceO@@@face@vcg@@@std@@@std@@QEAAXXZ
	??$_Emplace_back@AEAPEAVQAction@@@?$_Uninitialized_backout_al@V?$allocator@PEAVQAction@@@std@@@std@@QEAAXAEAPEAVQAction@@@Z
	??$_Emplace_back@AEAV?$basic_string@DU?$char_traits@D@std@@V?$allocator@D@2@@std@@@?$_Uninitialized_backout_al@V?$allocator@V?$basic_string@DU?$char_traits@D@std@@V?$allocator@D@2@@std@@@std@@@std@@QEAAXAEAV?$basic_string@DU?$char_traits@D@std@@V?$allocator@D@2@@1@@Z
	??$_Emplace_back@AEAVInternalRendAtts@GLMeshAttributesInfo@vcg@@@?$_Uninitialized_backout_al@V?$allocator@VInternalRendAtts@GLMeshAttributesInfo@vcg@@@std@@@std@@QEAAXAEAVInternalRendAtts@GLMeshAttributesInfo@vcg@@@Z
	??$_Emplace_back@AEBH@?$_Uninitialized_backout_al@V?$allocator@H@std@@@std@@QEAAXAEBH@Z
	??$_Emplace_back@AEBI@?$_Uninitialized_backout_al@V?$allocator@I@std@@@std@@QEAAXAEBI@Z
	??$_Emplace_back@AEBM@?$_Uninitialized_backout_al@V?$allocator@M@std@@@std@@QEAAXAEBM@Z
	??$_Emplace_back@AEBQEAUGLBufferObject@?$NotThreadSafeGLMeshAttributesMultiViewerBOManager@VCMeshO@@PEAVQGLContext@@UMLPerViewGLOptions@@@vcg@@@?$_Uninitialized_backout_al@V?$allocator@PEAUGLBufferObject@?$NotThreadSafeGLMeshAttributesMultiViewerBOManager@VCMeshO@@PEAVQGLContext@@UMLPerViewGLOptions@@@vcg@@@std@@@std@@QEAAXAEBQEAUGLBufferObject@?$NotThreadSafeGLMeshAttributesMultiViewerBOManager@VCMeshO@@PEAVQGLContext@@UMLPerViewGLOptions@@@vcg@@@Z
	??$_Emplace_back@AEBUVFAdjType@?$vector_ocf@VCVertexO@@@vertex@vcg@@@?$_Uninitialized_backout_al@V?$allocator@UVFAdjType@?$vector_ocf@VCVertexO@@@vertex@vcg@@@std@@@std@@QEAAXAEBUVFAdjType@?$vector_ocf@VCVertexO@@@vertex@vcg@@@Z
	??$_Emplace_back@AEBV?$Color4@E@vcg@@@?$_Uninitialized_backout_al@V?$allocator@V?$Color4@E@vcg@@@std@@@std@@QEAAXAEBV?$Color4@E@vcg@@@Z
	??$_Emplace_back@AEBVInternalRendAtts@GLMeshAttributesInfo@vcg@@@?$_Uninitialized_backout_al@V?$allocator@VInternalRendAtts@GLMeshAttributesInfo@vcg@@@std@@@std@@QEAAXAEBVInternalRendAtts@GLMeshAttributesInfo@vcg@@@Z
	??$_Emplace_back@AEBVWedgeTexTypePack@?$vector_ocf@VCFaceO@@@face@vcg@@@?$_Uninitialized_backout_al@V?$allocator@VWedgeTexTypePack@?$vector_ocf@VCFaceO@@@face@vcg@@@std@@@std@@QEAAXAEBVWedgeTexTypePack@?$vector_ocf@VCFaceO@@@face@vcg@@@Z
	??$_Emplace_back@AEB_K@?$_Uninitialized_backout_al@V?$allocator@_K@std@@@std@@QEAAXAEB_K@Z
	??$_Emplace_back@H@?$_Uninitialized_backout_al@V?$allocator@H@std@@@std@@QEAAX$$QEAH@Z
	??$_Emplace_back@I@?$_Uninitialized_backout_al@V?$allocator@I@std@@@std@@QEAAX$$QEAI@Z
	??$_Emplace_back@M@?$_Uninitialized_backout_al@V?$allocator@M@std@@@std@@QEAAX$$QEAM@Z
	??$_Emplace_back@PEAVCFaceO@@@?$_Uninitialized_backout_al@V?$allocator@PEAVCFaceO@@@std@@@std@@QEAAX$$QEAPEAVCFaceO@@@Z
	??$_Emplace_back@PEAVCVertexO@@@?$_Uninitialized_backout_al@V?$allocator@PEAVCVertexO@@@std@@@std@@QEAAX$$QEAPEAVCVertexO@@@Z
	??$_Emplace_back@PEAVDecoratePlugin@@@?$_Uninitialized_backout_al@V?$allocator@PEAVDecoratePlugin@@@std@@@std@@QEAAX$$QEAPEAVDecoratePlugin@@@Z
	??$_Emplace_back@PEAVEditPlugin@@@?$_Uninitialized_backout_al@V?$allocator@PEAVEditPlugin@@@std@@@std@@QEAAX$$QEAPEAVEditPlugin@@@Z
	??$_Emplace_back@PEAVFilterPlugin@@@?$_Uninitialized_backout_al@V?$allocator@PEAVFilterPlugin@@@std@@@std@@QEAAX$$QEAPEAVFilterPlugin@@@Z
	??$_Emplace_back@PEAVIOPlugin@@@?$_Uninitialized_backout_al@V?$allocator@PEAVIOPlugin@@@std@@@std@@QEAAX$$QEAPEAVIOPlugin@@@Z
	??$_Emplace_back@PEAVMeshLabPlugin@@@?$_Uninitialized_backout_al@V?$allocator@PEAVMeshLabPlugin@@@std@@@std@@QEAAX$$QEAPEAVMeshLabPlugin@@@Z
	??$_Emplace_back@PEAVQAction@@@?$_Uninitialized_backout_al@V?$allocator@PEAVQAction@@@std@@@std@@QEAAX$$QEAPEAVQAction@@@Z
	??$_Emplace_back@PEAVQPluginLoader@@@?$_Uninitialized_backout_al@V?$allocator@PEAVQPluginLoader@@@std@@@std@@QEAAX$$QEAPEAVQPluginLoader@@@Z
	??$_Emplace_back@PEAVRenderPlugin@@@?$_Uninitialized_backout_al@V?$allocator@PEAVRenderPlugin@@@std@@@std@@QEAAX$$QEAPEAVRenderPlugin@@@Z
	??$_Emplace_back@U?$CurvatureDirOcfBaseType@M@face@vcg@@@?$_Uninitialized_backout_al@V?$allocator@U?$CurvatureDirOcfBaseType@M@face@vcg@@@std@@@std@@QEAAX$$QEAU?$CurvatureDirOcfBaseType@M@face@vcg@@@Z
	??$_Emplace_back@U?$CurvatureDirTypeOcf@M@vertex@vcg@@@?$_Uninitialized_backout_al@V?$allocator@U?$CurvatureDirTypeOcf@M@vertex@vcg@@@std@@@std@@QEAAX$$QEAU?$CurvatureDirTypeOcf@M@vertex@vcg@@@Z
	??$_Emplace_back@U?$pair@FI@std@@@?$_Uninitialized_backout_al@V?$allocator@U?$pair@FI@std@@@std@@@std@@QEAAX$$QEAU?$pair@FI@1@@Z
	??$_Emplace_back@U?$pair@II@std@@@?$_Uninitialized_backout_al@V?$allocator@U?$pair@II@std@@@std@@@std@@QEAAX$$QEAU?$pair@II@1@@Z
	??$_Emplace_back@UAdjTypePack@?$vector_ocf@VCFaceO@@@face@vcg@@@?$_Uninitialized_backout_al@V?$allocator@UAdjTypePack@?$vector_ocf@VCFaceO@@@face@vcg@@@std@@@std@@QEAAX$$QEAUAdjTypePack@?$vector_ocf@VCFaceO@@@face@vcg@@@Z
	??$_Emplace_back@UVFAdjType@?$vector_ocf@VCVertexO@@@vertex@vcg@@@?$_Uninitialized_backout_al@V?$allocator@UVFAdjType@?$vector_ocf@VCVertexO@@@vertex@vcg@@@std@@@std@@QEAAX$$QEAUVFAdjType@?$vector_ocf@VCVertexO@@@vertex@vcg@@@Z
	??$_Emplace_back@V?$Color4@E@vcg@@@?$_Uninitialized_backout_al@V?$allocator@V?$Color4@E@vcg@@@std@@@std@@QEAAX$$QEAV?$Color4@E@vcg@@@Z
	??$_Emplace_back@V?$HEdge@V?$UsedTypes@UAsVertexType@?$Use@VCVertexO@@@vcg@@UAsEdgeType@?$Use@VCEdgeO@@@3@UAsFaceType@?$Use@VCFaceO@@@3@VDefaultDeriver@3@V83@V83@V83@V83@@vcg@@VDefaultDeriver@2@V32@V32@V32@V32@V32@V32@V32@V32@V32@V32@@vcg@@@?$_Uninitialized_backout_al@V?$allocator@V?$HEdge@V?$UsedTypes@UAsVertexType@?$Use@VCVertexO@@@vcg@@UAsEdgeType@?$Use@VCEdgeO@@@3@UAsFaceType@?$Use@VCFaceO@@@3@VDefaultDeriver@3@V83@V83@V83@V83@@vcg@@VDefaultDeriver@2@V32@V32@V32@V32@V32@V32@V32@V32@V32@V32@@vcg@@@std@@@std@@QEAAX$$QEAV?$HEdge@V?$UsedTypes@UAsVertexType@?$Use@VCVertexO@@@vcg@@UAsEdgeType@?$Use@VCEdgeO@@@3@UAsFaceType@?$Use@VCFaceO@@@3@VDefaultDeriver@3@V83@V83@V83@V83@@vcg@@VDefaultDeriver@2@V32@V32@V32@V32@V32@V32@V32@V32@V32@V32@@vcg@@@Z
	??$_Emplace_back@V?$Point2@M@vcg@@@?$_Uninitialized_backout_al@V?$allocator@V?$Point2@M@vcg@@@std@@@std@@QEAAX$$QEAV?$Point2@M@vcg@@@Z
	??$_Emplace_back@V?$Point3@M@vcg@@@?$_Uninitialized_backout_al@V?$allocator@V?$Point3@M@vcg@@@std@@@std@@QEAAX$$QEAV?$Point3@M@vcg@@@Z
	??$_Emplace_back@V?$TetraSimp@V?$UsedTypes@UAsVertexType@?$Use@VCVertexO@@@vcg@@UAsEdgeType@?$Use@VCEdgeO@@@3@UAsFaceType@?$Use@VCFaceO@@@3@VDefaultDeriver@3@V83@V83@V83@V83@@vcg@@VDefaultDeriver@2@V32@V32@V32@V32@V32@V32@V32@V32@V32@V32@V32@@vcg@@@?$_Uninitialized_backout_al@V?$allocator@V?$TetraSimp@V?$UsedTypes@UAsVertexType@?$Use@VCVertexO@@@vcg@@UAsEdgeType@?$Use@VCEdgeO@@@3@UAsFaceType@?$Use@VCFaceO@@@3@VDefaultDeriver@3@V83@V83@V83@V83@@vcg@@VDefaultDeriver@2@V32@V32@V32@V32@V32@V32@V32@V32@V32@V32@V32@@vcg@@@std@@@std@@QEAAX$$QEAV?$TetraSimp@V?$UsedTypes@UAsVertexType@?$Use@VCVertexO@@@vcg@@UAsEdgeType@?$Use@VCEdgeO@@@3@UAsFaceType@?$Use@VCFaceO@@@3@VDefaultDeriver@3@V83@V83@V83@V83@@vcg@@VDefaultDeriver@2@V32@V32@V32@V32@V32@V32@V32@V32@V32@V32@V32@@vcg@@@Z
	??$_Emplace_back@V?$TexCoord2@M$00@vcg@@@?$_Uninitialized_backout_al@V?$allocator@V?$TexCoord2@M$00@vcg@@@std@@@std@@QEAAX$$QEAV?$TexCoord2@M$00@vcg@@@Z
	??$_Emplace_back@V?$basic_string@DU?$char_traits@D@std@@V?$allocator@D@2@@std@@@?$_Uninitialized_backout_al@V?$allocator@V?$basic_string@DU?$char_traits@D@std@@V?$allocator@D@2@@std@@@std@@@std@@QEAAX$$QEAV?$basic_string@DU?$char_traits@D@std@@V?$allocator@D@2@@1@@Z
	??$_Emplace_back@VCEdgeO@@@?$_Uninitialized_backout_al@V?$allocator@VCEdgeO@@@std@@@std@@QEAAX$$QEAVCEdgeO@@@Z
	??$_Emplace_back@VCFaceO@@@?$_Uninitialized_backout_al@V?$allocator@VCFaceO@@@std@@@std@@QEAAX$$QEAVCFaceO@@@Z
	??$_Emplace_back@VCVertexO@@@?$_Uninitialized_backout_al@V?$allocator@VCVertexO@@@std@@@std@@QEAAX$$QEAVCVertexO@@@Z
	??$_Emplace_back@VEdgeVertInd@?$NotThreadSafeGLMeshAttributesMultiViewerBOManager@VCMeshO@@PEAVQGLContext@@UMLPerViewGLOptions@@@vcg@@@?$_Uninitialized_backout_al@V?$allocator@VEdgeVertInd@?$NotThreadSafeGLMeshAttributesMultiViewerBOManager@VCMeshO@@PEAVQGLContext@@UMLPerViewGLOptions@@@vcg@@@std@@@std@@QEAAX$$QEAVEdgeVertInd@?$NotThreadSafeGLMeshAttributesMultiViewerBOManager@VCMeshO@@PEAVQGLContext@@UMLPerViewGLOptions@@@vcg@@@Z
	??$_Emplace_back@VPEdge@?$UpdateTopology@VCMeshO@@@tri@vcg@@@?$_Uninitialized_backout_al@V?$allocator@VPEdge@?$UpdateTopology@VCMeshO@@@tri@vcg@@@std@@@std@@QEAAX$$QEAVPEdge@?$UpdateTopology@VCMeshO@@@tri@vcg@@@Z
	??$_Emplace_back@VPFace@vcg@@@?$_Uninitialized_backout_al@V?$allocator@VPFace@vcg@@@std@@@std@@QEAAX$$QEAVPFace@vcg@@@Z
	??$_Emplace_back@VPVertex@vcg@@@?$_Uninitialized_backout_al@V?$allocator@VPVertex@vcg@@@std@@@std@@QEAAX$$QEAVPVertex@vcg@@@Z
	??$_Emplace_back@VWedgeColorTypePack@?$vector_ocf@VCFaceO@@@face@vcg@@@?$_Uninitialized_backout_al@V?$allocator@VWedgeColorTypePack@?$vector_ocf@VCFaceO@@@face@vcg@@@std@@@std@@QEAAX$$QEAVWedgeColorTypePack@?$vector_ocf@VCFaceO@@@face@vcg@@@Z
	??$_Emplace_back@VWedgeNormalTypePack@?$vector_ocf@VCFaceO@@@face@vcg@@@?$_Uninitialized_backout_al@V?$allocator@VWedgeNormalTypePack@?$vector_ocf@VCFaceO@@@face@vcg@@@std@@@std@@QEAAX$$QEAVWedgeNormalTypePack@?$vector_ocf@VCFaceO@@@face@vcg@@@Z
	??$_Emplace_back@VWedgeTexTypePack@?$vector_ocf@VCFaceO@@@face@vcg@@@?$_Uninitialized_backout_al@V?$allocator@VWedgeTexTypePack@?$vector_ocf@VCFaceO@@@face@vcg@@@std@@@std@@QEAAX$$QEAVWedgeTexTypePack@?$vector_ocf@VCFaceO@@@face@vcg@@@Z
	??$_Emplace_back@_K@?$_Uninitialized_backout_al@V?$allocator@_K@std@@@std@@QEAAX$$QEA_K@Z
	??$_Emplace_back_with_unused_capacity@AEBH@?$vector@HV?$allocator@H@std@@@std@@AEAA?A_TAEBH@Z
	??$_Emplace_back_with_unused_capacity@AEBI@?$vector@IV?$allocator@I@std@@@std@@AEAA?A_TAEBI@Z
	??$_Emplace_back_with_unused_capacity@AEBQEAVCFaceO@@@?$vector@PEAVCFaceO@@V?$allocator@PEAVCFaceO@@@std@@@std@@AEAA?A_TAEBQEAVCFaceO@@@Z
	??$_Emplace_back_with_unused_capacity@AEBQEAVCVertexO@@@?$vector@PEAVCVertexO@@V?$allocator@PEAVCVertexO@@@std@@@std@@AEAA?A_TAEBQEAVCVertexO@@@Z
	??$_Emplace_back_with_unused_capacity@AEBQEAVDecoratePlugin@@@?$vector@PEAVDecoratePlugin@@V?$allocator@PEAVDecoratePlugin@@@std@@@std@@AEAA?A_TAEBQEAVDecoratePlugin@@@Z
	??$_Emplace_back_with_unused_capacity@AEBQEAVEditPlugin@@@?$vector@PEAVEditPlugin@@V?$allocator@PEAVEditPlugin@@@std@@@std@@AEAA?A_TAEBQEAVEditPlugin@@@Z
	??$_Emplace_back_with_unused_capacity@AEBQEAVFilterPlugin@@@?$vector@PEAVFilterPlugin@@V?$allocator@PEAVFilterPlugin@@@std@@@std@@AEAA?A_TAEBQEAVFilterPlugin@@@Z
	??$_Emplace_back_with_unused_capacity@AEBQEAVIOPlugin@@@?$vector@PEAVIOPlugin@@V?$allocator@PEAVIOPlugin@@@std@@@std@@AEAA?A_TAEBQEAVIOPlugin@@@Z
	??$_Emplace_back_with_unused_capacity@AEBQEAVMeshLabPlugin@@@?$vector@PEAVMeshLabPlugin@@V?$allocator@PEAVMeshLabPlugin@@@std@@@std@@AEAA?A_TAEBQEAVMeshLabPlugin@@@Z
	??$_Emplace_back_with_unused_capacity@AEBQEAVQAction@@@?$vector@PEAVQAction@@V?$allocator@PEAVQAction@@@std@@@std@@AEAA?A_TAEBQEAVQAction@@@Z
	??$_Emplace_back_with_unused_capacity@AEBQEAVQPluginLoader@@@?$vector@PEAVQPluginLoader@@V?$allocator@PEAVQPluginLoader@@@std@@@std@@AEAA?A_TAEBQEAVQPluginLoader@@@Z
	??$_Emplace_back_with_unused_capacity@AEBQEAVRenderPlugin@@@?$vector@PEAVRenderPlugin@@V?$allocator@PEAVRenderPlugin@@@std@@@std@@AEAA?A_TAEBQEAVRenderPlugin@@@Z
	??$_Emplace_back_with_unused_capacity@AEBV?$Point3@M@vcg@@@?$vector@V?$Point3@M@vcg@@V?$allocator@V?$Point3@M@vcg@@@std@@@std@@AEAA?A_TAEBV?$Point3@M@vcg@@@Z
	??$_Emplace_back_with_unused_capacity@AEBV?$basic_string@DU?$char_traits@D@std@@V?$allocator@D@2@@std@@@?$vector@V?$basic_string@DU?$char_traits@D@std@@V?$allocator@D@2@@std@@V?$allocator@V?$basic_string@DU?$char_traits@D@std@@V?$allocator@D@2@@std@@@2@@std@@AEAA?A_TAEBV?$basic_string@DU?$char_traits@D@std@@V?$allocator@D@2@@1@@Z
	??$_Emplace_back_with_unused_capacity@H@?$vector@HV?$allocator@H@std@@@std@@AEAA?A_T$$QEAH@Z
	??$_Emplace_back_with_unused_capacity@I@?$vector@IV?$allocator@I@std@@@std@@AEAA?A_T$$QEAI@Z
	??$_Emplace_back_with_unused_capacity@U?$pair@II@std@@@?$vector@U?$pair@II@std@@V?$allocator@U?$pair@II@std@@@2@@std@@AEAA?A_T$$QEAU?$pair@II@1@@Z
	??$_Emplace_back_with_unused_capacity@V?$Point2@M@vcg@@@?$vector@V?$Point2@M@vcg@@V?$allocator@V?$Point2@M@vcg@@@std@@@std@@AEAA?A_T$$QEAV?$Point2@M@vcg@@@Z
	??$_Emplace_back_with_unused_capacity@V?$basic_string@DU?$char_traits@D@std@@V?$allocator@D@2@@std@@@?$vector@V?$basic_string@DU?$char_traits@D@std@@V?$allocator@D@2@@std@@V?$allocator@V?$basic_string@DU?$char_traits@D@std@@V?$allocator@D@2@@std@@@2@@std@@AEAA?A_T$$QEAV?$basic_string@DU?$char_traits@D@std@@V?$allocator@D@2@@1@@Z
	??$_Emplace_back_with_unused_capacity@VEdgeVertInd@?$NotThreadSafeGLMeshAttributesMultiViewerBOManager@VCMeshO@@PEAVQGLContext@@UMLPerViewGLOptions@@@vcg@@@?$vector@VEdgeVertInd@?$NotThreadSafeGLMeshAttributesMultiViewerBOManager@VCMeshO@@PEAVQGLContext@@UMLPerViewGLOptions@@@vcg@@V?$allocator@VEdgeVertInd@?$NotThreadSafeGLMeshAttributesMultiViewerBOManager@VCMeshO@@PEAVQGLContext@@UMLPerViewGLOptions@@@vcg@@@std@@@std@@AEAA?A_T$$QEAVEdgeVertInd@?$NotThreadSafeGLMeshAttributesMultiViewerBOManager@VCMeshO@@PEAVQGLContext@@UMLPerViewGLOptions@@@vcg@@@Z
	??$_Emplace_back_with_unused_capacity@VPEdge@?$UpdateTopology@VCMeshO@@@tri@vcg@@@?$vector@VPEdge@?$UpdateTopology@VCMeshO@@@tri@vcg@@V?$allocator@VPEdge@?$UpdateTopology@VCMeshO@@@tri@vcg@@@std@@@std@@AEAA?A_T$$QEAVPEdge@?$UpdateTopology@VCMeshO@@@tri@vcg@@@Z
	??$_Emplace_reallocate@AEBH@?$vector@HV?$allocator@H@std@@@std@@QEAAPEAHQEAHAEBH@Z
	??$_Emplace_reallocate@AEBI@?$vector@IV?$allocator@I@std@@@std@@QEAAPEAIQEAIAEBI@Z
	??$_Emplace_reallocate@AEBQEAVCFaceO@@@?$vector@PEAVCFaceO@@V?$allocator@PEAVCFaceO@@@std@@@std@@QEAAPEAPEAVCFaceO@@QEAPEAV2@AEBQEAV2@@Z
	??$_Emplace_reallocate@AEBQEAVCVertexO@@@?$vector@PEAVCVertexO@@V?$allocator@PEAVCVertexO@@@std@@@std@@QEAAPEAPEAVCVertexO@@QEAPEAV2@AEBQEAV2@@Z
	??$_Emplace_reallocate@AEBQEAVDecoratePlugin@@@?$vector@PEAVDecoratePlugin@@V?$allocator@PEAVDecoratePlugin@@@std@@@std@@QEAAPEAPEAVDecoratePlugin@@QEAPEAV2@AEBQEAV2@@Z
	??$_Emplace_reallocate@AEBQEAVEditPlugin@@@?$vector@PEAVEditPlugin@@V?$allocator@PEAVEditPlugin@@@std@@@std@@QEAAPEAPEAVEditPlugin@@QEAPEAV2@AEBQEAV2@@Z
	??$_Emplace_reallocate@AEBQEAVFilterPlugin@@@?$vector@PEAVFilterPlugin@@V?$allocator@PEAVFilterPlugin@@@std@@@std@@QEAAPEAPEAVFilterPlugin@@QEAPEAV2@AEBQEAV2@@Z
	??$_Emplace_reallocate@AEBQEAVIOPlugin@@@?$vector@PEAVIOPlugin@@V?$allocator@PEAVIOPlugin@@@std@@@std@@QEAAPEAPEAVIOPlugin@@QEAPEAV2@AEBQEAV2@@Z
	??$_Emplace_reallocate@AEBQEAVMeshLabPlugin@@@?$vector@PEAVMeshLabPlugin@@V?$allocator@PEAVMeshLabPlugin@@@std@@@std@@QEAAPEAPEAVMeshLabPlugin@@QEAPEAV2@AEBQEAV2@@Z
	??$_Emplace_reallocate@AEBQEAVQAction@@@?$vector@PEAVQAction@@V?$allocator@PEAVQAction@@@std@@@std@@QEAAPEAPEAVQAction@@QEAPEAV2@AEBQEAV2@@Z
	??$_Emplace_reallocate@AEBQEAVQPluginLoader@@@?$vector@PEAVQPluginLoader@@V?$allocator@PEAVQPluginLoader@@@std@@@std@@QEAAPEAPEAVQPluginLoader@@QEAPEAV2@AEBQEAV2@@Z
	??$_Emplace_reallocate@AEBQEAVRenderPlugin@@@?$vector@PEAVRenderPlugin@@V?$allocator@PEAVRenderPlugin@@@std@@@std@@QEAAPEAPEAVRenderPlugin@@QEAPEAV2@AEBQEAV2@@Z
	??$_Emplace_reallocate@AEBV?$Point3@M@vcg@@@?$vector@V?$Point3@M@vcg@@V?$allocator@V?$Point3@M@vcg@@@std@@@std@@QEAAPEAV?$Point3@M@vcg@@QEAV23@AEBV23@@Z
	??$_Emplace_reallocate@AEBV?$basic_string@DU?$char_traits@D@std@@V?$allocator@D@2@@std@@@?$vector@V?$basic_string@DU?$char_traits@D@std@@V?$allocator@D@2@@std@@V?$allocator@V?$basic_string@DU?$char_traits@D@std@@V?$allocator@D@2@@std@@@2@@std@@QEAAPEAV?$basic_string@DU?$char_traits@D@std@@V?$allocator@D@2@@1@QEAV21@AEBV21@@Z
	??$_Emplace_reallocate@H@?$vector@HV?$allocator@H@std@@@std@@QEAAPEAHQEAH$$QEAH@Z
	??$_Emplace_reallocate@I@?$vector@IV?$allocator@I@std@@@std@@QEAAPEAIQEAI$$QEAI@Z
	??$_Emplace_reallocate@U?$pair@II@std@@@?$vector@U?$pair@II@std@@V?$allocator@U?$pair@II@std@@@2@@std@@QEAAPEAU?$pair@II@1@QEAU21@$$QEAU21@@Z
	??$_Emplace_reallocate@V?$Point2@M@vcg@@@?$vector@V?$Point2@M@vcg@@V?$allocator@V?$Point2@M@vcg@@@std@@@std@@QEAAPEAV?$Point2@M@vcg@@QEAV23@$$QEAV23@@Z
	??$_Emplace_reallocate@V?$basic_string@DU?$char_traits@D@std@@V?$allocator@D@2@@std@@@?$vector@V?$basic_string@DU?$char_traits@D@std@@V?$allocator@D@2@@std@@V?$allocator@V?$basic_string@DU?$char_traits@D@std@@V?$allocator@D@2@@std@@@2@@std@@QEAAPEAV?$basic_string@DU?$char_traits@D@std@@V?$allocator@D@2@@1@QEAV21@$$QEAV21@@Z
	??$_Emplace_reallocate@VEdgeVertInd@?$NotThreadSafeGLMeshAttributesMultiViewerBOManager@VCMeshO@@PEAVQGLContext@@UMLPerViewGLOptions@@@vcg@@@?$vector@VEdgeVertInd@?$NotThreadSafeGLMeshAttributesMultiViewerBOManager@VCMeshO@@PEAVQGLContext@@UMLPerViewGLOptions@@@vcg@@V?$allocator@VEdgeVertInd@?$NotThreadSafeGLMeshAttributesMultiViewerBOManager@VCMeshO@@PEAVQGLContext@@UMLPerViewGLOptions@@@vcg@@@std@@@std@@QEAAPEAVEdgeVertInd@?$NotThreadSafeGLMeshAttributesMultiViewerBOManager@VCMeshO@@PEAVQGLContext@@UMLPerViewGLOptions@@@vcg@@QEAV234@$$QEAV234@@Z
	??$_Emplace_reallocate@VPEdge@?$UpdateTopology@VCMeshO@@@tri@vcg@@@?$vector@VPEdge@?$UpdateTopology@VCMeshO@@@tri@vcg@@V?$allocator@VPEdge@?$UpdateTopology@VCMeshO@@@tri@vcg@@@std@@@std@@QEAAPEAVPEdge@?$UpdateTopology@VCMeshO@@@tri@vcg@@QEAV2345@$$QEAV2345@@Z
	??$_Eqrange@PEAVQGLContext@@@?$_Tree@V?$_Tmap_traits@PEAVQGLContext@@V?$PerViewData@UMLPerViewGLOptions@@@vcg@@U?$less@PEAVQGLContext@@@std@@V?$allocator@U?$pair@QEAVQGLContext@@V?$PerViewData@UMLPerViewGLOptions@@@vcg@@@std@@@5@$0A@@std@@@std@@IEBA?AU?$pair@PEAU?$_Tree_node@U?$pair@QEAVQGLContext@@V?$PerViewData@UMLPerViewGLOptions@@@vcg@@@std@@PEAX@std@@PEAU12@@1@AEBQEAVQGLContext@@@Z
	??$_Erase_head@V?$allocator@U?$_Tree_node@U?$pair@$$CBFV?$vector@U?$pair@II@std@@V?$allocator@U?$pair@II@std@@@2@@std@@@std@@PEAX@std@@@std@@@?$_Tree_val@U?$_Tree_simple_types@U?$pair@$$CBFV?$vector@U?$pair@II@std@@V?$allocator@U?$pair@II@std@@@2@@std@@@std@@@std@@@std@@QEAAXAEAV?$allocator@U?$_Tree_node@U?$pair@$$CBFV?$vector@U?$pair@II@std@@V?$allocator@U?$pair@II@std@@@2@@std@@@std@@PEAX@std@@@1@@Z
	??$_Erase_head@V?$allocator@U?$_Tree_node@U?$pair@$$CBHPEAV?$QtThreadSafeGLMeshAttributesMultiViewerBOManager@VCMeshO@@PEAVQGLContext@@UMLPerViewGLOptions@@@vcg@@@std@@PEAX@std@@@std@@@?$_Tree_val@U?$_Tree_simple_types@U?$pair@$$CBHPEAV?$QtThreadSafeGLMeshAttributesMultiViewerBOManager@VCMeshO@@PEAVQGLContext@@UMLPerViewGLOptions@@@vcg@@@std@@@std@@@std@@QEAAXAEAV?$allocator@U?$_Tree_node@U?$pair@$$CBHPEAV?$QtThreadSafeGLMeshAttributesMultiViewerBOManager@VCMeshO@@PEAVQGLContext@@UMLPerViewGLOptions@@@vcg@@@std@@PEAX@std@@@1@@Z
	??$_Erase_head@V?$allocator@U?$_Tree_node@U?$pair@$$CBMV?$vector@PEAVQAction@@V?$allocator@PEAVQAction@@@std@@@std@@@std@@PEAX@std@@@std@@@?$_Tree_val@U?$_Tree_simple_types@U?$pair@$$CBMV?$vector@PEAVQAction@@V?$allocator@PEAVQAction@@@std@@@std@@@std@@@std@@@std@@QEAAXAEAV?$allocator@U?$_Tree_node@U?$pair@$$CBMV?$vector@PEAVQAction@@V?$allocator@PEAVQAction@@@std@@@std@@@std@@PEAX@std@@@1@@Z
	??$_Erase_head@V?$allocator@U?$_Tree_node@U?$pair@$$CBV?$basic_string@DU?$char_traits@D@std@@V?$allocator@D@2@@std@@VQImage@@@std@@PEAX@std@@@std@@@?$_Tree_val@U?$_Tree_simple_types@U?$pair@$$CBV?$basic_string@DU?$char_traits@D@std@@V?$allocator@D@2@@std@@VQImage@@@std@@@std@@@std@@QEAAXAEAV?$allocator@U?$_Tree_node@U?$pair@$$CBV?$basic_string@DU?$char_traits@D@std@@V?$allocator@D@2@@std@@VQImage@@@std@@PEAX@std@@@1@@Z
	??$_Erase_head@V?$allocator@U?$_Tree_node@U?$pair@$$CBVQString@@V?$vector@PEAVQAction@@V?$allocator@PEAVQAction@@@std@@@std@@@std@@PEAX@std@@@std@@@?$_Tree_val@U?$_Tree_simple_types@U?$pair@$$CBVQString@@V?$vector@PEAVQAction@@V?$allocator@PEAVQAction@@@std@@@std@@@std@@@std@@@std@@QEAAXAEAV?$allocator@U?$_Tree_node@U?$pair@$$CBVQString@@V?$vector@PEAVQAction@@V?$allocator@PEAVQAction@@@std@@@std@@@std@@PEAX@std@@@1@@Z
	??$_Erase_head@V?$allocator@U?$_Tree_node@U?$pair@QEAVQAction@@M@std@@PEAX@std@@@std@@@?$_Tree_val@U?$_Tree_simple_types@U?$pair@QEAVQAction@@M@std@@@std@@@std@@QEAAXAEAV?$allocator@U?$_Tree_node@U?$pair@QEAVQAction@@M@std@@PEAX@std@@@1@@Z
	??$_Erase_head@V?$allocator@U?$_Tree_node@U?$pair@QEAVQGLContext@@V?$PerViewData@UMLPerViewGLOptions@@@vcg@@@std@@PEAX@std@@@std@@@?$_Tree_val@U?$_Tree_simple_types@U?$pair@QEAVQGLContext@@V?$PerViewData@UMLPerViewGLOptions@@@vcg@@@std@@@std@@@std@@QEAAXAEAV?$allocator@U?$_Tree_node@U?$pair@QEAVQGLContext@@V?$PerViewData@UMLPerViewGLOptions@@@vcg@@@std@@PEAX@std@@@1@@Z
	??$_Erase_head@V?$allocator@U?$_Tree_node@VFunction@pymeshlab@@PEAX@std@@@std@@@?$_Tree_val@U?$_Tree_simple_types@VFunction@pymeshlab@@@std@@@std@@QEAAXAEAV?$allocator@U?$_Tree_node@VFunction@pymeshlab@@PEAX@std@@@1@@Z
	??$_Erase_head@V?$allocator@U?$_Tree_node@VPointerToAttribute@vcg@@PEAX@std@@@std@@@?$_Tree_val@U?$_Tree_simple_types@VPointerToAttribute@vcg@@@std@@@std@@QEAAXAEAV?$allocator@U?$_Tree_node@VPointerToAttribute@vcg@@PEAX@std@@@1@@Z
	??$_Erase_head@V?$allocator@U?$_Tree_node@VQString@@PEAX@std@@@std@@@?$_Tree_val@U?$_Tree_simple_types@VQString@@@std@@@std@@QEAAXAEAV?$allocator@U?$_Tree_node@VQString@@PEAX@std@@@1@@Z
	??$_Erase_tree@V?$allocator@U?$_Tree_node@U?$pair@$$CBFV?$vector@U?$pair@II@std@@V?$allocator@U?$pair@II@std@@@2@@std@@@std@@PEAX@std@@@std@@@?$_Tree_val@U?$_Tree_simple_types@U?$pair@$$CBFV?$vector@U?$pair@II@std@@V?$allocator@U?$pair@II@std@@@2@@std@@@std@@@std@@@std@@QEAAXAEAV?$allocator@U?$_Tree_node@U?$pair@$$CBFV?$vector@U?$pair@II@std@@V?$allocator@U?$pair@II@std@@@2@@std@@@std@@PEAX@std@@@1@PEAU?$_Tree_node@U?$pair@$$CBFV?$vector@U?$pair@II@std@@V?$allocator@U?$pair@II@std@@@2@@std@@@std@@PEAX@1@@Z
	??$_Erase_tree@V?$allocator@U?$_Tree_node@U?$pair@$$CBHPEAV?$QtThreadSafeGLMeshAttributesMultiViewerBOManager@VCMeshO@@PEAVQGLContext@@UMLPerViewGLOptions@@@vcg@@@std@@PEAX@std@@@std@@@?$_Tree_val@U?$_Tree_simple_types@U?$pair@$$CBHPEAV?$QtThreadSafeGLMeshAttributesMultiViewerBOManager@VCMeshO@@PEAVQGLContext@@UMLPerViewGLOptions@@@vcg@@@std@@@std@@@std@@QEAAXAEAV?$allocator@U?$_Tree_node@U?$pair@$$CBHPEAV?$QtThreadSafeGLMeshAttributesMultiViewerBOManager@VCMeshO@@PEAVQGLContext@@UMLPerViewGLOptions@@@vcg@@@std@@PEAX@std@@@1@PEAU?$_Tree_node@U?$pair@$$CBHPEAV?$QtThreadSafeGLMeshAttributesMultiViewerBOManager@VCMeshO@@PEAVQGLContext@@UMLPerViewGLOptions@@@vcg@@@std@@PEAX@1@@Z
	??$_Erase_tree@V?$allocator@U?$_Tree_node@U?$pair@$$CBMV?$vector@PEAVQAction@@V?$allocator@PEAVQAction@@@std@@@std@@@std@@PEAX@std@@@std@@@?$_Tree_val@U?$_Tree_simple_types@U?$pair@$$CBMV?$vector@PEAVQAction@@V?$allocator@PEAVQAction@@@std@@@std@@@std@@@std@@@std@@QEAAXAEAV?$allocator@U?$_Tree_node@U?$pair@$$CBMV?$vector@PEAVQAction@@V?$allocator@PEAVQAction@@@std@@@std@@@std@@PEAX@std@@@1@PEAU?$_Tree_node@U?$pair@$$CBMV?$vector@PEAVQAction@@V?$allocator@PEAVQAction@@@std@@@std@@@std@@PEAX@1@@Z
	??$_Erase_tree@V?$allocator@U?$_Tree_node@U?$pair@$$CBV?$basic_string@DU?$char_traits@D@std@@V?$allocator@D@2@@std@@VQImage@@@std@@PEAX@std@@@std@@@?$_Tree_val@U?$_Tree_simple_types@U?$pair@$$CBV?$basic_string@DU?$char_traits@D@std@@V?$allocator@D@2@@std@@VQImage@@@std@@@std@@@std@@QEAAXAEAV?$allocator@U?$_Tree_node@U?$pair@$$CBV?$basic_string@DU?$char_traits@D@std@@V?$allocator@D@2@@std@@VQImage@@@std@@PEAX@std@@@1@PEAU?$_Tree_node@U?$pair@$$CBV?$basic_string@DU?$char_traits@D@std@@V?$allocator@D@2@@std@@VQImage@@@std@@PEAX@1@@Z
	??$_Erase_tree@V?$allocator@U?$_Tree_node@U?$pair@$$CBVQString@@V?$vector@PEAVQAction@@V?$allocator@PEAVQAction@@@std@@@std@@@std@@PEAX@std@@@std@@@?$_Tree_val@U?$_Tree_simple_types@U?$pair@$$CBVQString@@V?$vector@PEAVQAction@@V?$allocator@PEAVQAction@@@std@@@std@@@std@@@std@@@std@@QEAAXAEAV?$allocator@U?$_Tree_node@U?$pair@$$CBVQString@@V?$vector@PEAVQAction@@V?$allocator@PEAVQAction@@@std@@@std@@@std@@PEAX@std@@@1@PEAU?$_Tree_node@U?$pair@$$CBVQString@@V?$vector@PEAVQAction@@V?$allocator@PEAVQAction@@@std@@@std@@@std@@PEAX@1@@Z
	??$_Erase_tree@V?$allocator@U?$_Tree_node@U?$pair@QEAVQAction@@M@std@@PEAX@std@@@std@@@?$_Tree_val@U?$_Tree_simple_types@U?$pair@QEAVQAction@@M@std@@@std@@@std@@QEAAXAEAV?$allocator@U?$_Tree_node@U?$pair@QEAVQAction@@M@std@@PEAX@std@@@1@PEAU?$_Tree_node@U?$pair@QEAVQAction@@M@std@@PEAX@1@@Z
	??$_Erase_tree@V?$allocator@U?$_Tree_node@U?$pair@QEAVQGLContext@@V?$PerViewData@UMLPerViewGLOptions@@@vcg@@@std@@PEAX@std@@@std@@@?$_Tree_val@U?$_Tree_simple_types@U?$pair@QEAVQGLContext@@V?$PerViewData@UMLPerViewGLOptions@@@vcg@@@std@@@std@@@std@@QEAAXAEAV?$allocator@U?$_Tree_node@U?$pair@QEAVQGLContext@@V?$PerViewData@UMLPerViewGLOptions@@@vcg@@@std@@PEAX@std@@@1@PEAU?$_Tree_node@U?$pair@QEAVQGLContext@@V?$PerViewData@UMLPerViewGLOptions@@@vcg@@@std@@PEAX@1@@Z
	??$_Erase_tree@V?$allocator@U?$_Tree_node@VFunction@pymeshlab@@PEAX@std@@@std@@@?$_Tree_val@U?$_Tree_simple_types@VFunction@pymeshlab@@@std@@@std@@QEAAXAEAV?$allocator@U?$_Tree_node@VFunction@pymeshlab@@PEAX@std@@@1@PEAU?$_Tree_node@VFunction@pymeshlab@@PEAX@1@@Z
	??$_Erase_tree@V?$allocator@U?$_Tree_node@VPointerToAttribute@vcg@@PEAX@std@@@std@@@?$_Tree_val@U?$_Tree_simple_types@VPointerToAttribute@vcg@@@std@@@std@@QEAAXAEAV?$allocator@U?$_Tree_node@VPointerToAttribute@vcg@@PEAX@std@@@1@PEAU?$_Tree_node@VPointerToAttribute@vcg@@PEAX@1@@Z
	??$_Erase_tree@V?$allocator@U?$_Tree_node@VQString@@PEAX@std@@@std@@@?$_Tree_val@U?$_Tree_simple_types@VQString@@@std@@@std@@QEAAXAEAV?$allocator@U?$_Tree_node@VQString@@PEAX@std@@@1@PEAU?$_Tree_node@VQString@@PEAX@1@@Z
	??$_Erase_tree_and_orphan@V?$allocator@U?$_Tree_node@U?$pair@$$CBV?$basic_string@DU?$char_traits@D@std@@V?$allocator@D@2@@std@@VQImage@@@std@@PEAX@std@@@std@@@?$_Tree_val@U?$_Tree_simple_types@U?$pair@$$CBV?$basic_string@DU?$char_traits@D@std@@V?$allocator@D@2@@std@@VQImage@@@std@@@std@@@std@@QEAAXAEAV?$allocator@U?$_Tree_node@U?$pair@$$CBV?$basic_string@DU?$char_traits@D@std@@V?$allocator@D@2@@std@@VQImage@@@std@@PEAX@std@@@1@PEAU?$_Tree_node@U?$pair@$$CBV?$basic_string@DU?$char_traits@D@std@@V?$allocator@D@2@@std@@VQImage@@@std@@PEAX@1@@Z
	??$_Fill_vbool@V?$_Vb_iterator@U?$_Wrap_alloc@V?$allocator@I@std@@@std@@@std@@_N@std@@YAXV?$_Vb_iterator@U?$_Wrap_alloc@V?$allocator@I@std@@@std@@@0@0AEB_N@Z
	??$_Fill_zero_memset@PEAH@std@@YAXPEAH_K@Z
	??$_Fill_zero_memset@PEAI@std@@YAXPEAI_K@Z
	??$_Fill_zero_memset@PEAM@std@@YAXPEAM_K@Z
	??$_Fill_zero_memset@PEAPEAUGLBufferObject@?$NotThreadSafeGLMeshAttributesMultiViewerBOManager@VCMeshO@@PEAVQGLContext@@UMLPerViewGLOptions@@@vcg@@@std@@YAXPEAPEAUGLBufferObject@?$NotThreadSafeGLMeshAttributesMultiViewerBOManager@VCMeshO@@PEAVQGLContext@@UMLPerViewGLOptions@@@vcg@@_K@Z
	??$_Fill_zero_memset@PEA_K@std@@YAXPEA_K_K@Z
	??$_Find@H@?$_Tree@V?$_Tmap_traits@HPEAV?$QtThreadSafeGLMeshAttributesMultiViewerBOManager@VCMeshO@@PEAVQGLContext@@UMLPerViewGLOptions@@@vcg@@U?$less@H@std@@V?$allocator@U?$pair@$$CBHPEAV?$QtThreadSafeGLMeshAttributesMultiViewerBOManager@VCMeshO@@PEAVQGLContext@@UMLPerViewGLOptions@@@vcg@@@std@@@4@$0A@@std@@@std@@AEBAPEAU?$_Tree_node@U?$pair@$$CBHPEAV?$QtThreadSafeGLMeshAttributesMultiViewerBOManager@VCMeshO@@PEAVQGLContext@@UMLPerViewGLOptions@@@vcg@@@std@@PEAX@1@AEBH@Z
	??$_Find@PEAVQGLContext@@@?$_Tree@V?$_Tmap_traits@PEAVQGLContext@@V?$PerViewData@UMLPerViewGLOptions@@@vcg@@U?$less@PEAVQGLContext@@@std@@V?$allocator@U?$pair@QEAVQGLContext@@V?$PerViewData@UMLPerViewGLOptions@@@vcg@@@std@@@5@$0A@@std@@@std@@AEBAPEAU?$_Tree_node@U?$pair@QEAVQGLContext@@V?$PerViewData@UMLPerViewGLOptions@@@vcg@@@std@@PEAX@1@AEBQEAVQGLContext@@@Z
	??$_Find@V?$basic_string@DU?$char_traits@D@std@@V?$allocator@D@2@@std@@@?$_Tree@V?$_Tmap_traits@V?$basic_string@DU?$char_traits@D@std@@V?$allocator@D@2@@std@@VQImage@@U?$less@V?$basic_string@DU?$char_traits@D@std@@V?$allocator@D@2@@std@@@2@V?$allocator@U?$pair@$$CBV?$basic_string@DU?$char_traits@D@std@@V?$allocator@D@2@@std@@VQImage@@@std@@@2@$0A@@std@@@std@@AEBAPEAU?$_Tree_node@U?$pair@$$CBV?$basic_string@DU?$char_traits@D@std@@V?$allocator@D@2@@std@@VQImage@@@std@@PEAX@1@AEBV?$basic_string@DU?$char_traits@D@std@@V?$allocator@D@2@@1@@Z
	??$_Find@VFunction@pymeshlab@@@?$_Tree@V?$_Tset_traits@VFunction@pymeshlab@@U?$less@VFunction@pymeshlab@@@std@@V?$allocator@VFunction@pymeshlab@@@4@$0A@@std@@@std@@AEBAPEAU?$_Tree_node@VFunction@pymeshlab@@PEAX@1@AEBVFunction@pymeshlab@@@Z
	??$_Find@VPointerToAttribute@vcg@@@?$_Tree@V?$_Tset_traits@VPointerToAttribute@vcg@@U?$less@VPointerToAttribute@vcg@@@std@@V?$allocator@VPointerToAttribute@vcg@@@4@$0A@@std@@@std@@AEBAPEAU?$_Tree_node@VPointerToAttribute@vcg@@PEAX@1@AEBVPointerToAttribute@vcg@@@Z
	??$_Find@VQString@@@?$_Tree@V?$_Tmap_traits@VQString@@V?$vector@PEAVQAction@@V?$allocator@PEAVQAction@@@std@@@std@@U?$less@VQString@@@3@V?$allocator@U?$pair@$$CBVQString@@V?$vector@PEAVQAction@@V?$allocator@PEAVQAction@@@std@@@std@@@std@@@3@$0A@@std@@@std@@AEBAPEAU?$_Tree_node@U?$pair@$$CBVQString@@V?$vector@PEAVQAction@@V?$allocator@PEAVQAction@@@std@@@std@@@std@@PEAX@1@AEBVQString@@@Z
	??$_Find@VQString@@@?$_Tree@V?$_Tset_traits@VQString@@U?$less@VQString@@@std@@V?$allocator@VQString@@@3@$0A@@std@@@std@@AEBAPEAU?$_Tree_node@VQString@@PEAX@1@AEBVQString@@@Z
	??$_Find_lower_bound@F@?$_Tree@V?$_Tmap_traits@FV?$vector@U?$pair@II@std@@V?$allocator@U?$pair@II@std@@@2@@std@@U?$less@F@2@V?$allocator@U?$pair@$$CBFV?$vector@U?$pair@II@std@@V?$allocator@U?$pair@II@std@@@2@@std@@@std@@@2@$0A@@std@@@std@@IEBA?AU?$_Tree_find_result@PEAU?$_Tree_node@U?$pair@$$CBFV?$vector@U?$pair@II@std@@V?$allocator@U?$pair@II@std@@@2@@std@@@std@@PEAX@std@@@1@AEBF@Z
	??$_Find_lower_bound@H@?$_Tree@V?$_Tmap_traits@HPEAV?$QtThreadSafeGLMeshAttributesMultiViewerBOManager@VCMeshO@@PEAVQGLContext@@UMLPerViewGLOptions@@@vcg@@U?$less@H@std@@V?$allocator@U?$pair@$$CBHPEAV?$QtThreadSafeGLMeshAttributesMultiViewerBOManager@VCMeshO@@PEAVQGLContext@@UMLPerViewGLOptions@@@vcg@@@std@@@4@$0A@@std@@@std@@IEBA?AU?$_Tree_find_result@PEAU?$_Tree_node@U?$pair@$$CBHPEAV?$QtThreadSafeGLMeshAttributesMultiViewerBOManager@VCMeshO@@PEAVQGLContext@@UMLPerViewGLOptions@@@vcg@@@std@@PEAX@std@@@1@AEBH@Z
	??$_Find_lower_bound@M@?$_Tree@V?$_Tmap_traits@MV?$vector@PEAVQAction@@V?$allocator@PEAVQAction@@@std@@@std@@U?$less@M@2@V?$allocator@U?$pair@$$CBMV?$vector@PEAVQAction@@V?$allocator@PEAVQAction@@@std@@@std@@@std@@@2@$0A@@std@@@std@@IEBA?AU?$_Tree_find_result@PEAU?$_Tree_node@U?$pair@$$CBMV?$vector@PEAVQAction@@V?$allocator@PEAVQAction@@@std@@@std@@@std@@PEAX@std@@@1@AEBM@Z
	??$_Find_lower_bound@PEAVQAction@@@?$_Tree@V?$_Tmap_traits@PEAVQAction@@MU?$less@PEAVQAction@@@std@@V?$allocator@U?$pair@QEAVQAction@@M@std@@@3@$0A@@std@@@std@@IEBA?AU?$_Tree_find_result@PEAU?$_Tree_node@U?$pair@QEAVQAction@@M@std@@PEAX@std@@@1@AEBQEAVQAction@@@Z
	??$_Find_lower_bound@PEAVQGLContext@@@?$_Tree@V?$_Tmap_traits@PEAVQGLContext@@V?$PerViewData@UMLPerViewGLOptions@@@vcg@@U?$less@PEAVQGLContext@@@std@@V?$allocator@U?$pair@QEAVQGLContext@@V?$PerViewData@UMLPerViewGLOptions@@@vcg@@@std@@@5@$0A@@std@@@std@@IEBA?AU?$_Tree_find_result@PEAU?$_Tree_node@U?$pair@QEAVQGLContext@@V?$PerViewData@UMLPerViewGLOptions@@@vcg@@@std@@PEAX@std@@@1@AEBQEAVQGLContext@@@Z
	??$_Find_lower_bound@V?$basic_string@DU?$char_traits@D@std@@V?$allocator@D@2@@std@@@?$_Tree@V?$_Tmap_traits@V?$basic_string@DU?$char_traits@D@std@@V?$allocator@D@2@@std@@VQImage@@U?$less@V?$basic_string@DU?$char_traits@D@std@@V?$allocator@D@2@@std@@@2@V?$allocator@U?$pair@$$CBV?$basic_string@DU?$char_traits@D@std@@V?$allocator@D@2@@std@@VQImage@@@std@@@2@$0A@@std@@@std@@IEBA?AU?$_Tree_find_result@PEAU?$_Tree_node@U?$pair@$$CBV?$basic_string@DU?$char_traits@D@std@@V?$allocator@D@2@@std@@VQImage@@@std@@PEAX@std@@@1@AEBV?$basic_string@DU?$char_traits@D@std@@V?$allocator@D@2@@1@@Z
	??$_Find_lower_bound@VFunction@pymeshlab@@@?$_Tree@V?$_Tset_traits@VFunction@pymeshlab@@U?$less@VFunction@pymeshlab@@@std@@V?$allocator@VFunction@pymeshlab@@@4@$0A@@std@@@std@@IEBA?AU?$_Tree_find_result@PEAU?$_Tree_node@VFunction@pymeshlab@@PEAX@std@@@1@AEBVFunction@pymeshlab@@@Z
	??$_Find_lower_bound@VPointerToAttribute@vcg@@@?$_Tree@V?$_Tset_traits@VPointerToAttribute@vcg@@U?$less@VPointerToAttribute@vcg@@@std@@V?$allocator@VPointerToAttribute@vcg@@@4@$0A@@std@@@std@@IEBA?AU?$_Tree_find_result@PEAU?$_Tree_node@VPointerToAttribute@vcg@@PEAX@std@@@1@AEBVPointerToAttribute@vcg@@@Z
	??$_Find_lower_bound@VQString@@@?$_Tree@V?$_Tmap_traits@VQString@@V?$vector@PEAVQAction@@V?$allocator@PEAVQAction@@@std@@@std@@U?$less@VQString@@@3@V?$allocator@U?$pair@$$CBVQString@@V?$vector@PEAVQAction@@V?$allocator@PEAVQAction@@@std@@@std@@@std@@@3@$0A@@std@@@std@@IEBA?AU?$_Tree_find_result@PEAU?$_Tree_node@U?$pair@$$CBVQString@@V?$vector@PEAVQAction@@V?$allocator@PEAVQAction@@@std@@@std@@@std@@PEAX@std@@@1@AEBVQString@@@Z
	??$_Find_lower_bound@VQString@@@?$_Tree@V?$_Tset_traits@VQString@@U?$less@VQString@@@std@@V?$allocator@VQString@@@3@$0A@@std@@@std@@IEBA?AU?$_Tree_find_result@PEAU?$_Tree_node@VQString@@PEAX@std@@@1@AEBVQString@@@Z
	??$_Find_unchecked1@PEAII@std@@YAPEAIPEAIQEAIAEBIU?$integral_constant@_N$0A@@0@@Z
	??$_Find_unchecked1@PEAPEAVDecoratePlugin@@PEAV1@@std@@YAPEAPEAVDecoratePlugin@@PEAPEAV1@QEAPEAV1@AEBQEAV1@U?$integral_constant@_N$0A@@0@@Z
	??$_Find_unchecked1@PEAPEAVEditPlugin@@PEAV1@@std@@YAPEAPEAVEditPlugin@@PEAPEAV1@QEAPEAV1@AEBQEAV1@U?$integral_constant@_N$0A@@0@@Z
	??$_Find_unchecked1@PEAPEAVFilterPlugin@@PEAV1@@std@@YAPEAPEAVFilterPlugin@@PEAPEAV1@QEAPEAV1@AEBQEAV1@U?$integral_constant@_N$0A@@0@@Z
	??$_Find_unchecked1@PEAPEAVIOPlugin@@PEAV1@@std@@YAPEAPEAVIOPlugin@@PEAPEAV1@QEAPEAV1@AEBQEAV1@U?$integral_constant@_N$0A@@0@@Z
	??$_Find_unchecked1@PEAPEAVMeshLabPlugin@@PEAV1@@std@@YAPEAPEAVMeshLabPlugin@@PEAPEAV1@QEAPEAV1@AEBQEAV1@U?$integral_constant@_N$0A@@0@@Z
	??$_Find_unchecked1@PEAPEAVRenderPlugin@@PEAV1@@std@@YAPEAPEAVRenderPlugin@@PEAPEAV1@QEAPEAV1@AEBQEAV1@U?$integral_constant@_N$0A@@0@@Z
	??$_Find_unchecked1@PEAV?$basic_string@DU?$char_traits@D@std@@V?$allocator@D@2@@std@@V12@@std@@YAPEAV?$basic_string@DU?$char_traits@D@std@@V?$allocator@D@2@@0@PEAV10@QEAV10@AEBV10@U?$integral_constant@_N$0A@@0@@Z
	??$_Find_unchecked1@V?$_List_unchecked_iterator@V?$_List_val@U?$_List_simple_types@PEAVQAction@@@std@@@std@@@std@@PEBVQAction@@@std@@YA?AV?$_List_unchecked_iterator@V?$_List_val@U?$_List_simple_types@PEAVQAction@@@std@@@std@@@0@V10@V10@AEBQEBVQAction@@U?$integral_constant@_N$0A@@0@@Z
	??$_Find_unchecked@PEAII@std@@YAPEAIQEAI0AEBI@Z
	??$_Find_unchecked@PEAPEAVDecoratePlugin@@PEAV1@@std@@YAPEAPEAVDecoratePlugin@@QEAPEAV1@0AEBQEAV1@@Z
	??$_Find_unchecked@PEAPEAVEditPlugin@@PEAV1@@std@@YAPEAPEAVEditPlugin@@QEAPEAV1@0AEBQEAV1@@Z
	??$_Find_unchecked@PEAPEAVFilterPlugin@@PEAV1@@std@@YAPEAPEAVFilterPlugin@@QEAPEAV1@0AEBQEAV1@@Z
	??$_Find_unchecked@PEAPEAVIOPlugin@@PEAV1@@std@@YAPEAPEAVIOPlugin@@QEAPEAV1@0AEBQEAV1@@Z
	??$_Find_unchecked@PEAPEAVMeshLabPlugin@@PEAV1@@std@@YAPEAPEAVMeshLabPlugin@@QEAPEAV1@0AEBQEAV1@@Z
	??$_Find_unchecked@PEAPEAVRenderPlugin@@PEAV1@@std@@YAPEAPEAVRenderPlugin@@QEAPEAV1@0AEBQEAV1@@Z
	??$_Find_unchecked@PEAV?$basic_string@DU?$char_traits@D@std@@V?$allocator@D@2@@std@@V12@@std@@YAPEAV?$basic_string@DU?$char_traits@D@std@@V?$allocator@D@2@@0@QEAV10@0AEBV10@@Z
	??$_Find_unchecked@V?$_List_unchecked_iterator@V?$_List_val@U?$_List_simple_types@PEAVQAction@@@std@@@std@@@std@@PEBVQAction@@@std@@YA?AV?$_List_unchecked_iterator@V?$_List_val@U?$_List_simple_types@PEAVQAction@@@std@@@std@@@0@V10@0AEBQEBVQAction@@@Z
	??$_Free_non_head@V?$allocator@U?$_List_node@HPEAX@std@@@std@@@?$_List_node@HPEAX@std@@SAXAEAV?$allocator@U?$_List_node@HPEAX@std@@@1@PEAU01@@Z
	??$_Free_non_head@V?$allocator@U?$_List_node@PEAVMeshModel@@PEAX@std@@@std@@@?$_List_node@PEAVMeshModel@@PEAX@std@@SAXAEAV?$allocator@U?$_List_node@PEAVMeshModel@@PEAX@std@@@1@PEAU01@@Z
	??$_Free_non_head@V?$allocator@U?$_List_node@PEAVQAction@@PEAX@std@@@std@@@?$_List_node@PEAVQAction@@PEAX@std@@SAXAEAV?$allocator@U?$_List_node@PEAVQAction@@PEAX@std@@@1@PEAU01@@Z
	??$_Free_non_head@V?$allocator@U?$_List_node@PEAVRichParameter@@PEAX@std@@@std@@@?$_List_node@PEAVRichParameter@@PEAX@std@@SAXAEAV?$allocator@U?$_List_node@PEAVRichParameter@@PEAX@std@@@1@PEAU01@@Z
	??$_Free_non_head@V?$allocator@U?$_List_node@U?$pair@VQString@@V1@@std@@PEAX@std@@@std@@@?$_List_node@U?$pair@VQString@@V1@@std@@PEAX@std@@SAXAEAV?$allocator@U?$_List_node@U?$pair@VQString@@V1@@std@@PEAX@std@@@1@PEAU01@@Z
	??$_Free_non_head@V?$allocator@U?$_List_node@V?$Matrix@I$0?0$00$0A@$0?0$00@Eigen@@PEAX@std@@@std@@@?$_List_node@V?$Matrix@I$0?0$00$0A@$0?0$00@Eigen@@PEAX@std@@SAXAEAV?$allocator@U?$_List_node@V?$Matrix@I$0?0$00$0A@$0?0$00@Eigen@@PEAX@std@@@1@PEAU01@@Z
	??$_Free_non_head@V?$allocator@U?$_List_node@V?$basic_string@DU?$char_traits@D@std@@V?$allocator@D@2@@std@@PEAX@std@@@std@@@?$_List_node@V?$basic_string@DU?$char_traits@D@std@@V?$allocator@D@2@@std@@PEAX@std@@SAXAEAV?$allocator@U?$_List_node@V?$basic_string@DU?$char_traits@D@std@@V?$allocator@D@2@@std@@PEAX@std@@@1@PEAU01@@Z
	??$_Free_non_head@V?$allocator@U?$_List_node@VFileFormat@@PEAX@std@@@std@@@?$_List_node@VFileFormat@@PEAX@std@@SAXAEAV?$allocator@U?$_List_node@VFileFormat@@PEAX@std@@@1@PEAU01@@Z
	??$_Free_non_head@V?$allocator@U?$_List_node@VFunctionParameter@pymeshlab@@PEAX@std@@@std@@@?$_List_node@VFunctionParameter@pymeshlab@@PEAX@std@@SAXAEAV?$allocator@U?$_List_node@VFunctionParameter@pymeshlab@@PEAX@std@@@1@PEAU01@@Z
	??$_Free_non_head@V?$allocator@U?$_List_node@VMeshModel@@PEAX@std@@@std@@@?$_List_node@VMeshModel@@PEAX@std@@SAXAEAV?$allocator@U?$_List_node@VMeshModel@@PEAX@std@@@1@PEAU01@@Z
	??$_Free_non_head@V?$allocator@U?$_List_node@VRasterModel@@PEAX@std@@@std@@@?$_List_node@VRasterModel@@PEAX@std@@SAXAEAV?$allocator@U?$_List_node@VRasterModel@@PEAX@std@@@1@PEAU01@@Z
	??$_Freenode0@V?$allocator@U?$_List_node@HPEAX@std@@@std@@@?$_List_node@HPEAX@std@@SAXAEAV?$allocator@U?$_List_node@HPEAX@std@@@1@PEAU01@@Z
	??$_Freenode0@V?$allocator@U?$_List_node@PEAVMeshModel@@PEAX@std@@@std@@@?$_List_node@PEAVMeshModel@@PEAX@std@@SAXAEAV?$allocator@U?$_List_node@PEAVMeshModel@@PEAX@std@@@1@PEAU01@@Z
	??$_Freenode0@V?$allocator@U?$_List_node@PEAVQAction@@PEAX@std@@@std@@@?$_List_node@PEAVQAction@@PEAX@std@@SAXAEAV?$allocator@U?$_List_node@PEAVQAction@@PEAX@std@@@1@PEAU01@@Z
	??$_Freenode0@V?$allocator@U?$_List_node@PEAVRichParameter@@PEAX@std@@@std@@@?$_List_node@PEAVRichParameter@@PEAX@std@@SAXAEAV?$allocator@U?$_List_node@PEAVRichParameter@@PEAX@std@@@1@PEAU01@@Z
	??$_Freenode0@V?$allocator@U?$_List_node@U?$pair@VQString@@V1@@std@@PEAX@std@@@std@@@?$_List_node@U?$pair@VQString@@V1@@std@@PEAX@std@@SAXAEAV?$allocator@U?$_List_node@U?$pair@VQString@@V1@@std@@PEAX@std@@@1@PEAU01@@Z
	??$_Freenode0@V?$allocator@U?$_List_node@V?$Matrix@I$0?0$00$0A@$0?0$00@Eigen@@PEAX@std@@@std@@@?$_List_node@V?$Matrix@I$0?0$00$0A@$0?0$00@Eigen@@PEAX@std@@SAXAEAV?$allocator@U?$_List_node@V?$Matrix@I$0?0$00$0A@$0?0$00@Eigen@@PEAX@std@@@1@PEAU01@@Z
	??$_Freenode0@V?$allocator@U?$_List_node@V?$basic_string@DU?$char_traits@D@std@@V?$allocator@D@2@@std@@PEAX@std@@@std@@@?$_List_node@V?$basic_string@DU?$char_traits@D@std@@V?$allocator@D@2@@std@@PEAX@std@@SAXAEAV?$allocator@U?$_List_node@V?$basic_string@DU?$char_traits@D@std@@V?$allocator@D@2@@std@@PEAX@std@@@1@PEAU01@@Z
	??$_Freenode0@V?$allocator@U?$_List_node@VFileFormat@@PEAX@std@@@std@@@?$_List_node@VFileFormat@@PEAX@std@@SAXAEAV?$allocator@U?$_List_node@VFileFormat@@PEAX@std@@@1@PEAU01@@Z
	??$_Freenode0@V?$allocator@U?$_List_node@VFunctionParameter@pymeshlab@@PEAX@std@@@std@@@?$_List_node@VFunctionParameter@pymeshlab@@PEAX@std@@SAXAEAV?$allocator@U?$_List_node@VFunctionParameter@pymeshlab@@PEAX@std@@@1@PEAU01@@Z
	??$_Freenode0@V?$allocator@U?$_List_node@VMeshModel@@PEAX@std@@@std@@@?$_List_node@VMeshModel@@PEAX@std@@SAXAEAV?$allocator@U?$_List_node@VMeshModel@@PEAX@std@@@1@PEAU01@@Z
	??$_Freenode0@V?$allocator@U?$_List_node@VRasterModel@@PEAX@std@@@std@@@?$_List_node@VRasterModel@@PEAX@std@@SAXAEAV?$allocator@U?$_List_node@VRasterModel@@PEAX@std@@@1@PEAU01@@Z
	??$_Freenode0@V?$allocator@U?$_Tree_node@U?$pair@$$CBFV?$vector@U?$pair@II@std@@V?$allocator@U?$pair@II@std@@@2@@std@@@std@@PEAX@std@@@std@@@?$_Tree_node@U?$pair@$$CBFV?$vector@U?$pair@II@std@@V?$allocator@U?$pair@II@std@@@2@@std@@@std@@PEAX@std@@SAXAEAV?$allocator@U?$_Tree_node@U?$pair@$$CBFV?$vector@U?$pair@II@std@@V?$allocator@U?$pair@II@std@@@2@@std@@@std@@PEAX@std@@@1@PEAU01@@Z
	??$_Freenode0@V?$allocator@U?$_Tree_node@U?$pair@$$CBHPEAV?$QtThreadSafeGLMeshAttributesMultiViewerBOManager@VCMeshO@@PEAVQGLContext@@UMLPerViewGLOptions@@@vcg@@@std@@PEAX@std@@@std@@@?$_Tree_node@U?$pair@$$CBHPEAV?$QtThreadSafeGLMeshAttributesMultiViewerBOManager@VCMeshO@@PEAVQGLContext@@UMLPerViewGLOptions@@@vcg@@@std@@PEAX@std@@SAXAEAV?$allocator@U?$_Tree_node@U?$pair@$$CBHPEAV?$QtThreadSafeGLMeshAttributesMultiViewerBOManager@VCMeshO@@PEAVQGLContext@@UMLPerViewGLOptions@@@vcg@@@std@@PEAX@std@@@1@PEAU01@@Z
	??$_Freenode0@V?$allocator@U?$_Tree_node@U?$pair@$$CBMV?$vector@PEAVQAction@@V?$allocator@PEAVQAction@@@std@@@std@@@std@@PEAX@std@@@std@@@?$_Tree_node@U?$pair@$$CBMV?$vector@PEAVQAction@@V?$allocator@PEAVQAction@@@std@@@std@@@std@@PEAX@std@@SAXAEAV?$allocator@U?$_Tree_node@U?$pair@$$CBMV?$vector@PEAVQAction@@V?$allocator@PEAVQAction@@@std@@@std@@@std@@PEAX@std@@@1@PEAU01@@Z
	??$_Freenode0@V?$allocator@U?$_Tree_node@U?$pair@$$CBV?$basic_string@DU?$char_traits@D@std@@V?$allocator@D@2@@std@@VQImage@@@std@@PEAX@std@@@std@@@?$_Tree_node@U?$pair@$$CBV?$basic_string@DU?$char_traits@D@std@@V?$allocator@D@2@@std@@VQImage@@@std@@PEAX@std@@SAXAEAV?$allocator@U?$_Tree_node@U?$pair@$$CBV?$basic_string@DU?$char_traits@D@std@@V?$allocator@D@2@@std@@VQImage@@@std@@PEAX@std@@@1@PEAU01@@Z
	??$_Freenode0@V?$allocator@U?$_Tree_node@U?$pair@$$CBVQString@@V?$vector@PEAVQAction@@V?$allocator@PEAVQAction@@@std@@@std@@@std@@PEAX@std@@@std@@@?$_Tree_node@U?$pair@$$CBVQString@@V?$vector@PEAVQAction@@V?$allocator@PEAVQAction@@@std@@@std@@@std@@PEAX@std@@SAXAEAV?$allocator@U?$_Tree_node@U?$pair@$$CBVQString@@V?$vector@PEAVQAction@@V?$allocator@PEAVQAction@@@std@@@std@@@std@@PEAX@std@@@1@PEAU01@@Z
	??$_Freenode0@V?$allocator@U?$_Tree_node@U?$pair@QEAVQAction@@M@std@@PEAX@std@@@std@@@?$_Tree_node@U?$pair@QEAVQAction@@M@std@@PEAX@std@@SAXAEAV?$allocator@U?$_Tree_node@U?$pair@QEAVQAction@@M@std@@PEAX@std@@@1@PEAU01@@Z
	??$_Freenode0@V?$allocator@U?$_Tree_node@U?$pair@QEAVQGLContext@@V?$PerViewData@UMLPerViewGLOptions@@@vcg@@@std@@PEAX@std@@@std@@@?$_Tree_node@U?$pair@QEAVQGLContext@@V?$PerViewData@UMLPerViewGLOptions@@@vcg@@@std@@PEAX@std@@SAXAEAV?$allocator@U?$_Tree_node@U?$pair@QEAVQGLContext@@V?$PerViewData@UMLPerViewGLOptions@@@vcg@@@std@@PEAX@std@@@1@PEAU01@@Z
	??$_Freenode0@V?$allocator@U?$_Tree_node@VFunction@pymeshlab@@PEAX@std@@@std@@@?$_Tree_node@VFunction@pymeshlab@@PEAX@std@@SAXAEAV?$allocator@U?$_Tree_node@VFunction@pymeshlab@@PEAX@std@@@1@PEAU01@@Z
	??$_Freenode0@V?$allocator@U?$_Tree_node@VPointerToAttribute@vcg@@PEAX@std@@@std@@@?$_Tree_node@VPointerToAttribute@vcg@@PEAX@std@@SAXAEAV?$allocator@U?$_Tree_node@VPointerToAttribute@vcg@@PEAX@std@@@1@PEAU01@@Z
	??$_Freenode0@V?$allocator@U?$_Tree_node@VQString@@PEAX@std@@@std@@@?$_Tree_node@VQString@@PEAX@std@@SAXAEAV?$allocator@U?$_Tree_node@VQString@@PEAX@std@@@1@PEAU01@@Z
	??$_Freenode@V?$allocator@U?$_List_node@HPEAX@std@@@std@@@?$_List_node@HPEAX@std@@SAXAEAV?$allocator@U?$_List_node@HPEAX@std@@@1@PEAU01@@Z
	??$_Freenode@V?$allocator@U?$_List_node@PEAVMeshModel@@PEAX@std@@@std@@@?$_List_node@PEAVMeshModel@@PEAX@std@@SAXAEAV?$allocator@U?$_List_node@PEAVMeshModel@@PEAX@std@@@1@PEAU01@@Z
	??$_Freenode@V?$allocator@U?$_List_node@PEAVQAction@@PEAX@std@@@std@@@?$_List_node@PEAVQAction@@PEAX@std@@SAXAEAV?$allocator@U?$_List_node@PEAVQAction@@PEAX@std@@@1@PEAU01@@Z
	??$_Freenode@V?$allocator@U?$_List_node@PEAVRichParameter@@PEAX@std@@@std@@@?$_List_node@PEAVRichParameter@@PEAX@std@@SAXAEAV?$allocator@U?$_List_node@PEAVRichParameter@@PEAX@std@@@1@PEAU01@@Z
	??$_Freenode@V?$allocator@U?$_List_node@U?$pair@VQString@@V1@@std@@PEAX@std@@@std@@@?$_List_node@U?$pair@VQString@@V1@@std@@PEAX@std@@SAXAEAV?$allocator@U?$_List_node@U?$pair@VQString@@V1@@std@@PEAX@std@@@1@PEAU01@@Z
	??$_Freenode@V?$allocator@U?$_List_node@V?$Matrix@I$0?0$00$0A@$0?0$00@Eigen@@PEAX@std@@@std@@@?$_List_node@V?$Matrix@I$0?0$00$0A@$0?0$00@Eigen@@PEAX@std@@SAXAEAV?$allocator@U?$_List_node@V?$Matrix@I$0?0$00$0A@$0?0$00@Eigen@@PEAX@std@@@1@PEAU01@@Z
	??$_Freenode@V?$allocator@U?$_List_node@V?$basic_string@DU?$char_traits@D@std@@V?$allocator@D@2@@std@@PEAX@std@@@std@@@?$_List_node@V?$basic_string@DU?$char_traits@D@std@@V?$allocator@D@2@@std@@PEAX@std@@SAXAEAV?$allocator@U?$_List_node@V?$basic_string@DU?$char_traits@D@std@@V?$allocator@D@2@@std@@PEAX@std@@@1@PEAU01@@Z
	??$_Freenode@V?$allocator@U?$_List_node@VFileFormat@@PEAX@std@@@std@@@?$_List_node@VFileFormat@@PEAX@std@@SAXAEAV?$allocator@U?$_List_node@VFileFormat@@PEAX@std@@@1@PEAU01@@Z
	??$_Freenode@V?$allocator@U?$_List_node@VFunctionParameter@pymeshlab@@PEAX@std@@@std@@@?$_List_node@VFunctionParameter@pymeshlab@@PEAX@std@@SAXAEAV?$allocator@U?$_List_node@VFunctionParameter@pymeshlab@@PEAX@std@@@1@PEAU01@@Z
	??$_Freenode@V?$allocator@U?$_List_node@VMeshModel@@PEAX@std@@@std@@@?$_List_node@VMeshModel@@PEAX@std@@SAXAEAV?$allocator@U?$_List_node@VMeshModel@@PEAX@std@@@1@PEAU01@@Z
	??$_Freenode@V?$allocator@U?$_List_node@VRasterModel@@PEAX@std@@@std@@@?$_List_node@VRasterModel@@PEAX@std@@SAXAEAV?$allocator@U?$_List_node@VRasterModel@@PEAX@std@@@1@PEAU01@@Z
	??$_Freenode@V?$allocator@U?$_Tree_node@U?$pair@$$CBFV?$vector@U?$pair@II@std@@V?$allocator@U?$pair@II@std@@@2@@std@@@std@@PEAX@std@@@std@@@?$_Tree_node@U?$pair@$$CBFV?$vector@U?$pair@II@std@@V?$allocator@U?$pair@II@std@@@2@@std@@@std@@PEAX@std@@SAXAEAV?$allocator@U?$_Tree_node@U?$pair@$$CBFV?$vector@U?$pair@II@std@@V?$allocator@U?$pair@II@std@@@2@@std@@@std@@PEAX@std@@@1@PEAU01@@Z
	??$_Freenode@V?$allocator@U?$_Tree_node@U?$pair@$$CBHPEAV?$QtThreadSafeGLMeshAttributesMultiViewerBOManager@VCMeshO@@PEAVQGLContext@@UMLPerViewGLOptions@@@vcg@@@std@@PEAX@std@@@std@@@?$_Tree_node@U?$pair@$$CBHPEAV?$QtThreadSafeGLMeshAttributesMultiViewerBOManager@VCMeshO@@PEAVQGLContext@@UMLPerViewGLOptions@@@vcg@@@std@@PEAX@std@@SAXAEAV?$allocator@U?$_Tree_node@U?$pair@$$CBHPEAV?$QtThreadSafeGLMeshAttributesMultiViewerBOManager@VCMeshO@@PEAVQGLContext@@UMLPerViewGLOptions@@@vcg@@@std@@PEAX@std@@@1@PEAU01@@Z
	??$_Freenode@V?$allocator@U?$_Tree_node@U?$pair@$$CBMV?$vector@PEAVQAction@@V?$allocator@PEAVQAction@@@std@@@std@@@std@@PEAX@std@@@std@@@?$_Tree_node@U?$pair@$$CBMV?$vector@PEAVQAction@@V?$allocator@PEAVQAction@@@std@@@std@@@std@@PEAX@std@@SAXAEAV?$allocator@U?$_Tree_node@U?$pair@$$CBMV?$vector@PEAVQAction@@V?$allocator@PEAVQAction@@@std@@@std@@@std@@PEAX@std@@@1@PEAU01@@Z
	??$_Freenode@V?$allocator@U?$_Tree_node@U?$pair@$$CBV?$basic_string@DU?$char_traits@D@std@@V?$allocator@D@2@@std@@VQImage@@@std@@PEAX@std@@@std@@@?$_Tree_node@U?$pair@$$CBV?$basic_string@DU?$char_traits@D@std@@V?$allocator@D@2@@std@@VQImage@@@std@@PEAX@std@@SAXAEAV?$allocator@U?$_Tree_node@U?$pair@$$CBV?$basic_string@DU?$char_traits@D@std@@V?$allocator@D@2@@std@@VQImage@@@std@@PEAX@std@@@1@PEAU01@@Z
	??$_Freenode@V?$allocator@U?$_Tree_node@U?$pair@$$CBVQString@@V?$vector@PEAVQAction@@V?$allocator@PEAVQAction@@@std@@@std@@@std@@PEAX@std@@@std@@@?$_Tree_node@U?$pair@$$CBVQString@@V?$vector@PEAVQAction@@V?$allocator@PEAVQAction@@@std@@@std@@@std@@PEAX@std@@SAXAEAV?$allocator@U?$_Tree_node@U?$pair@$$CBVQString@@V?$vector@PEAVQAction@@V?$allocator@PEAVQAction@@@std@@@std@@@std@@PEAX@std@@@1@PEAU01@@Z
	??$_Freenode@V?$allocator@U?$_Tree_node@U?$pair@QEAVQAction@@M@std@@PEAX@std@@@std@@@?$_Tree_node@U?$pair@QEAVQAction@@M@std@@PEAX@std@@SAXAEAV?$allocator@U?$_Tree_node@U?$pair@QEAVQAction@@M@std@@PEAX@std@@@1@PEAU01@@Z
	??$_Freenode@V?$allocator@U?$_Tree_node@U?$pair@QEAVQGLContext@@V?$PerViewData@UMLPerViewGLOptions@@@vcg@@@std@@PEAX@std@@@std@@@?$_Tree_node@U?$pair@QEAVQGLContext@@V?$PerViewData@UMLPerViewGLOptions@@@vcg@@@std@@PEAX@std@@SAXAEAV?$allocator@U?$_Tree_node@U?$pair@QEAVQGLContext@@V?$PerViewData@UMLPerViewGLOptions@@@vcg@@@std@@PEAX@std@@@1@PEAU01@@Z
	??$_Freenode@V?$allocator@U?$_Tree_node@VFunction@pymeshlab@@PEAX@std@@@std@@@?$_Tree_node@VFunction@pymeshlab@@PEAX@std@@SAXAEAV?$allocator@U?$_Tree_node@VFunction@pymeshlab@@PEAX@std@@@1@PEAU01@@Z
	??$_Freenode@V?$allocator@U?$_Tree_node@VPointerToAttribute@vcg@@PEAX@std@@@std@@@?$_Tree_node@VPointerToAttribute@vcg@@PEAX@std@@SAXAEAV?$allocator@U?$_Tree_node@VPointerToAttribute@vcg@@PEAX@std@@@1@PEAU01@@Z
	??$_Freenode@V?$allocator@U?$_Tree_node@VQString@@PEAX@std@@@std@@@?$_Tree_node@VQString@@PEAX@std@@SAXAEAV?$allocator@U?$_Tree_node@VQString@@PEAX@std@@@1@PEAU01@@Z
	??$_Get_size_of_n@$00@std@@YA_K_K@Z
	??$_Get_size_of_n@$03@std@@YA_K_K@Z
	??$_Get_size_of_n@$07@std@@YA_K_K@Z
	??$_Get_size_of_n@$08@std@@YA_K_K@Z
	??$_Get_size_of_n@$0BA@@std@@YA_K_K@Z
	??$_Get_size_of_n@$0BI@@std@@YA_K_K@Z
	??$_Get_size_of_n@$0CA@@std@@YA_K_K@Z
	??$_Get_size_of_n@$0CE@@std@@YA_K_K@Z
	??$_Get_size_of_n@$0CI@@std@@YA_K_K@Z
	??$_Get_size_of_n@$0DA@@std@@YA_K_K@Z
	??$_Get_size_of_n@$0DI@@std@@YA_K_K@Z
	??$_Get_size_of_n@$0EA@@std@@YA_K_K@Z
	??$_Get_size_of_n@$0EI@@std@@YA_K_K@Z
	??$_Get_size_of_n@$0FFI@@std@@YA_K_K@Z
	??$_Get_size_of_n@$0FI@@std@@YA_K_K@Z
	??$_Get_size_of_n@$0GA@@std@@YA_K_K@Z
	??$_Get_size_of_n@$0GI@@std@@YA_K_K@Z
	??$_Get_size_of_n@$0HI@@std@@YA_K_K@Z
	??$_Get_size_of_n@$0LI@@std@@YA_K_K@Z
	??$_Get_size_of_n@$0M@@std@@YA_K_K@Z
	??$_Get_unwrapped@AEAPEAD@std@@YA?A_TAEAPEAD@Z
	??$_Get_unwrapped@AEAPEAV?$basic_string@DU?$char_traits@D@std@@V?$allocator@D@2@@std@@@std@@YA?A_TAEAPEAV?$basic_string@DU?$char_traits@D@std@@V?$allocator@D@2@@0@@Z
	??$_Get_unwrapped@AEAPEAVInternalRendAtts@GLMeshAttributesInfo@vcg@@@std@@YA?A_TAEAPEAVInternalRendAtts@GLMeshAttributesInfo@vcg@@@Z
	??$_Get_unwrapped@AEAPEBVQString@@@std@@YA?A_TAEAPEBVQString@@@Z
	??$_Get_unwrapped@AEAV?$_List_const_iterator@V?$_List_val@U?$_List_simple_types@VFunctionParameter@pymeshlab@@@std@@@std@@@std@@@std@@YA?A_TAEAV?$_List_const_iterator@V?$_List_val@U?$_List_simple_types@VFunctionParameter@pymeshlab@@@std@@@std@@@0@@Z
	??$_Get_unwrapped@AEAV?$_List_iterator@V?$_List_val@U?$_List_simple_types@PEAVQAction@@@std@@@std@@@std@@@std@@YA?A_TAEAV?$_List_iterator@V?$_List_val@U?$_List_simple_types@PEAVQAction@@@std@@@std@@@0@@Z
	??$_Get_unwrapped@AEAV?$_List_iterator@V?$_List_val@U?$_List_simple_types@V?$basic_string@DU?$char_traits@D@std@@V?$allocator@D@2@@std@@@std@@@std@@@std@@@std@@YA?A_TAEAV?$_List_iterator@V?$_List_val@U?$_List_simple_types@V?$basic_string@DU?$char_traits@D@std@@V?$allocator@D@2@@std@@@std@@@std@@@0@@Z
	??$_Get_unwrapped@AEAV?$_Tree_unchecked_const_iterator@V?$_Tree_val@U?$_Tree_simple_types@U?$pair@QEAVQGLContext@@V?$PerViewData@UMLPerViewGLOptions@@@vcg@@@std@@@std@@@std@@U_Iterator_base0@2@@std@@@std@@YA?A_TAEAV?$_Tree_unchecked_const_iterator@V?$_Tree_val@U?$_Tree_simple_types@U?$pair@QEAVQGLContext@@V?$PerViewData@UMLPerViewGLOptions@@@vcg@@@std@@@std@@@std@@U_Iterator_base0@2@@0@@Z
	??$_Get_unwrapped@AEAV?$_Vb_iterator@U?$_Wrap_alloc@V?$allocator@I@std@@@std@@@std@@@std@@YA?A_TAEAV?$_Vb_iterator@U?$_Wrap_alloc@V?$allocator@I@std@@@std@@@0@@Z
	??$_Get_unwrapped@AEAV?$_Vector_iterator@V?$_Vector_val@U?$_Simple_types@I@std@@@std@@@std@@@std@@YA?A_TAEAV?$_Vector_iterator@V?$_Vector_val@U?$_Simple_types@I@std@@@std@@@0@@Z
	??$_Get_unwrapped@AEAV?$_Vector_iterator@V?$_Vector_val@U?$_Simple_types@PEAVDecoratePlugin@@@std@@@std@@@std@@@std@@YA?A_TAEAV?$_Vector_iterator@V?$_Vector_val@U?$_Simple_types@PEAVDecoratePlugin@@@std@@@std@@@0@@Z
	??$_Get_unwrapped@AEAV?$_Vector_iterator@V?$_Vector_val@U?$_Simple_types@PEAVEditPlugin@@@std@@@std@@@std@@@std@@YA?A_TAEAV?$_Vector_iterator@V?$_Vector_val@U?$_Simple_types@PEAVEditPlugin@@@std@@@std@@@0@@Z
	??$_Get_unwrapped@AEAV?$_Vector_iterator@V?$_Vector_val@U?$_Simple_types@PEAVFilterPlugin@@@std@@@std@@@std@@@std@@YA?A_TAEAV?$_Vector_iterator@V?$_Vector_val@U?$_Simple_types@PEAVFilterPlugin@@@std@@@std@@@0@@Z
	??$_Get_unwrapped@AEAV?$_Vector_iterator@V?$_Vector_val@U?$_Simple_types@PEAVIOPlugin@@@std@@@std@@@std@@@std@@YA?A_TAEAV?$_Vector_iterator@V?$_Vector_val@U?$_Simple_types@PEAVIOPlugin@@@std@@@std@@@0@@Z
	??$_Get_unwrapped@AEAV?$_Vector_iterator@V?$_Vector_val@U?$_Simple_types@PEAVMeshLabPlugin@@@std@@@std@@@std@@@std@@YA?A_TAEAV?$_Vector_iterator@V?$_Vector_val@U?$_Simple_types@PEAVMeshLabPlugin@@@std@@@std@@@0@@Z
	??$_Get_unwrapped@AEAV?$_Vector_iterator@V?$_Vector_val@U?$_Simple_types@PEAVQAction@@@std@@@std@@@std@@@std@@YA?A_TAEAV?$_Vector_iterator@V?$_Vector_val@U?$_Simple_types@PEAVQAction@@@std@@@std@@@0@@Z
	??$_Get_unwrapped@AEAV?$_Vector_iterator@V?$_Vector_val@U?$_Simple_types@PEAVRenderPlugin@@@std@@@std@@@std@@@std@@YA?A_TAEAV?$_Vector_iterator@V?$_Vector_val@U?$_Simple_types@PEAVRenderPlugin@@@std@@@std@@@0@@Z
	??$_Get_unwrapped@AEAV?$_Vector_iterator@V?$_Vector_val@U?$_Simple_types@V?$basic_string@DU?$char_traits@D@std@@V?$allocator@D@2@@std@@@std@@@std@@@std@@@std@@YA?A_TAEAV?$_Vector_iterator@V?$_Vector_val@U?$_Simple_types@V?$basic_string@DU?$char_traits@D@std@@V?$allocator@D@2@@std@@@std@@@std@@@0@@Z
	??$_Get_unwrapped@AEAV?$_Vector_iterator@V?$_Vector_val@U?$_Simple_types@VEdgeVertInd@?$NotThreadSafeGLMeshAttributesMultiViewerBOManager@VCMeshO@@PEAVQGLContext@@UMLPerViewGLOptions@@@vcg@@@std@@@std@@@std@@@std@@YA?A_TAEAV?$_Vector_iterator@V?$_Vector_val@U?$_Simple_types@VEdgeVertInd@?$NotThreadSafeGLMeshAttributesMultiViewerBOManager@VCMeshO@@PEAVQGLContext@@UMLPerViewGLOptions@@@vcg@@@std@@@std@@@0@@Z
	??$_Get_unwrapped@AEBQEAH@std@@YA?A_TAEBQEAH@Z
	??$_Get_unwrapped@AEBQEAI@std@@YA?A_TAEBQEAI@Z
	??$_Get_unwrapped@AEBQEAM@std@@YA?A_TAEBQEAM@Z
	??$_Get_unwrapped@AEBQEAPEAVCFaceO@@@std@@YA?A_TAEBQEAPEAVCFaceO@@@Z
	??$_Get_unwrapped@AEBQEAPEAVCVertexO@@@std@@YA?A_TAEBQEAPEAVCVertexO@@@Z
	??$_Get_unwrapped@AEBQEAPEAVDecoratePlugin@@@std@@YA?A_TAEBQEAPEAVDecoratePlugin@@@Z
	??$_Get_unwrapped@AEBQEAPEAVEditPlugin@@@std@@YA?A_TAEBQEAPEAVEditPlugin@@@Z
	??$_Get_unwrapped@AEBQEAPEAVFilterPlugin@@@std@@YA?A_TAEBQEAPEAVFilterPlugin@@@Z
	??$_Get_unwrapped@AEBQEAPEAVIOPlugin@@@std@@YA?A_TAEBQEAPEAVIOPlugin@@@Z
	??$_Get_unwrapped@AEBQEAPEAVMeshLabPlugin@@@std@@YA?A_TAEBQEAPEAVMeshLabPlugin@@@Z
	??$_Get_unwrapped@AEBQEAPEAVQAction@@@std@@YA?A_TAEBQEAPEAVQAction@@@Z
	??$_Get_unwrapped@AEBQEAPEAVQPluginLoader@@@std@@YA?A_TAEBQEAPEAVQPluginLoader@@@Z
	??$_Get_unwrapped@AEBQEAPEAVRenderPlugin@@@std@@YA?A_TAEBQEAPEAVRenderPlugin@@@Z
	??$_Get_unwrapped@AEBQEAU?$CurvatureDirOcfBaseType@M@face@vcg@@@std@@YA?A_TAEBQEAU?$CurvatureDirOcfBaseType@M@face@vcg@@@Z
	??$_Get_unwrapped@AEBQEAU?$CurvatureDirTypeOcf@M@vertex@vcg@@@std@@YA?A_TAEBQEAU?$CurvatureDirTypeOcf@M@vertex@vcg@@@Z
	??$_Get_unwrapped@AEBQEAU?$pair@FI@std@@@std@@YA?A_TAEBQEAU?$pair@FI@0@@Z
	??$_Get_unwrapped@AEBQEAU?$pair@II@std@@@std@@YA?A_TAEBQEAU?$pair@II@0@@Z
	??$_Get_unwrapped@AEBQEAUAdjTypePack@?$vector_ocf@VCFaceO@@@face@vcg@@@std@@YA?A_TAEBQEAUAdjTypePack@?$vector_ocf@VCFaceO@@@face@vcg@@@Z
	??$_Get_unwrapped@AEBQEAUVFAdjType@?$vector_ocf@VCVertexO@@@vertex@vcg@@@std@@YA?A_TAEBQEAUVFAdjType@?$vector_ocf@VCVertexO@@@vertex@vcg@@@Z
	??$_Get_unwrapped@AEBQEAV?$Color4@E@vcg@@@std@@YA?A_TAEBQEAV?$Color4@E@vcg@@@Z
	??$_Get_unwrapped@AEBQEAV?$HEdge@V?$UsedTypes@UAsVertexType@?$Use@VCVertexO@@@vcg@@UAsEdgeType@?$Use@VCEdgeO@@@3@UAsFaceType@?$Use@VCFaceO@@@3@VDefaultDeriver@3@V83@V83@V83@V83@@vcg@@VDefaultDeriver@2@V32@V32@V32@V32@V32@V32@V32@V32@V32@V32@@vcg@@@std@@YA?A_TAEBQEAV?$HEdge@V?$UsedTypes@UAsVertexType@?$Use@VCVertexO@@@vcg@@UAsEdgeType@?$Use@VCEdgeO@@@3@UAsFaceType@?$Use@VCFaceO@@@3@VDefaultDeriver@3@V83@V83@V83@V83@@vcg@@VDefaultDeriver@2@V32@V32@V32@V32@V32@V32@V32@V32@V32@V32@@vcg@@@Z
	??$_Get_unwrapped@AEBQEAV?$Point2@M@vcg@@@std@@YA?A_TAEBQEAV?$Point2@M@vcg@@@Z
	??$_Get_unwrapped@AEBQEAV?$Point3@M@vcg@@@std@@YA?A_TAEBQEAV?$Point3@M@vcg@@@Z
	??$_Get_unwrapped@AEBQEAV?$TetraSimp@V?$UsedTypes@UAsVertexType@?$Use@VCVertexO@@@vcg@@UAsEdgeType@?$Use@VCEdgeO@@@3@UAsFaceType@?$Use@VCFaceO@@@3@VDefaultDeriver@3@V83@V83@V83@V83@@vcg@@VDefaultDeriver@2@V32@V32@V32@V32@V32@V32@V32@V32@V32@V32@V32@@vcg@@@std@@YA?A_TAEBQEAV?$TetraSimp@V?$UsedTypes@UAsVertexType@?$Use@VCVertexO@@@vcg@@UAsEdgeType@?$Use@VCEdgeO@@@3@UAsFaceType@?$Use@VCFaceO@@@3@VDefaultDeriver@3@V83@V83@V83@V83@@vcg@@VDefaultDeriver@2@V32@V32@V32@V32@V32@V32@V32@V32@V32@V32@V32@@vcg@@@Z
	??$_Get_unwrapped@AEBQEAV?$TexCoord2@M$00@vcg@@@std@@YA?A_TAEBQEAV?$TexCoord2@M$00@vcg@@@Z
	??$_Get_unwrapped@AEBQEAV?$basic_string@DU?$char_traits@D@std@@V?$allocator@D@2@@std@@@std@@YA?A_TAEBQEAV?$basic_string@DU?$char_traits@D@std@@V?$allocator@D@2@@0@@Z
	??$_Get_unwrapped@AEBQEAVCEdgeO@@@std@@YA?A_TAEBQEAVCEdgeO@@@Z
	??$_Get_unwrapped@AEBQEAVCFaceO@@@std@@YA?A_TAEBQEAVCFaceO@@@Z
	??$_Get_unwrapped@AEBQEAVCVertexO@@@std@@YA?A_TAEBQEAVCVertexO@@@Z
	??$_Get_unwrapped@AEBQEAVEdgeVertInd@?$NotThreadSafeGLMeshAttributesMultiViewerBOManager@VCMeshO@@PEAVQGLContext@@UMLPerViewGLOptions@@@vcg@@@std@@YA?A_TAEBQEAVEdgeVertInd@?$NotThreadSafeGLMeshAttributesMultiViewerBOManager@VCMeshO@@PEAVQGLContext@@UMLPerViewGLOptions@@@vcg@@@Z
	??$_Get_unwrapped@AEBQEAVInternalRendAtts@GLMeshAttributesInfo@vcg@@@std@@YA?A_TAEBQEAVInternalRendAtts@GLMeshAttributesInfo@vcg@@@Z
	??$_Get_unwrapped@AEBQEAVPEdge@?$UpdateTopology@VCMeshO@@@tri@vcg@@@std@@YA?A_TAEBQEAVPEdge@?$UpdateTopology@VCMeshO@@@tri@vcg@@@Z
	??$_Get_unwrapped@AEBQEAVPFace@vcg@@@std@@YA?A_TAEBQEAVPFace@vcg@@@Z
	??$_Get_unwrapped@AEBQEAVPVertex@vcg@@@std@@YA?A_TAEBQEAVPVertex@vcg@@@Z
	??$_Get_unwrapped@AEBQEAVWedgeColorTypePack@?$vector_ocf@VCFaceO@@@face@vcg@@@std@@YA?A_TAEBQEAVWedgeColorTypePack@?$vector_ocf@VCFaceO@@@face@vcg@@@Z
	??$_Get_unwrapped@AEBQEAVWedgeNormalTypePack@?$vector_ocf@VCFaceO@@@face@vcg@@@std@@YA?A_TAEBQEAVWedgeNormalTypePack@?$vector_ocf@VCFaceO@@@face@vcg@@@Z
	??$_Get_unwrapped@AEBQEAVWedgeTexTypePack@?$vector_ocf@VCFaceO@@@face@vcg@@@std@@YA?A_TAEBQEAVWedgeTexTypePack@?$vector_ocf@VCFaceO@@@face@vcg@@@Z
	??$_Get_unwrapped@AEBQEA_K@std@@YA?A_TAEBQEA_K@Z
	??$_Get_unwrapped@AEBQEBM@std@@YA?A_TAEBQEBM@Z
	??$_Get_unwrapped@AEBV?$_List_const_iterator@V?$_List_val@U?$_List_simple_types@VFunctionParameter@pymeshlab@@@std@@@std@@@std@@@std@@YA?A_TAEBV?$_List_const_iterator@V?$_List_val@U?$_List_simple_types@VFunctionParameter@pymeshlab@@@std@@@std@@@0@@Z
	??$_Get_unwrapped@AEBV?$_List_iterator@V?$_List_val@U?$_List_simple_types@PEAVQAction@@@std@@@std@@@std@@@std@@YA?A_TAEBV?$_List_iterator@V?$_List_val@U?$_List_simple_types@PEAVQAction@@@std@@@std@@@0@@Z
	??$_Get_unwrapped@AEBV?$_Vector_iterator@V?$_Vector_val@U?$_Simple_types@I@std@@@std@@@std@@@std@@YA?A_TAEBV?$_Vector_iterator@V?$_Vector_val@U?$_Simple_types@I@std@@@std@@@0@@Z
	??$_Get_unwrapped@AEBV?$_Vector_iterator@V?$_Vector_val@U?$_Simple_types@PEAVCVertexO@@@std@@@std@@@std@@@std@@YA?A_TAEBV?$_Vector_iterator@V?$_Vector_val@U?$_Simple_types@PEAVCVertexO@@@std@@@std@@@0@@Z
	??$_Get_unwrapped@AEBV?$_Vector_iterator@V?$_Vector_val@U?$_Simple_types@PEAVDecoratePlugin@@@std@@@std@@@std@@@std@@YA?A_TAEBV?$_Vector_iterator@V?$_Vector_val@U?$_Simple_types@PEAVDecoratePlugin@@@std@@@std@@@0@@Z
	??$_Get_unwrapped@AEBV?$_Vector_iterator@V?$_Vector_val@U?$_Simple_types@PEAVEditPlugin@@@std@@@std@@@std@@@std@@YA?A_TAEBV?$_Vector_iterator@V?$_Vector_val@U?$_Simple_types@PEAVEditPlugin@@@std@@@std@@@0@@Z
	??$_Get_unwrapped@AEBV?$_Vector_iterator@V?$_Vector_val@U?$_Simple_types@PEAVFilterPlugin@@@std@@@std@@@std@@@std@@YA?A_TAEBV?$_Vector_iterator@V?$_Vector_val@U?$_Simple_types@PEAVFilterPlugin@@@std@@@std@@@0@@Z
	??$_Get_unwrapped@AEBV?$_Vector_iterator@V?$_Vector_val@U?$_Simple_types@PEAVIOPlugin@@@std@@@std@@@std@@@std@@YA?A_TAEBV?$_Vector_iterator@V?$_Vector_val@U?$_Simple_types@PEAVIOPlugin@@@std@@@std@@@0@@Z
	??$_Get_unwrapped@AEBV?$_Vector_iterator@V?$_Vector_val@U?$_Simple_types@PEAVMeshLabPlugin@@@std@@@std@@@std@@@std@@YA?A_TAEBV?$_Vector_iterator@V?$_Vector_val@U?$_Simple_types@PEAVMeshLabPlugin@@@std@@@std@@@0@@Z
	??$_Get_unwrapped@AEBV?$_Vector_iterator@V?$_Vector_val@U?$_Simple_types@PEAVQAction@@@std@@@std@@@std@@@std@@YA?A_TAEBV?$_Vector_iterator@V?$_Vector_val@U?$_Simple_types@PEAVQAction@@@std@@@std@@@0@@Z
	??$_Get_unwrapped@AEBV?$_Vector_iterator@V?$_Vector_val@U?$_Simple_types@PEAVRenderPlugin@@@std@@@std@@@std@@@std@@YA?A_TAEBV?$_Vector_iterator@V?$_Vector_val@U?$_Simple_types@PEAVRenderPlugin@@@std@@@std@@@0@@Z
	??$_Get_unwrapped@AEBV?$_Vector_iterator@V?$_Vector_val@U?$_Simple_types@V?$basic_string@DU?$char_traits@D@std@@V?$allocator@D@2@@std@@@std@@@std@@@std@@@std@@YA?A_TAEBV?$_Vector_iterator@V?$_Vector_val@U?$_Simple_types@V?$basic_string@DU?$char_traits@D@std@@V?$allocator@D@2@@std@@@std@@@std@@@0@@Z
	??$_Get_unwrapped@AEBV?$_Vector_iterator@V?$_Vector_val@U?$_Simple_types@VEdgeVertInd@?$NotThreadSafeGLMeshAttributesMultiViewerBOManager@VCMeshO@@PEAVQGLContext@@UMLPerViewGLOptions@@@vcg@@@std@@@std@@@std@@@std@@YA?A_TAEBV?$_Vector_iterator@V?$_Vector_val@U?$_Simple_types@VEdgeVertInd@?$NotThreadSafeGLMeshAttributesMultiViewerBOManager@VCMeshO@@PEAVQGLContext@@UMLPerViewGLOptions@@@vcg@@@std@@@std@@@0@@Z
	??$_Get_unwrapped@AEBV?$_Vector_iterator@V?$_Vector_val@U?$_Simple_types@VPEdge@?$UpdateTopology@VCMeshO@@@tri@vcg@@@std@@@std@@@std@@@std@@YA?A_TAEBV?$_Vector_iterator@V?$_Vector_val@U?$_Simple_types@VPEdge@?$UpdateTopology@VCMeshO@@@tri@vcg@@@std@@@std@@@0@@Z
	??$_Get_unwrapped_n@AEAPEAM_K@std@@YA?A_TAEAPEAM_K@Z
	??$_Get_unwrapped_n@AEAV?$_Vb_iterator@U?$_Wrap_alloc@V?$allocator@I@std@@@std@@@std@@_J@std@@YA?A_TAEAV?$_Vb_iterator@U?$_Wrap_alloc@V?$allocator@I@std@@@std@@@0@_J@Z
	??$_Get_unwrapped_n@AEAV?$back_insert_iterator@V?$QList@VQString@@@@@std@@_J@std@@YA?A_TAEAV?$back_insert_iterator@V?$QList@VQString@@@@@0@_J@Z
	??$_Get_unwrapped_n@AEBQEBM_J@std@@YA?A_TAEBQEBM_J@Z
	??$_Get_unwrapped_n@V?$_List_const_iterator@V?$_List_val@U?$_List_simple_types@PEAVRichParameter@@@std@@@std@@@std@@I@std@@YA?A_T$$QEAV?$_List_const_iterator@V?$_List_val@U?$_List_simple_types@PEAVRichParameter@@@std@@@std@@@0@I@Z
	??$_Get_unwrapped_n@V?$_List_iterator@V?$_List_val@U?$_List_simple_types@PEAVRichParameter@@@std@@@std@@@std@@I@std@@YA?A_T$$QEAV?$_List_iterator@V?$_List_val@U?$_List_simple_types@PEAVRichParameter@@@std@@@std@@@0@I@Z
	??$_Guess_median_unchecked@PEAPEAVQAction@@UActionComparator@ActionSearcher@@@std@@YAXPEAPEAVQAction@@00UActionComparator@ActionSearcher@@@Z
	??$_Guess_median_unchecked@PEAVEdgeVertInd@?$NotThreadSafeGLMeshAttributesMultiViewerBOManager@VCMeshO@@PEAVQGLContext@@UMLPerViewGLOptions@@@vcg@@U?$less@X@std@@@std@@YAXPEAVEdgeVertInd@?$NotThreadSafeGLMeshAttributesMultiViewerBOManager@VCMeshO@@PEAVQGLContext@@UMLPerViewGLOptions@@@vcg@@00U?$less@X@0@@Z
	??$_Guess_median_unchecked@PEAVPEdge@?$UpdateTopology@VCMeshO@@@tri@vcg@@U?$less@X@std@@@std@@YAXPEAVPEdge@?$UpdateTopology@VCMeshO@@@tri@vcg@@00U?$less@X@0@@Z
	??$_Idl_distance@PEBMPEBM@std@@YA?A_PAEBQEBM0@Z
	??$_Idl_distance@PEBVQString@@PEBV1@@std@@YA?A_PAEBQEBVQString@@0@Z
	??$_Idl_distance@V?$_Vb_iterator@U?$_Wrap_alloc@V?$allocator@I@std@@@std@@@std@@V12@@std@@YA?A_PAEBV?$_Vb_iterator@U?$_Wrap_alloc@V?$allocator@I@std@@@std@@@0@0@Z
	??$_Insert_range@PEAPEAVQAction@@@?$vector@PEAVQAction@@V?$allocator@PEAVQAction@@@std@@@std@@AEAAXV?$_Vector_const_iterator@V?$_Vector_val@U?$_Simple_types@PEAVQAction@@@std@@@std@@@1@PEAPEAVQAction@@1Uforward_iterator_tag@1@@Z
	??$_Insert_string@DU?$char_traits@D@std@@_K@std@@YAAEAV?$basic_ostream@DU?$char_traits@D@std@@@0@AEAV10@QEBD_K@Z
	??$_Insertion_sort_unchecked@PEAPEAVQAction@@UActionComparator@ActionSearcher@@@std@@YAPEAPEAVQAction@@QEAPEAV1@0UActionComparator@ActionSearcher@@@Z
	??$_Insertion_sort_unchecked@PEAVEdgeVertInd@?$NotThreadSafeGLMeshAttributesMultiViewerBOManager@VCMeshO@@PEAVQGLContext@@UMLPerViewGLOptions@@@vcg@@U?$less@X@std@@@std@@YAPEAVEdgeVertInd@?$NotThreadSafeGLMeshAttributesMultiViewerBOManager@VCMeshO@@PEAVQGLContext@@UMLPerViewGLOptions@@@vcg@@QEAV123@0U?$less@X@0@@Z
	??$_Insertion_sort_unchecked@PEAVPEdge@?$UpdateTopology@VCMeshO@@@tri@vcg@@U?$less@X@std@@@std@@YAPEAVPEdge@?$UpdateTopology@VCMeshO@@@tri@vcg@@QEAV1234@0U?$less@X@0@@Z
	??$_Integral_to_string@DH@std@@YA?AV?$basic_string@DU?$char_traits@D@std@@V?$allocator@D@2@@0@H@Z
	??$_Is_all_bits_zero@H@std@@YA_NAEBH@Z
	??$_Is_all_bits_zero@I@std@@YA_NAEBI@Z
	??$_Is_all_bits_zero@M@std@@YA_NAEBM@Z
	??$_Is_all_bits_zero@PEAUGLBufferObject@?$NotThreadSafeGLMeshAttributesMultiViewerBOManager@VCMeshO@@PEAVQGLContext@@UMLPerViewGLOptions@@@vcg@@@std@@YA_NAEBQEAUGLBufferObject@?$NotThreadSafeGLMeshAttributesMultiViewerBOManager@VCMeshO@@PEAVQGLContext@@UMLPerViewGLOptions@@@vcg@@@Z
	??$_Is_all_bits_zero@_K@std@@YA_NAEB_K@Z
	??$_Kfn@$$CBFV?$vector@U?$pair@II@std@@V?$allocator@U?$pair@II@std@@@2@@std@@@?$_Tmap_traits@FV?$vector@U?$pair@II@std@@V?$allocator@U?$pair@II@std@@@2@@std@@U?$less@F@2@V?$allocator@U?$pair@$$CBFV?$vector@U?$pair@II@std@@V?$allocator@U?$pair@II@std@@@2@@std@@@std@@@2@$0A@@std@@SAAEBFAEBU?$pair@$$CBFV?$vector@U?$pair@II@std@@V?$allocator@U?$pair@II@std@@@2@@std@@@1@@Z
	??$_Kfn@$$CBHPEAV?$QtThreadSafeGLMeshAttributesMultiViewerBOManager@VCMeshO@@PEAVQGLContext@@UMLPerViewGLOptions@@@vcg@@@?$_Tmap_traits@HPEAV?$QtThreadSafeGLMeshAttributesMultiViewerBOManager@VCMeshO@@PEAVQGLContext@@UMLPerViewGLOptions@@@vcg@@U?$less@H@std@@V?$allocator@U?$pair@$$CBHPEAV?$QtThreadSafeGLMeshAttributesMultiViewerBOManager@VCMeshO@@PEAVQGLContext@@UMLPerViewGLOptions@@@vcg@@@std@@@4@$0A@@std@@SAAEBHAEBU?$pair@$$CBHPEAV?$QtThreadSafeGLMeshAttributesMultiViewerBOManager@VCMeshO@@PEAVQGLContext@@UMLPerViewGLOptions@@@vcg@@@1@@Z
	??$_Kfn@$$CBMV?$vector@PEAVQAction@@V?$allocator@PEAVQAction@@@std@@@std@@@?$_Tmap_traits@MV?$vector@PEAVQAction@@V?$allocator@PEAVQAction@@@std@@@std@@U?$less@M@2@V?$allocator@U?$pair@$$CBMV?$vector@PEAVQAction@@V?$allocator@PEAVQAction@@@std@@@std@@@std@@@2@$0A@@std@@SAAEBMAEBU?$pair@$$CBMV?$vector@PEAVQAction@@V?$allocator@PEAVQAction@@@std@@@std@@@1@@Z
	??$_Kfn@$$CBV?$basic_string@DU?$char_traits@D@std@@V?$allocator@D@2@@std@@VQImage@@@?$_Tmap_traits@V?$basic_string@DU?$char_traits@D@std@@V?$allocator@D@2@@std@@VQImage@@U?$less@V?$basic_string@DU?$char_traits@D@std@@V?$allocator@D@2@@std@@@2@V?$allocator@U?$pair@$$CBV?$basic_string@DU?$char_traits@D@std@@V?$allocator@D@2@@std@@VQImage@@@std@@@2@$0A@@std@@SAAEBV?$basic_string@DU?$char_traits@D@std@@V?$allocator@D@2@@1@AEBU?$pair@$$CBV?$basic_string@DU?$char_traits@D@std@@V?$allocator@D@2@@std@@VQImage@@@1@@Z
	??$_Kfn@$$CBVQString@@V?$vector@PEAVQAction@@V?$allocator@PEAVQAction@@@std@@@std@@@?$_Tmap_traits@VQString@@V?$vector@PEAVQAction@@V?$allocator@PEAVQAction@@@std@@@std@@U?$less@VQString@@@3@V?$allocator@U?$pair@$$CBVQString@@V?$vector@PEAVQAction@@V?$allocator@PEAVQAction@@@std@@@std@@@std@@@3@$0A@@std@@SAAEBVQString@@AEBU?$pair@$$CBVQString@@V?$vector@PEAVQAction@@V?$allocator@PEAVQAction@@@std@@@std@@@1@@Z
	??$_Kfn@QEAVQAction@@M@?$_Tmap_traits@PEAVQAction@@MU?$less@PEAVQAction@@@std@@V?$allocator@U?$pair@QEAVQAction@@M@std@@@3@$0A@@std@@SAAEBQEAVQAction@@AEBU?$pair@QEAVQAction@@M@1@@Z
	??$_Kfn@QEAVQGLContext@@V?$PerViewData@UMLPerViewGLOptions@@@vcg@@@?$_Tmap_traits@PEAVQGLContext@@V?$PerViewData@UMLPerViewGLOptions@@@vcg@@U?$less@PEAVQGLContext@@@std@@V?$allocator@U?$pair@QEAVQGLContext@@V?$PerViewData@UMLPerViewGLOptions@@@vcg@@@std@@@5@$0A@@std@@SAAEBQEAVQGLContext@@AEBU?$pair@QEAVQGLContext@@V?$PerViewData@UMLPerViewGLOptions@@@vcg@@@1@@Z
	??$_Lower_bound_duplicate@F@?$_Tree@V?$_Tmap_traits@FV?$vector@U?$pair@II@std@@V?$allocator@U?$pair@II@std@@@2@@std@@U?$less@F@2@V?$allocator@U?$pair@$$CBFV?$vector@U?$pair@II@std@@V?$allocator@U?$pair@II@std@@@2@@std@@@std@@@2@$0A@@std@@@std@@IEBA_NQEAU?$_Tree_node@U?$pair@$$CBFV?$vector@U?$pair@II@std@@V?$allocator@U?$pair@II@std@@@2@@std@@@std@@PEAX@1@AEBF@Z
	??$_Lower_bound_duplicate@H@?$_Tree@V?$_Tmap_traits@HPEAV?$QtThreadSafeGLMeshAttributesMultiViewerBOManager@VCMeshO@@PEAVQGLContext@@UMLPerViewGLOptions@@@vcg@@U?$less@H@std@@V?$allocator@U?$pair@$$CBHPEAV?$QtThreadSafeGLMeshAttributesMultiViewerBOManager@VCMeshO@@PEAVQGLContext@@UMLPerViewGLOptions@@@vcg@@@std@@@4@$0A@@std@@@std@@IEBA_NQEAU?$_Tree_node@U?$pair@$$CBHPEAV?$QtThreadSafeGLMeshAttributesMultiViewerBOManager@VCMeshO@@PEAVQGLContext@@UMLPerViewGLOptions@@@vcg@@@std@@PEAX@1@AEBH@Z
	??$_Lower_bound_duplicate@M@?$_Tree@V?$_Tmap_traits@MV?$vector@PEAVQAction@@V?$allocator@PEAVQAction@@@std@@@std@@U?$less@M@2@V?$allocator@U?$pair@$$CBMV?$vector@PEAVQAction@@V?$allocator@PEAVQAction@@@std@@@std@@@std@@@2@$0A@@std@@@std@@IEBA_NQEAU?$_Tree_node@U?$pair@$$CBMV?$vector@PEAVQAction@@V?$allocator@PEAVQAction@@@std@@@std@@@std@@PEAX@1@AEBM@Z
	??$_Lower_bound_duplicate@PEAVQAction@@@?$_Tree@V?$_Tmap_traits@PEAVQAction@@MU?$less@PEAVQAction@@@std@@V?$allocator@U?$pair@QEAVQAction@@M@std@@@3@$0A@@std@@@std@@IEBA_NQEAU?$_Tree_node@U?$pair@QEAVQAction@@M@std@@PEAX@1@AEBQEAVQAction@@@Z
	??$_Lower_bound_duplicate@PEAVQGLContext@@@?$_Tree@V?$_Tmap_traits@PEAVQGLContext@@V?$PerViewData@UMLPerViewGLOptions@@@vcg@@U?$less@PEAVQGLContext@@@std@@V?$allocator@U?$pair@QEAVQGLContext@@V?$PerViewData@UMLPerViewGLOptions@@@vcg@@@std@@@5@$0A@@std@@@std@@IEBA_NQEAU?$_Tree_node@U?$pair@QEAVQGLContext@@V?$PerViewData@UMLPerViewGLOptions@@@vcg@@@std@@PEAX@1@AEBQEAVQGLContext@@@Z
	??$_Lower_bound_duplicate@V?$basic_string@DU?$char_traits@D@std@@V?$allocator@D@2@@std@@@?$_Tree@V?$_Tmap_traits@V?$basic_string@DU?$char_traits@D@std@@V?$allocator@D@2@@std@@VQImage@@U?$less@V?$basic_string@DU?$char_traits@D@std@@V?$allocator@D@2@@std@@@2@V?$allocator@U?$pair@$$CBV?$basic_string@DU?$char_traits@D@std@@V?$allocator@D@2@@std@@VQImage@@@std@@@2@$0A@@std@@@std@@IEBA_NQEAU?$_Tree_node@U?$pair@$$CBV?$basic_string@DU?$char_traits@D@std@@V?$allocator@D@2@@std@@VQImage@@@std@@PEAX@1@AEBV?$basic_string@DU?$char_traits@D@std@@V?$allocator@D@2@@1@@Z
	??$_Lower_bound_duplicate@VFunction@pymeshlab@@@?$_Tree@V?$_Tset_traits@VFunction@pymeshlab@@U?$less@VFunction@pymeshlab@@@std@@V?$allocator@VFunction@pymeshlab@@@4@$0A@@std@@@std@@IEBA_NQEAU?$_Tree_node@VFunction@pymeshlab@@PEAX@1@AEBVFunction@pymeshlab@@@Z
	??$_Lower_bound_duplicate@VPointerToAttribute@vcg@@@?$_Tree@V?$_Tset_traits@VPointerToAttribute@vcg@@U?$less@VPointerToAttribute@vcg@@@std@@V?$allocator@VPointerToAttribute@vcg@@@4@$0A@@std@@@std@@IEBA_NQEAU?$_Tree_node@VPointerToAttribute@vcg@@PEAX@1@AEBVPointerToAttribute@vcg@@@Z
	??$_Lower_bound_duplicate@VQString@@@?$_Tree@V?$_Tmap_traits@VQString@@V?$vector@PEAVQAction@@V?$allocator@PEAVQAction@@@std@@@std@@U?$less@VQString@@@3@V?$allocator@U?$pair@$$CBVQString@@V?$vector@PEAVQAction@@V?$allocator@PEAVQAction@@@std@@@std@@@std@@@3@$0A@@std@@@std@@IEBA_NQEAU?$_Tree_node@U?$pair@$$CBVQString@@V?$vector@PEAVQAction@@V?$allocator@PEAVQAction@@@std@@@std@@@std@@PEAX@1@AEBVQString@@@Z
	??$_Lower_bound_duplicate@VQString@@@?$_Tree@V?$_Tset_traits@VQString@@U?$less@VQString@@@std@@V?$allocator@VQString@@@3@$0A@@std@@@std@@IEBA_NQEAU?$_Tree_node@VQString@@PEAX@1@AEBVQString@@@Z
	??$_Make_heap_unchecked@PEAPEAVQAction@@UActionComparator@ActionSearcher@@@std@@YAXPEAPEAVQAction@@0UActionComparator@ActionSearcher@@@Z
	??$_Make_heap_unchecked@PEAVEdgeVertInd@?$NotThreadSafeGLMeshAttributesMultiViewerBOManager@VCMeshO@@PEAVQGLContext@@UMLPerViewGLOptions@@@vcg@@U?$less@X@std@@@std@@YAXPEAVEdgeVertInd@?$NotThreadSafeGLMeshAttributesMultiViewerBOManager@VCMeshO@@PEAVQGLContext@@UMLPerViewGLOptions@@@vcg@@0U?$less@X@0@@Z
	??$_Make_heap_unchecked@PEAVPEdge@?$UpdateTopology@VCMeshO@@@tri@vcg@@U?$less@X@std@@@std@@YAXPEAVPEdge@?$UpdateTopology@VCMeshO@@@tri@vcg@@0U?$less@X@0@@Z
	??$_Med3_unchecked@PEAPEAVQAction@@UActionComparator@ActionSearcher@@@std@@YAXPEAPEAVQAction@@00UActionComparator@ActionSearcher@@@Z
	??$_Med3_unchecked@PEAVEdgeVertInd@?$NotThreadSafeGLMeshAttributesMultiViewerBOManager@VCMeshO@@PEAVQGLContext@@UMLPerViewGLOptions@@@vcg@@U?$less@X@std@@@std@@YAXPEAVEdgeVertInd@?$NotThreadSafeGLMeshAttributesMultiViewerBOManager@VCMeshO@@PEAVQGLContext@@UMLPerViewGLOptions@@@vcg@@00U?$less@X@0@@Z
	??$_Med3_unchecked@PEAVPEdge@?$UpdateTopology@VCMeshO@@@tri@vcg@@U?$less@X@std@@@std@@YAXPEAVPEdge@?$UpdateTopology@VCMeshO@@@tri@vcg@@00U?$less@X@0@@Z
	??$_Move_backward_unchecked@PEAIPEAI@std@@YAPEAIPEAI00@Z
	??$_Move_backward_unchecked@PEAPEAVQAction@@PEAPEAV1@@std@@YAPEAPEAVQAction@@PEAPEAV1@00@Z
	??$_Move_backward_unchecked@PEAVEdgeVertInd@?$NotThreadSafeGLMeshAttributesMultiViewerBOManager@VCMeshO@@PEAVQGLContext@@UMLPerViewGLOptions@@@vcg@@PEAV123@@std@@YAPEAVEdgeVertInd@?$NotThreadSafeGLMeshAttributesMultiViewerBOManager@VCMeshO@@PEAVQGLContext@@UMLPerViewGLOptions@@@vcg@@PEAV123@00@Z
	??$_Move_backward_unchecked@PEAVPEdge@?$UpdateTopology@VCMeshO@@@tri@vcg@@PEAV1234@@std@@YAPEAVPEdge@?$UpdateTopology@VCMeshO@@@tri@vcg@@PEAV1234@00@Z
	??$_Move_unchecked@PEAIPEAI@std@@YAPEAIPEAI00@Z
	??$_Move_unchecked@PEAPEAVDecoratePlugin@@PEAPEAV1@@std@@YAPEAPEAVDecoratePlugin@@PEAPEAV1@00@Z
	??$_Move_unchecked@PEAPEAVEditPlugin@@PEAPEAV1@@std@@YAPEAPEAVEditPlugin@@PEAPEAV1@00@Z
	??$_Move_unchecked@PEAPEAVFilterPlugin@@PEAPEAV1@@std@@YAPEAPEAVFilterPlugin@@PEAPEAV1@00@Z
	??$_Move_unchecked@PEAPEAVIOPlugin@@PEAPEAV1@@std@@YAPEAPEAVIOPlugin@@PEAPEAV1@00@Z
	??$_Move_unchecked@PEAPEAVMeshLabPlugin@@PEAPEAV1@@std@@YAPEAPEAVMeshLabPlugin@@PEAPEAV1@00@Z
	??$_Move_unchecked@PEAPEAVQAction@@PEAPEAV1@@std@@YAPEAPEAVQAction@@PEAPEAV1@00@Z
	??$_Move_unchecked@PEAPEAVQPluginLoader@@PEAPEAV1@@std@@YAPEAPEAVQPluginLoader@@PEAPEAV1@00@Z
	??$_Move_unchecked@PEAPEAVRenderPlugin@@PEAPEAV1@@std@@YAPEAPEAVRenderPlugin@@PEAPEAV1@00@Z
	??$_Next_iter@PEAPEAVQAction@@@std@@YAPEAPEAVQAction@@PEAPEAV1@@Z
	??$_Next_iter@PEAVEdgeVertInd@?$NotThreadSafeGLMeshAttributesMultiViewerBOManager@VCMeshO@@PEAVQGLContext@@UMLPerViewGLOptions@@@vcg@@@std@@YAPEAVEdgeVertInd@?$NotThreadSafeGLMeshAttributesMultiViewerBOManager@VCMeshO@@PEAVQGLContext@@UMLPerViewGLOptions@@@vcg@@PEAV123@@Z
	??$_Next_iter@PEAVPEdge@?$UpdateTopology@VCMeshO@@@tri@vcg@@@std@@YAPEAVPEdge@?$UpdateTopology@VCMeshO@@@tri@vcg@@PEAV1234@@Z
	??$_Partition_by_median_guess_unchecked@PEAPEAVQAction@@UActionComparator@ActionSearcher@@@std@@YA?AU?$pair@PEAPEAVQAction@@PEAPEAV1@@0@PEAPEAVQAction@@0UActionComparator@ActionSearcher@@@Z
	??$_Partition_by_median_guess_unchecked@PEAVEdgeVertInd@?$NotThreadSafeGLMeshAttributesMultiViewerBOManager@VCMeshO@@PEAVQGLContext@@UMLPerViewGLOptions@@@vcg@@U?$less@X@std@@@std@@YA?AU?$pair@PEAVEdgeVertInd@?$NotThreadSafeGLMeshAttributesMultiViewerBOManager@VCMeshO@@PEAVQGLContext@@UMLPerViewGLOptions@@@vcg@@PEAV123@@0@PEAVEdgeVertInd@?$NotThreadSafeGLMeshAttributesMultiViewerBOManager@VCMeshO@@PEAVQGLContext@@UMLPerViewGLOptions@@@vcg@@0U?$less@X@0@@Z
	??$_Partition_by_median_guess_unchecked@PEAVPEdge@?$UpdateTopology@VCMeshO@@@tri@vcg@@U?$less@X@std@@@std@@YA?AU?$pair@PEAVPEdge@?$UpdateTopology@VCMeshO@@@tri@vcg@@PEAV1234@@0@PEAVPEdge@?$UpdateTopology@VCMeshO@@@tri@vcg@@0U?$less@X@0@@Z
	??$_Pass_fn@U?$less@X@std@@$0A@@std@@YA?AU?$less@X@0@U10@@Z
	??$_Pass_fn@UActionComparator@ActionSearcher@@$0A@@std@@YA?AUActionComparator@ActionSearcher@@U12@@Z
	??$_Pocca@V?$allocator@D@std@@@std@@YAXAEAV?$allocator@D@0@AEBV10@@Z
	??$_Pocca@V?$allocator@V?$basic_string@DU?$char_traits@D@std@@V?$allocator@D@2@@std@@@std@@@std@@YAXAEAV?$allocator@V?$basic_string@DU?$char_traits@D@std@@V?$allocator@D@2@@std@@@0@AEBV10@@Z
	??$_Pocca@V?$allocator@VInternalRendAtts@GLMeshAttributesInfo@vcg@@@std@@@std@@YAXAEAV?$allocator@VInternalRendAtts@GLMeshAttributesInfo@vcg@@@0@AEBV10@@Z
	??$_Pocma@V?$allocator@D@std@@@std@@YAXAEAV?$allocator@D@0@0@Z
	??$_Pocma@V?$allocator@H@std@@@std@@YAXAEAV?$allocator@H@0@0@Z
	??$_Pocma@V?$allocator@M@std@@@std@@YAXAEAV?$allocator@M@0@0@Z
	??$_Pocma@V?$allocator@U?$CurvatureDirOcfBaseType@M@face@vcg@@@std@@@std@@YAXAEAV?$allocator@U?$CurvatureDirOcfBaseType@M@face@vcg@@@0@0@Z
	??$_Pocma@V?$allocator@U?$CurvatureDirTypeOcf@M@vertex@vcg@@@std@@@std@@YAXAEAV?$allocator@U?$CurvatureDirTypeOcf@M@vertex@vcg@@@0@0@Z
	??$_Pocma@V?$allocator@UAdjTypePack@?$vector_ocf@VCFaceO@@@face@vcg@@@std@@@std@@YAXAEAV?$allocator@UAdjTypePack@?$vector_ocf@VCFaceO@@@face@vcg@@@0@0@Z
	??$_Pocma@V?$allocator@UVFAdjType@?$vector_ocf@VCVertexO@@@vertex@vcg@@@std@@@std@@YAXAEAV?$allocator@UVFAdjType@?$vector_ocf@VCVertexO@@@vertex@vcg@@@0@0@Z
	??$_Pocma@V?$allocator@V?$Color4@E@vcg@@@std@@@std@@YAXAEAV?$allocator@V?$Color4@E@vcg@@@0@0@Z
	??$_Pocma@V?$allocator@V?$Point2@M@vcg@@@std@@@std@@YAXAEAV?$allocator@V?$Point2@M@vcg@@@0@0@Z
	??$_Pocma@V?$allocator@V?$Point3@M@vcg@@@std@@@std@@YAXAEAV?$allocator@V?$Point3@M@vcg@@@0@0@Z
	??$_Pocma@V?$allocator@V?$TexCoord2@M$00@vcg@@@std@@@std@@YAXAEAV?$allocator@V?$TexCoord2@M$00@vcg@@@0@0@Z
	??$_Pocma@V?$allocator@VCFaceO@@@std@@@std@@YAXAEAV?$allocator@VCFaceO@@@0@0@Z
	??$_Pocma@V?$allocator@VCVertexO@@@std@@@std@@YAXAEAV?$allocator@VCVertexO@@@0@0@Z
	??$_Pocma@V?$allocator@VWedgeColorTypePack@?$vector_ocf@VCFaceO@@@face@vcg@@@std@@@std@@YAXAEAV?$allocator@VWedgeColorTypePack@?$vector_ocf@VCFaceO@@@face@vcg@@@0@0@Z
	??$_Pocma@V?$allocator@VWedgeNormalTypePack@?$vector_ocf@VCFaceO@@@face@vcg@@@std@@@std@@YAXAEAV?$allocator@VWedgeNormalTypePack@?$vector_ocf@VCFaceO@@@face@vcg@@@0@0@Z
	??$_Pocma@V?$allocator@VWedgeTexTypePack@?$vector_ocf@VCFaceO@@@face@vcg@@@std@@@std@@YAXAEAV?$allocator@VWedgeTexTypePack@?$vector_ocf@VCFaceO@@@face@vcg@@@0@0@Z
	??$_Pocs@V?$allocator@U?$_List_node@PEAVRichParameter@@PEAX@std@@@std@@@std@@YAXAEAV?$allocator@U?$_List_node@PEAVRichParameter@@PEAX@std@@@0@0@Z
	??$_Pocs@V?$allocator@U?$_Tree_node@VPointerToAttribute@vcg@@PEAX@std@@@std@@@std@@YAXAEAV?$allocator@U?$_Tree_node@VPointerToAttribute@vcg@@PEAX@std@@@0@0@Z
	??$_Pocs@V?$allocator@V?$HEdge@V?$UsedTypes@UAsVertexType@?$Use@VCVertexO@@@vcg@@UAsEdgeType@?$Use@VCEdgeO@@@3@UAsFaceType@?$Use@VCFaceO@@@3@VDefaultDeriver@3@V83@V83@V83@V83@@vcg@@VDefaultDeriver@2@V32@V32@V32@V32@V32@V32@V32@V32@V32@V32@@vcg@@@std@@@std@@YAXAEAV?$allocator@V?$HEdge@V?$UsedTypes@UAsVertexType@?$Use@VCVertexO@@@vcg@@UAsEdgeType@?$Use@VCEdgeO@@@3@UAsFaceType@?$Use@VCFaceO@@@3@VDefaultDeriver@3@V83@V83@V83@V83@@vcg@@VDefaultDeriver@2@V32@V32@V32@V32@V32@V32@V32@V32@V32@V32@@vcg@@@0@0@Z
	??$_Pocs@V?$allocator@V?$TetraSimp@V?$UsedTypes@UAsVertexType@?$Use@VCVertexO@@@vcg@@UAsEdgeType@?$Use@VCEdgeO@@@3@UAsFaceType@?$Use@VCFaceO@@@3@VDefaultDeriver@3@V83@V83@V83@V83@@vcg@@VDefaultDeriver@2@V32@V32@V32@V32@V32@V32@V32@V32@V32@V32@V32@@vcg@@@std@@@std@@YAXAEAV?$allocator@V?$TetraSimp@V?$UsedTypes@UAsVertexType@?$Use@VCVertexO@@@vcg@@UAsEdgeType@?$Use@VCEdgeO@@@3@UAsFaceType@?$Use@VCFaceO@@@3@VDefaultDeriver@3@V83@V83@V83@V83@@vcg@@VDefaultDeriver@2@V32@V32@V32@V32@V32@V32@V32@V32@V32@V32@V32@@vcg@@@0@0@Z
	??$_Pocs@V?$allocator@V?$basic_string@DU?$char_traits@D@std@@V?$allocator@D@2@@std@@@std@@@std@@YAXAEAV?$allocator@V?$basic_string@DU?$char_traits@D@std@@V?$allocator@D@2@@std@@@0@0@Z
	??$_Pocs@V?$allocator@VCEdgeO@@@std@@@std@@YAXAEAV?$allocator@VCEdgeO@@@0@0@Z
	??$_Pop_heap_hole_by_index@PEAPEAVQAction@@PEAV1@UActionComparator@ActionSearcher@@@std@@YAXPEAPEAVQAction@@_J1$$QEAPEAV1@UActionComparator@ActionSearcher@@@Z
	??$_Pop_heap_hole_by_index@PEAVEdgeVertInd@?$NotThreadSafeGLMeshAttributesMultiViewerBOManager@VCMeshO@@PEAVQGLContext@@UMLPerViewGLOptions@@@vcg@@V123@U?$less@X@std@@@std@@YAXPEAVEdgeVertInd@?$NotThreadSafeGLMeshAttributesMultiViewerBOManager@VCMeshO@@PEAVQGLContext@@UMLPerViewGLOptions@@@vcg@@_J1$$QEAV123@U?$less@X@0@@Z
	??$_Pop_heap_hole_by_index@PEAVPEdge@?$UpdateTopology@VCMeshO@@@tri@vcg@@V1234@U?$less@X@std@@@std@@YAXPEAVPEdge@?$UpdateTopology@VCMeshO@@@tri@vcg@@_J1$$QEAV1234@U?$less@X@0@@Z
	??$_Pop_heap_hole_unchecked@PEAPEAVQAction@@PEAV1@UActionComparator@ActionSearcher@@@std@@YAXPEAPEAVQAction@@00$$QEAPEAV1@UActionComparator@ActionSearcher@@@Z
	??$_Pop_heap_hole_unchecked@PEAVEdgeVertInd@?$NotThreadSafeGLMeshAttributesMultiViewerBOManager@VCMeshO@@PEAVQGLContext@@UMLPerViewGLOptions@@@vcg@@V123@U?$less@X@std@@@std@@YAXPEAVEdgeVertInd@?$NotThreadSafeGLMeshAttributesMultiViewerBOManager@VCMeshO@@PEAVQGLContext@@UMLPerViewGLOptions@@@vcg@@00$$QEAV123@U?$less@X@0@@Z
	??$_Pop_heap_hole_unchecked@PEAVPEdge@?$UpdateTopology@VCMeshO@@@tri@vcg@@V1234@U?$less@X@std@@@std@@YAXPEAVPEdge@?$UpdateTopology@VCMeshO@@@tri@vcg@@00$$QEAV1234@U?$less@X@0@@Z
	??$_Pop_heap_unchecked@PEAPEAVQAction@@UActionComparator@ActionSearcher@@@std@@YAXPEAPEAVQAction@@0UActionComparator@ActionSearcher@@@Z
	??$_Pop_heap_unchecked@PEAVEdgeVertInd@?$NotThreadSafeGLMeshAttributesMultiViewerBOManager@VCMeshO@@PEAVQGLContext@@UMLPerViewGLOptions@@@vcg@@U?$less@X@std@@@std@@YAXPEAVEdgeVertInd@?$NotThreadSafeGLMeshAttributesMultiViewerBOManager@VCMeshO@@PEAVQGLContext@@UMLPerViewGLOptions@@@vcg@@0U?$less@X@0@@Z
	??$_Pop_heap_unchecked@PEAVPEdge@?$UpdateTopology@VCMeshO@@@tri@vcg@@U?$less@X@std@@@std@@YAXPEAVPEdge@?$UpdateTopology@VCMeshO@@@tri@vcg@@0U?$less@X@0@@Z
	??$_Prev_iter@PEAPEAVQAction@@@std@@YAPEAPEAVQAction@@PEAPEAV1@@Z
	??$_Prev_iter@PEAVEdgeVertInd@?$NotThreadSafeGLMeshAttributesMultiViewerBOManager@VCMeshO@@PEAVQGLContext@@UMLPerViewGLOptions@@@vcg@@@std@@YAPEAVEdgeVertInd@?$NotThreadSafeGLMeshAttributesMultiViewerBOManager@VCMeshO@@PEAVQGLContext@@UMLPerViewGLOptions@@@vcg@@PEAV123@@Z
	??$_Prev_iter@PEAVPEdge@?$UpdateTopology@VCMeshO@@@tri@vcg@@@std@@YAPEAVPEdge@?$UpdateTopology@VCMeshO@@@tri@vcg@@PEAV1234@@Z
	??$_Push_heap_by_index@PEAPEAVQAction@@PEAV1@UActionComparator@ActionSearcher@@@std@@YAXPEAPEAVQAction@@_J1$$QEAPEAV1@UActionComparator@ActionSearcher@@@Z
	??$_Push_heap_by_index@PEAVEdgeVertInd@?$NotThreadSafeGLMeshAttributesMultiViewerBOManager@VCMeshO@@PEAVQGLContext@@UMLPerViewGLOptions@@@vcg@@V123@U?$less@X@std@@@std@@YAXPEAVEdgeVertInd@?$NotThreadSafeGLMeshAttributesMultiViewerBOManager@VCMeshO@@PEAVQGLContext@@UMLPerViewGLOptions@@@vcg@@_J1$$QEAV123@U?$less@X@0@@Z
	??$_Push_heap_by_index@PEAVPEdge@?$UpdateTopology@VCMeshO@@@tri@vcg@@V1234@U?$less@X@std@@@std@@YAXPEAVPEdge@?$UpdateTopology@VCMeshO@@@tri@vcg@@_J1$$QEAV1234@U?$less@X@0@@Z
	??$_Reallocate_for@V<lambda_138c3d7c38c85abb84c7fc7bfe5747b7>@@D@?$basic_string@DU?$char_traits@D@std@@V?$allocator@D@2@@std@@AEAAAEAV01@_KV<lambda_138c3d7c38c85abb84c7fc7bfe5747b7>@@D@Z
	??$_Reallocate_for@V<lambda_66f57f934f28d61049862f64df852ff0>@@PEBD@?$basic_string@DU?$char_traits@D@std@@V?$allocator@D@2@@std@@AEAAAEAV01@_KV<lambda_66f57f934f28d61049862f64df852ff0>@@PEBD@Z
	??$_Reallocate_grow_by@V<lambda_65e615be2a453ca0576c979606f46740>@@PEBD_K@?$basic_string@DU?$char_traits@D@std@@V?$allocator@D@2@@std@@AEAAAEAV01@_KV<lambda_65e615be2a453ca0576c979606f46740>@@PEBD_K@Z
	??$_Reallocate_grow_by@V<lambda_f3a66ab6a0570788f31503db83886f49>@@_KPEBD_K@?$basic_string@DU?$char_traits@D@std@@V?$allocator@D@2@@std@@AEAAAEAV01@_KV<lambda_f3a66ab6a0570788f31503db83886f49>@@_KPEBD2@Z
	??$_Refancy@PEAI$0A@@std@@YAPEAIPEAI@Z
	??$_Refancy@PEAPEAVDecoratePlugin@@$0A@@std@@YAPEAPEAVDecoratePlugin@@PEAPEAV1@@Z
	??$_Refancy@PEAPEAVEditPlugin@@$0A@@std@@YAPEAPEAVEditPlugin@@PEAPEAV1@@Z
	??$_Refancy@PEAPEAVFilterPlugin@@$0A@@std@@YAPEAPEAVFilterPlugin@@PEAPEAV1@@Z
	??$_Refancy@PEAPEAVIOPlugin@@$0A@@std@@YAPEAPEAVIOPlugin@@PEAPEAV1@@Z
	??$_Refancy@PEAPEAVMeshLabPlugin@@$0A@@std@@YAPEAPEAVMeshLabPlugin@@PEAPEAV1@@Z
	??$_Refancy@PEAPEAVRenderPlugin@@$0A@@std@@YAPEAPEAVRenderPlugin@@PEAPEAV1@@Z
	??$_Refancy@PEAV?$basic_string@DU?$char_traits@D@std@@V?$allocator@D@2@@std@@$0A@@std@@YAPEAV?$basic_string@DU?$char_traits@D@std@@V?$allocator@D@2@@0@PEAV10@@Z
	??$_Refancy@PEAVEdgeVertInd@?$NotThreadSafeGLMeshAttributesMultiViewerBOManager@VCMeshO@@PEAVQGLContext@@UMLPerViewGLOptions@@@vcg@@$0A@@std@@YAPEAVEdgeVertInd@?$NotThreadSafeGLMeshAttributesMultiViewerBOManager@VCMeshO@@PEAVQGLContext@@UMLPerViewGLOptions@@@vcg@@PEAV123@@Z
	??$_Resize@H@?$vector@HV?$allocator@H@std@@@std@@AEAAX_KAEBH@Z
	??$_Resize@I@?$vector@IV?$allocator@I@std@@@std@@AEAAX_KAEBI@Z
	??$_Resize@M@?$vector@MV?$allocator@M@std@@@std@@AEAAX_KAEBM@Z
	??$_Resize@UVFAdjType@?$vector_ocf@VCVertexO@@@vertex@vcg@@@?$vector@UVFAdjType@?$vector_ocf@VCVertexO@@@vertex@vcg@@V?$allocator@UVFAdjType@?$vector_ocf@VCVertexO@@@vertex@vcg@@@std@@@std@@AEAAX_KAEBUVFAdjType@?$vector_ocf@VCVertexO@@@vertex@vcg@@@Z
	??$_Resize@U_Value_init_tag@std@@@?$vector@HV?$allocator@H@std@@@std@@AEAAX_KAEBU_Value_init_tag@1@@Z
	??$_Resize@U_Value_init_tag@std@@@?$vector@MV?$allocator@M@std@@@std@@AEAAX_KAEBU_Value_init_tag@1@@Z
	??$_Resize@U_Value_init_tag@std@@@?$vector@PEAVQAction@@V?$allocator@PEAVQAction@@@std@@@std@@AEAAX_KAEBU_Value_init_tag@1@@Z
	??$_Resize@U_Value_init_tag@std@@@?$vector@U?$CurvatureDirOcfBaseType@M@face@vcg@@V?$allocator@U?$CurvatureDirOcfBaseType@M@face@vcg@@@std@@@std@@AEAAX_KAEBU_Value_init_tag@1@@Z
	??$_Resize@U_Value_init_tag@std@@@?$vector@U?$CurvatureDirTypeOcf@M@vertex@vcg@@V?$allocator@U?$CurvatureDirTypeOcf@M@vertex@vcg@@@std@@@std@@AEAAX_KAEBU_Value_init_tag@1@@Z
	??$_Resize@U_Value_init_tag@std@@@?$vector@U?$pair@FI@std@@V?$allocator@U?$pair@FI@std@@@2@@std@@AEAAX_KAEBU_Value_init_tag@1@@Z
	??$_Resize@U_Value_init_tag@std@@@?$vector@UAdjTypePack@?$vector_ocf@VCFaceO@@@face@vcg@@V?$allocator@UAdjTypePack@?$vector_ocf@VCFaceO@@@face@vcg@@@std@@@std@@AEAAX_KAEBU_Value_init_tag@1@@Z
	??$_Resize@U_Value_init_tag@std@@@?$vector@V?$Color4@E@vcg@@V?$allocator@V?$Color4@E@vcg@@@std@@@std@@AEAAX_KAEBU_Value_init_tag@1@@Z
	??$_Resize@U_Value_init_tag@std@@@?$vector@V?$HEdge@V?$UsedTypes@UAsVertexType@?$Use@VCVertexO@@@vcg@@UAsEdgeType@?$Use@VCEdgeO@@@3@UAsFaceType@?$Use@VCFaceO@@@3@VDefaultDeriver@3@V83@V83@V83@V83@@vcg@@VDefaultDeriver@2@V32@V32@V32@V32@V32@V32@V32@V32@V32@V32@@vcg@@V?$allocator@V?$HEdge@V?$UsedTypes@UAsVertexType@?$Use@VCVertexO@@@vcg@@UAsEdgeType@?$Use@VCEdgeO@@@3@UAsFaceType@?$Use@VCFaceO@@@3@VDefaultDeriver@3@V83@V83@V83@V83@@vcg@@VDefaultDeriver@2@V32@V32@V32@V32@V32@V32@V32@V32@V32@V32@@vcg@@@std@@@std@@AEAAX_KAEBU_Value_init_tag@1@@Z
	??$_Resize@U_Value_init_tag@std@@@?$vector@V?$Point2@M@vcg@@V?$allocator@V?$Point2@M@vcg@@@std@@@std@@AEAAX_KAEBU_Value_init_tag@1@@Z
	??$_Resize@U_Value_init_tag@std@@@?$vector@V?$Point3@M@vcg@@V?$allocator@V?$Point3@M@vcg@@@std@@@std@@AEAAX_KAEBU_Value_init_tag@1@@Z
	??$_Resize@U_Value_init_tag@std@@@?$vector@V?$TetraSimp@V?$UsedTypes@UAsVertexType@?$Use@VCVertexO@@@vcg@@UAsEdgeType@?$Use@VCEdgeO@@@3@UAsFaceType@?$Use@VCFaceO@@@3@VDefaultDeriver@3@V83@V83@V83@V83@@vcg@@VDefaultDeriver@2@V32@V32@V32@V32@V32@V32@V32@V32@V32@V32@V32@@vcg@@V?$allocator@V?$TetraSimp@V?$UsedTypes@UAsVertexType@?$Use@VCVertexO@@@vcg@@UAsEdgeType@?$Use@VCEdgeO@@@3@UAsFaceType@?$Use@VCFaceO@@@3@VDefaultDeriver@3@V83@V83@V83@V83@@vcg@@VDefaultDeriver@2@V32@V32@V32@V32@V32@V32@V32@V32@V32@V32@V32@@vcg@@@std@@@std@@AEAAX_KAEBU_Value_init_tag@1@@Z
	??$_Resize@U_Value_init_tag@std@@@?$vector@V?$TexCoord2@M$00@vcg@@V?$allocator@V?$TexCoord2@M$00@vcg@@@std@@@std@@AEAAX_KAEBU_Value_init_tag@1@@Z
	??$_Resize@U_Value_init_tag@std@@@?$vector@VCEdgeO@@V?$allocator@VCEdgeO@@@std@@@std@@AEAAX_KAEBU_Value_init_tag@1@@Z
	??$_Resize@U_Value_init_tag@std@@@?$vector@VCFaceO@@V?$allocator@VCFaceO@@@std@@@std@@AEAAX_KAEBU_Value_init_tag@1@@Z
	??$_Resize@U_Value_init_tag@std@@@?$vector@VCVertexO@@V?$allocator@VCVertexO@@@std@@@std@@AEAAX_KAEBU_Value_init_tag@1@@Z
	??$_Resize@U_Value_init_tag@std@@@?$vector@VEdgeVertInd@?$NotThreadSafeGLMeshAttributesMultiViewerBOManager@VCMeshO@@PEAVQGLContext@@UMLPerViewGLOptions@@@vcg@@V?$allocator@VEdgeVertInd@?$NotThreadSafeGLMeshAttributesMultiViewerBOManager@VCMeshO@@PEAVQGLContext@@UMLPerViewGLOptions@@@vcg@@@std@@@std@@AEAAX_KAEBU_Value_init_tag@1@@Z
	??$_Resize@U_Value_init_tag@std@@@?$vector@VPFace@vcg@@V?$allocator@VPFace@vcg@@@std@@@std@@AEAAX_KAEBU_Value_init_tag@1@@Z
	??$_Resize@U_Value_init_tag@std@@@?$vector@VPVertex@vcg@@V?$allocator@VPVertex@vcg@@@std@@@std@@AEAAX_KAEBU_Value_init_tag@1@@Z
	??$_Resize@U_Value_init_tag@std@@@?$vector@VWedgeColorTypePack@?$vector_ocf@VCFaceO@@@face@vcg@@V?$allocator@VWedgeColorTypePack@?$vector_ocf@VCFaceO@@@face@vcg@@@std@@@std@@AEAAX_KAEBU_Value_init_tag@1@@Z
	??$_Resize@U_Value_init_tag@std@@@?$vector@VWedgeNormalTypePack@?$vector_ocf@VCFaceO@@@face@vcg@@V?$allocator@VWedgeNormalTypePack@?$vector_ocf@VCFaceO@@@face@vcg@@@std@@@std@@AEAAX_KAEBU_Value_init_tag@1@@Z
	??$_Resize@V?$Color4@E@vcg@@@?$vector@V?$Color4@E@vcg@@V?$allocator@V?$Color4@E@vcg@@@std@@@std@@AEAAX_KAEBV?$Color4@E@vcg@@@Z
	??$_Resize@VWedgeTexTypePack@?$vector_ocf@VCFaceO@@@face@vcg@@@?$vector@VWedgeTexTypePack@?$vector_ocf@VCFaceO@@@face@vcg@@V?$allocator@VWedgeTexTypePack@?$vector_ocf@VCFaceO@@@face@vcg@@@std@@@std@@AEAAX_KAEBVWedgeTexTypePack@?$vector_ocf@VCFaceO@@@face@vcg@@@Z
	??$_Resize@_K@?$vector@_KV?$allocator@_K@std@@@std@@AEAAX_KAEB_K@Z
	??$_Resize_reallocate@H@?$vector@HV?$allocator@H@std@@@std@@AEAAX_KAEBH@Z
	??$_Resize_reallocate@I@?$vector@IV?$allocator@I@std@@@std@@AEAAX_KAEBI@Z
	??$_Resize_reallocate@M@?$vector@MV?$allocator@M@std@@@std@@AEAAX_KAEBM@Z
	??$_Resize_reallocate@UVFAdjType@?$vector_ocf@VCVertexO@@@vertex@vcg@@@?$vector@UVFAdjType@?$vector_ocf@VCVertexO@@@vertex@vcg@@V?$allocator@UVFAdjType@?$vector_ocf@VCVertexO@@@vertex@vcg@@@std@@@std@@AEAAX_KAEBUVFAdjType@?$vector_ocf@VCVertexO@@@vertex@vcg@@@Z
	??$_Resize_reallocate@U_Value_init_tag@std@@@?$vector@HV?$allocator@H@std@@@std@@AEAAX_KAEBU_Value_init_tag@1@@Z
	??$_Resize_reallocate@U_Value_init_tag@std@@@?$vector@MV?$allocator@M@std@@@std@@AEAAX_KAEBU_Value_init_tag@1@@Z
	??$_Resize_reallocate@U_Value_init_tag@std@@@?$vector@PEAVQAction@@V?$allocator@PEAVQAction@@@std@@@std@@AEAAX_KAEBU_Value_init_tag@1@@Z
	??$_Resize_reallocate@U_Value_init_tag@std@@@?$vector@U?$CurvatureDirOcfBaseType@M@face@vcg@@V?$allocator@U?$CurvatureDirOcfBaseType@M@face@vcg@@@std@@@std@@AEAAX_KAEBU_Value_init_tag@1@@Z
	??$_Resize_reallocate@U_Value_init_tag@std@@@?$vector@U?$CurvatureDirTypeOcf@M@vertex@vcg@@V?$allocator@U?$CurvatureDirTypeOcf@M@vertex@vcg@@@std@@@std@@AEAAX_KAEBU_Value_init_tag@1@@Z
	??$_Resize_reallocate@U_Value_init_tag@std@@@?$vector@U?$pair@FI@std@@V?$allocator@U?$pair@FI@std@@@2@@std@@AEAAX_KAEBU_Value_init_tag@1@@Z
	??$_Resize_reallocate@U_Value_init_tag@std@@@?$vector@UAdjTypePack@?$vector_ocf@VCFaceO@@@face@vcg@@V?$allocator@UAdjTypePack@?$vector_ocf@VCFaceO@@@face@vcg@@@std@@@std@@AEAAX_KAEBU_Value_init_tag@1@@Z
	??$_Resize_reallocate@U_Value_init_tag@std@@@?$vector@V?$Color4@E@vcg@@V?$allocator@V?$Color4@E@vcg@@@std@@@std@@AEAAX_KAEBU_Value_init_tag@1@@Z
	??$_Resize_reallocate@U_Value_init_tag@std@@@?$vector@V?$HEdge@V?$UsedTypes@UAsVertexType@?$Use@VCVertexO@@@vcg@@UAsEdgeType@?$Use@VCEdgeO@@@3@UAsFaceType@?$Use@VCFaceO@@@3@VDefaultDeriver@3@V83@V83@V83@V83@@vcg@@VDefaultDeriver@2@V32@V32@V32@V32@V32@V32@V32@V32@V32@V32@@vcg@@V?$allocator@V?$HEdge@V?$UsedTypes@UAsVertexType@?$Use@VCVertexO@@@vcg@@UAsEdgeType@?$Use@VCEdgeO@@@3@UAsFaceType@?$Use@VCFaceO@@@3@VDefaultDeriver@3@V83@V83@V83@V83@@vcg@@VDefaultDeriver@2@V32@V32@V32@V32@V32@V32@V32@V32@V32@V32@@vcg@@@std@@@std@@AEAAX_KAEBU_Value_init_tag@1@@Z
	??$_Resize_reallocate@U_Value_init_tag@std@@@?$vector@V?$Point2@M@vcg@@V?$allocator@V?$Point2@M@vcg@@@std@@@std@@AEAAX_KAEBU_Value_init_tag@1@@Z
	??$_Resize_reallocate@U_Value_init_tag@std@@@?$vector@V?$Point3@M@vcg@@V?$allocator@V?$Point3@M@vcg@@@std@@@std@@AEAAX_KAEBU_Value_init_tag@1@@Z
	??$_Resize_reallocate@U_Value_init_tag@std@@@?$vector@V?$TetraSimp@V?$UsedTypes@UAsVertexType@?$Use@VCVertexO@@@vcg@@UAsEdgeType@?$Use@VCEdgeO@@@3@UAsFaceType@?$Use@VCFaceO@@@3@VDefaultDeriver@3@V83@V83@V83@V83@@vcg@@VDefaultDeriver@2@V32@V32@V32@V32@V32@V32@V32@V32@V32@V32@V32@@vcg@@V?$allocator@V?$TetraSimp@V?$UsedTypes@UAsVertexType@?$Use@VCVertexO@@@vcg@@UAsEdgeType@?$Use@VCEdgeO@@@3@UAsFaceType@?$Use@VCFaceO@@@3@VDefaultDeriver@3@V83@V83@V83@V83@@vcg@@VDefaultDeriver@2@V32@V32@V32@V32@V32@V32@V32@V32@V32@V32@V32@@vcg@@@std@@@std@@AEAAX_KAEBU_Value_init_tag@1@@Z
	??$_Resize_reallocate@U_Value_init_tag@std@@@?$vector@V?$TexCoord2@M$00@vcg@@V?$allocator@V?$TexCoord2@M$00@vcg@@@std@@@std@@AEAAX_KAEBU_Value_init_tag@1@@Z
	??$_Resize_reallocate@U_Value_init_tag@std@@@?$vector@VCEdgeO@@V?$allocator@VCEdgeO@@@std@@@std@@AEAAX_KAEBU_Value_init_tag@1@@Z
	??$_Resize_reallocate@U_Value_init_tag@std@@@?$vector@VCFaceO@@V?$allocator@VCFaceO@@@std@@@std@@AEAAX_KAEBU_Value_init_tag@1@@Z
	??$_Resize_reallocate@U_Value_init_tag@std@@@?$vector@VCVertexO@@V?$allocator@VCVertexO@@@std@@@std@@AEAAX_KAEBU_Value_init_tag@1@@Z
	??$_Resize_reallocate@U_Value_init_tag@std@@@?$vector@VEdgeVertInd@?$NotThreadSafeGLMeshAttributesMultiViewerBOManager@VCMeshO@@PEAVQGLContext@@UMLPerViewGLOptions@@@vcg@@V?$allocator@VEdgeVertInd@?$NotThreadSafeGLMeshAttributesMultiViewerBOManager@VCMeshO@@PEAVQGLContext@@UMLPerViewGLOptions@@@vcg@@@std@@@std@@AEAAX_KAEBU_Value_init_tag@1@@Z
	??$_Resize_reallocate@U_Value_init_tag@std@@@?$vector@VPFace@vcg@@V?$allocator@VPFace@vcg@@@std@@@std@@AEAAX_KAEBU_Value_init_tag@1@@Z
	??$_Resize_reallocate@U_Value_init_tag@std@@@?$vector@VPVertex@vcg@@V?$allocator@VPVertex@vcg@@@std@@@std@@AEAAX_KAEBU_Value_init_tag@1@@Z
	??$_Resize_reallocate@U_Value_init_tag@std@@@?$vector@VWedgeColorTypePack@?$vector_ocf@VCFaceO@@@face@vcg@@V?$allocator@VWedgeColorTypePack@?$vector_ocf@VCFaceO@@@face@vcg@@@std@@@std@@AEAAX_KAEBU_Value_init_tag@1@@Z
	??$_Resize_reallocate@U_Value_init_tag@std@@@?$vector@VWedgeNormalTypePack@?$vector_ocf@VCFaceO@@@face@vcg@@V?$allocator@VWedgeNormalTypePack@?$vector_ocf@VCFaceO@@@face@vcg@@@std@@@std@@AEAAX_KAEBU_Value_init_tag@1@@Z
	??$_Resize_reallocate@V?$Color4@E@vcg@@@?$vector@V?$Color4@E@vcg@@V?$allocator@V?$Color4@E@vcg@@@std@@@std@@AEAAX_KAEBV?$Color4@E@vcg@@@Z
	??$_Resize_reallocate@VWedgeTexTypePack@?$vector_ocf@VCFaceO@@@face@vcg@@@?$vector@VWedgeTexTypePack@?$vector_ocf@VCFaceO@@@face@vcg@@V?$allocator@VWedgeTexTypePack@?$vector_ocf@VCFaceO@@@face@vcg@@@std@@@std@@AEAAX_KAEBVWedgeTexTypePack@?$vector_ocf@VCFaceO@@@face@vcg@@@Z
	??$_Resize_reallocate@_K@?$vector@_KV?$allocator@_K@std@@@std@@AEAAX_KAEB_K@Z
	??$_Seek_wrapped@PEAMAEAPEAM@std@@YAXAEAPEAM0@Z
	??$_Seek_wrapped@PEAMPEAM@std@@YAXAEAPEAM$$QEAPEAM@Z
	??$_Seek_wrapped@V?$_List_const_iterator@V?$_List_val@U?$_List_simple_types@VFunctionParameter@pymeshlab@@@std@@@std@@@std@@AEAV?$_List_unchecked_const_iterator@V?$_List_val@U?$_List_simple_types@VFunctionParameter@pymeshlab@@@std@@@std@@U_Iterator_base0@2@@2@@std@@YAXAEAV?$_List_const_iterator@V?$_List_val@U?$_List_simple_types@VFunctionParameter@pymeshlab@@@std@@@std@@@0@AEAV?$_List_unchecked_const_iterator@V?$_List_val@U?$_List_simple_types@VFunctionParameter@pymeshlab@@@std@@@std@@U_Iterator_base0@2@@0@@Z
	??$_Seek_wrapped@V?$_List_iterator@V?$_List_val@U?$_List_simple_types@PEAVQAction@@@std@@@std@@@std@@V?$_List_unchecked_iterator@V?$_List_val@U?$_List_simple_types@PEAVQAction@@@std@@@std@@@2@@std@@YAXAEAV?$_List_iterator@V?$_List_val@U?$_List_simple_types@PEAVQAction@@@std@@@std@@@0@$$QEAV?$_List_unchecked_iterator@V?$_List_val@U?$_List_simple_types@PEAVQAction@@@std@@@std@@@0@@Z
	??$_Seek_wrapped@V?$_Vb_iterator@U?$_Wrap_alloc@V?$allocator@I@std@@@std@@@std@@V12@@std@@YAXAEAV?$_Vb_iterator@U?$_Wrap_alloc@V?$allocator@I@std@@@std@@@0@$$QEAV10@@Z
	??$_Seek_wrapped@V?$_Vector_iterator@V?$_Vector_val@U?$_Simple_types@I@std@@@std@@@std@@PEAI@std@@YAXAEAV?$_Vector_iterator@V?$_Vector_val@U?$_Simple_types@I@std@@@std@@@0@$$QEAPEAI@Z
	??$_Seek_wrapped@V?$_Vector_iterator@V?$_Vector_val@U?$_Simple_types@PEAVDecoratePlugin@@@std@@@std@@@std@@PEAPEAVDecoratePlugin@@@std@@YAXAEAV?$_Vector_iterator@V?$_Vector_val@U?$_Simple_types@PEAVDecoratePlugin@@@std@@@std@@@0@$$QEAPEAPEAVDecoratePlugin@@@Z
	??$_Seek_wrapped@V?$_Vector_iterator@V?$_Vector_val@U?$_Simple_types@PEAVEditPlugin@@@std@@@std@@@std@@PEAPEAVEditPlugin@@@std@@YAXAEAV?$_Vector_iterator@V?$_Vector_val@U?$_Simple_types@PEAVEditPlugin@@@std@@@std@@@0@$$QEAPEAPEAVEditPlugin@@@Z
	??$_Seek_wrapped@V?$_Vector_iterator@V?$_Vector_val@U?$_Simple_types@PEAVFilterPlugin@@@std@@@std@@@std@@PEAPEAVFilterPlugin@@@std@@YAXAEAV?$_Vector_iterator@V?$_Vector_val@U?$_Simple_types@PEAVFilterPlugin@@@std@@@std@@@0@$$QEAPEAPEAVFilterPlugin@@@Z
	??$_Seek_wrapped@V?$_Vector_iterator@V?$_Vector_val@U?$_Simple_types@PEAVIOPlugin@@@std@@@std@@@std@@PEAPEAVIOPlugin@@@std@@YAXAEAV?$_Vector_iterator@V?$_Vector_val@U?$_Simple_types@PEAVIOPlugin@@@std@@@std@@@0@$$QEAPEAPEAVIOPlugin@@@Z
	??$_Seek_wrapped@V?$_Vector_iterator@V?$_Vector_val@U?$_Simple_types@PEAVMeshLabPlugin@@@std@@@std@@@std@@PEAPEAVMeshLabPlugin@@@std@@YAXAEAV?$_Vector_iterator@V?$_Vector_val@U?$_Simple_types@PEAVMeshLabPlugin@@@std@@@std@@@0@$$QEAPEAPEAVMeshLabPlugin@@@Z
	??$_Seek_wrapped@V?$_Vector_iterator@V?$_Vector_val@U?$_Simple_types@PEAVRenderPlugin@@@std@@@std@@@std@@PEAPEAVRenderPlugin@@@std@@YAXAEAV?$_Vector_iterator@V?$_Vector_val@U?$_Simple_types@PEAVRenderPlugin@@@std@@@std@@@0@$$QEAPEAPEAVRenderPlugin@@@Z
	??$_Seek_wrapped@V?$_Vector_iterator@V?$_Vector_val@U?$_Simple_types@V?$basic_string@DU?$char_traits@D@std@@V?$allocator@D@2@@std@@@std@@@std@@@std@@PEAV?$basic_string@DU?$char_traits@D@std@@V?$allocator@D@2@@2@@std@@YAXAEAV?$_Vector_iterator@V?$_Vector_val@U?$_Simple_types@V?$basic_string@DU?$char_traits@D@std@@V?$allocator@D@2@@std@@@std@@@std@@@0@$$QEAPEAV?$basic_string@DU?$char_traits@D@std@@V?$allocator@D@2@@0@@Z
	??$_Seek_wrapped@V?$_Vector_iterator@V?$_Vector_val@U?$_Simple_types@VEdgeVertInd@?$NotThreadSafeGLMeshAttributesMultiViewerBOManager@VCMeshO@@PEAVQGLContext@@UMLPerViewGLOptions@@@vcg@@@std@@@std@@@std@@AEAPEAVEdgeVertInd@?$NotThreadSafeGLMeshAttributesMultiViewerBOManager@VCMeshO@@PEAVQGLContext@@UMLPerViewGLOptions@@@vcg@@@std@@YAXAEAV?$_Vector_iterator@V?$_Vector_val@U?$_Simple_types@VEdgeVertInd@?$NotThreadSafeGLMeshAttributesMultiViewerBOManager@VCMeshO@@PEAVQGLContext@@UMLPerViewGLOptions@@@vcg@@@std@@@std@@@0@AEAPEAVEdgeVertInd@?$NotThreadSafeGLMeshAttributesMultiViewerBOManager@VCMeshO@@PEAVQGLContext@@UMLPerViewGLOptions@@@vcg@@@Z
	??$_Seek_wrapped@V?$_Vector_iterator@V?$_Vector_val@U?$_Simple_types@VEdgeVertInd@?$NotThreadSafeGLMeshAttributesMultiViewerBOManager@VCMeshO@@PEAVQGLContext@@UMLPerViewGLOptions@@@vcg@@@std@@@std@@@std@@AEBQEAVEdgeVertInd@?$NotThreadSafeGLMeshAttributesMultiViewerBOManager@VCMeshO@@PEAVQGLContext@@UMLPerViewGLOptions@@@vcg@@@std@@YAXAEAV?$_Vector_iterator@V?$_Vector_val@U?$_Simple_types@VEdgeVertInd@?$NotThreadSafeGLMeshAttributesMultiViewerBOManager@VCMeshO@@PEAVQGLContext@@UMLPerViewGLOptions@@@vcg@@@std@@@std@@@0@AEBQEAVEdgeVertInd@?$NotThreadSafeGLMeshAttributesMultiViewerBOManager@VCMeshO@@PEAVQGLContext@@UMLPerViewGLOptions@@@vcg@@@Z
	??$_Seek_wrapped@V?$back_insert_iterator@V?$QList@VQString@@@@@std@@V12@@std@@YAXAEAV?$back_insert_iterator@V?$QList@VQString@@@@@0@$$QEAV10@@Z
	??$_Sort_heap_unchecked@PEAPEAVQAction@@UActionComparator@ActionSearcher@@@std@@YAXPEAPEAVQAction@@0UActionComparator@ActionSearcher@@@Z
	??$_Sort_heap_unchecked@PEAVEdgeVertInd@?$NotThreadSafeGLMeshAttributesMultiViewerBOManager@VCMeshO@@PEAVQGLContext@@UMLPerViewGLOptions@@@vcg@@U?$less@X@std@@@std@@YAXPEAVEdgeVertInd@?$NotThreadSafeGLMeshAttributesMultiViewerBOManager@VCMeshO@@PEAVQGLContext@@UMLPerViewGLOptions@@@vcg@@0U?$less@X@0@@Z
	??$_Sort_heap_unchecked@PEAVPEdge@?$UpdateTopology@VCMeshO@@@tri@vcg@@U?$less@X@std@@@std@@YAXPEAVPEdge@?$UpdateTopology@VCMeshO@@@tri@vcg@@0U?$less@X@0@@Z
	??$_Sort_unchecked@PEAPEAVQAction@@UActionComparator@ActionSearcher@@@std@@YAXPEAPEAVQAction@@0_JUActionComparator@ActionSearcher@@@Z
	??$_Sort_unchecked@PEAVEdgeVertInd@?$NotThreadSafeGLMeshAttributesMultiViewerBOManager@VCMeshO@@PEAVQGLContext@@UMLPerViewGLOptions@@@vcg@@U?$less@X@std@@@std@@YAXPEAVEdgeVertInd@?$NotThreadSafeGLMeshAttributesMultiViewerBOManager@VCMeshO@@PEAVQGLContext@@UMLPerViewGLOptions@@@vcg@@0_JU?$less@X@0@@Z
	??$_Sort_unchecked@PEAVPEdge@?$UpdateTopology@VCMeshO@@@tri@vcg@@U?$less@X@std@@@std@@YAXPEAVPEdge@?$UpdateTopology@VCMeshO@@@tri@vcg@@0_JU?$less@X@0@@Z
	??$_Swap_adl@PEAU?$_List_node@PEAVMeshModel@@PEAX@std@@@std@@YAXAEAPEAU?$_List_node@PEAVMeshModel@@PEAX@0@0@Z
	??$_Swap_adl@PEAU?$_List_node@PEAVRichParameter@@PEAX@std@@@std@@YAXAEAPEAU?$_List_node@PEAVRichParameter@@PEAX@0@0@Z
	??$_Swap_adl@PEAU?$_List_node@V?$Matrix@I$0?0$00$0A@$0?0$00@Eigen@@PEAX@std@@@std@@YAXAEAPEAU?$_List_node@V?$Matrix@I$0?0$00$0A@$0?0$00@Eigen@@PEAX@0@0@Z
	??$_Swap_adl@PEAU?$_List_node@V?$basic_string@DU?$char_traits@D@std@@V?$allocator@D@2@@std@@PEAX@std@@@std@@YAXAEAPEAU?$_List_node@V?$basic_string@DU?$char_traits@D@std@@V?$allocator@D@2@@std@@PEAX@0@0@Z
	??$_Swap_adl@PEAU?$_Tree_node@VPointerToAttribute@vcg@@PEAX@std@@@std@@YAXAEAPEAU?$_Tree_node@VPointerToAttribute@vcg@@PEAX@0@0@Z
	??$_Swap_adl@PEAV?$HEdge@V?$UsedTypes@UAsVertexType@?$Use@VCVertexO@@@vcg@@UAsEdgeType@?$Use@VCEdgeO@@@3@UAsFaceType@?$Use@VCFaceO@@@3@VDefaultDeriver@3@V83@V83@V83@V83@@vcg@@VDefaultDeriver@2@V32@V32@V32@V32@V32@V32@V32@V32@V32@V32@@vcg@@@std@@YAXAEAPEAV?$HEdge@V?$UsedTypes@UAsVertexType@?$Use@VCVertexO@@@vcg@@UAsEdgeType@?$Use@VCEdgeO@@@3@UAsFaceType@?$Use@VCFaceO@@@3@VDefaultDeriver@3@V83@V83@V83@V83@@vcg@@VDefaultDeriver@2@V32@V32@V32@V32@V32@V32@V32@V32@V32@V32@@vcg@@0@Z
	??$_Swap_adl@PEAV?$TetraSimp@V?$UsedTypes@UAsVertexType@?$Use@VCVertexO@@@vcg@@UAsEdgeType@?$Use@VCEdgeO@@@3@UAsFaceType@?$Use@VCFaceO@@@3@VDefaultDeriver@3@V83@V83@V83@V83@@vcg@@VDefaultDeriver@2@V32@V32@V32@V32@V32@V32@V32@V32@V32@V32@V32@@vcg@@@std@@YAXAEAPEAV?$TetraSimp@V?$UsedTypes@UAsVertexType@?$Use@VCVertexO@@@vcg@@UAsEdgeType@?$Use@VCEdgeO@@@3@UAsFaceType@?$Use@VCFaceO@@@3@VDefaultDeriver@3@V83@V83@V83@V83@@vcg@@VDefaultDeriver@2@V32@V32@V32@V32@V32@V32@V32@V32@V32@V32@V32@@vcg@@0@Z
	??$_Swap_adl@PEAV?$basic_string@DU?$char_traits@D@std@@V?$allocator@D@2@@std@@@std@@YAXAEAPEAV?$basic_string@DU?$char_traits@D@std@@V?$allocator@D@2@@0@0@Z
	??$_Swap_adl@PEAVCEdgeO@@@std@@YAXAEAPEAVCEdgeO@@0@Z
	??$_Swap_adl@U?$less@VPointerToAttribute@vcg@@@std@@@std@@YAXAEAU?$less@VPointerToAttribute@vcg@@@0@0@Z
	??$_To_address@PEAH@std@@YA?A_PAEBQEAH@Z
	??$_To_address@PEAI@std@@YA?A_PAEBQEAI@Z
	??$_To_address@PEAM@std@@YA?A_PAEBQEAM@Z
	??$_To_address@PEAPEAUGLBufferObject@?$NotThreadSafeGLMeshAttributesMultiViewerBOManager@VCMeshO@@PEAVQGLContext@@UMLPerViewGLOptions@@@vcg@@@std@@YA?A_PAEBQEAPEAUGLBufferObject@?$NotThreadSafeGLMeshAttributesMultiViewerBOManager@VCMeshO@@PEAVQGLContext@@UMLPerViewGLOptions@@@vcg@@@Z
	??$_To_address@PEAPEAVCFaceO@@@std@@YA?A_PAEBQEAPEAVCFaceO@@@Z
	??$_To_address@PEAPEAVCVertexO@@@std@@YA?A_PAEBQEAPEAVCVertexO@@@Z
	??$_To_address@PEAPEAVDecoratePlugin@@@std@@YA?A_PAEBQEAPEAVDecoratePlugin@@@Z
	??$_To_address@PEAPEAVEditPlugin@@@std@@YA?A_PAEBQEAPEAVEditPlugin@@@Z
	??$_To_address@PEAPEAVFilterPlugin@@@std@@YA?A_PAEBQEAPEAVFilterPlugin@@@Z
	??$_To_address@PEAPEAVIOPlugin@@@std@@YA?A_PAEBQEAPEAVIOPlugin@@@Z
	??$_To_address@PEAPEAVMeshLabPlugin@@@std@@YA?A_PAEBQEAPEAVMeshLabPlugin@@@Z
	??$_To_address@PEAPEAVPVertex@vcg@@@std@@YA?A_PAEBQEAPEAVPVertex@vcg@@@Z
	??$_To_address@PEAPEAVQAction@@@std@@YA?A_PAEBQEAPEAVQAction@@@Z
	??$_To_address@PEAPEAVQPluginLoader@@@std@@YA?A_PAEBQEAPEAVQPluginLoader@@@Z
	??$_To_address@PEAPEAVRenderPlugin@@@std@@YA?A_PAEBQEAPEAVRenderPlugin@@@Z
	??$_To_address@PEAV?$HEdge@V?$UsedTypes@UAsVertexType@?$Use@VCVertexO@@@vcg@@UAsEdgeType@?$Use@VCEdgeO@@@3@UAsFaceType@?$Use@VCFaceO@@@3@VDefaultDeriver@3@V83@V83@V83@V83@@vcg@@VDefaultDeriver@2@V32@V32@V32@V32@V32@V32@V32@V32@V32@V32@@vcg@@@std@@YA?A_PAEBQEAV?$HEdge@V?$UsedTypes@UAsVertexType@?$Use@VCVertexO@@@vcg@@UAsEdgeType@?$Use@VCEdgeO@@@3@UAsFaceType@?$Use@VCFaceO@@@3@VDefaultDeriver@3@V83@V83@V83@V83@@vcg@@VDefaultDeriver@2@V32@V32@V32@V32@V32@V32@V32@V32@V32@V32@@vcg@@@Z
	??$_To_address@PEAV?$TetraSimp@V?$UsedTypes@UAsVertexType@?$Use@VCVertexO@@@vcg@@UAsEdgeType@?$Use@VCEdgeO@@@3@UAsFaceType@?$Use@VCFaceO@@@3@VDefaultDeriver@3@V83@V83@V83@V83@@vcg@@VDefaultDeriver@2@V32@V32@V32@V32@V32@V32@V32@V32@V32@V32@V32@@vcg@@@std@@YA?A_PAEBQEAV?$TetraSimp@V?$UsedTypes@UAsVertexType@?$Use@VCVertexO@@@vcg@@UAsEdgeType@?$Use@VCEdgeO@@@3@UAsFaceType@?$Use@VCFaceO@@@3@VDefaultDeriver@3@V83@V83@V83@V83@@vcg@@VDefaultDeriver@2@V32@V32@V32@V32@V32@V32@V32@V32@V32@V32@V32@@vcg@@@Z
	??$_To_address@PEAVEdgeVertInd@?$NotThreadSafeGLMeshAttributesMultiViewerBOManager@VCMeshO@@PEAVQGLContext@@UMLPerViewGLOptions@@@vcg@@@std@@YA?A_PAEBQEAVEdgeVertInd@?$NotThreadSafeGLMeshAttributesMultiViewerBOManager@VCMeshO@@PEAVQGLContext@@UMLPerViewGLOptions@@@vcg@@@Z
	??$_To_address@PEAVPEdge@?$UpdateTopology@VCMeshO@@@tri@vcg@@@std@@YA?A_PAEBQEAVPEdge@?$UpdateTopology@VCMeshO@@@tri@vcg@@@Z
	??$_To_address@PEA_K@std@@YA?A_PAEBQEA_K@Z
	??$_Traits_compare@U?$char_traits@D@std@@@std@@YAHQEBD_K01@Z
	??$_Traits_equal@U?$char_traits@D@std@@@std@@YA_NQEBD_K01@Z
	??$_Try_emplace@AEBF$$V@?$map@FV?$vector@U?$pair@II@std@@V?$allocator@U?$pair@II@std@@@2@@std@@U?$less@F@2@V?$allocator@U?$pair@$$CBFV?$vector@U?$pair@II@std@@V?$allocator@U?$pair@II@std@@@2@@std@@@std@@@2@@std@@AEAA?AU?$pair@PEAU?$_Tree_node@U?$pair@$$CBFV?$vector@U?$pair@II@std@@V?$allocator@U?$pair@II@std@@@2@@std@@@std@@PEAX@std@@_N@1@AEBF@Z
	??$_Try_emplace@AEBH$$V@?$map@HPEAV?$QtThreadSafeGLMeshAttributesMultiViewerBOManager@VCMeshO@@PEAVQGLContext@@UMLPerViewGLOptions@@@vcg@@U?$less@H@std@@V?$allocator@U?$pair@$$CBHPEAV?$QtThreadSafeGLMeshAttributesMultiViewerBOManager@VCMeshO@@PEAVQGLContext@@UMLPerViewGLOptions@@@vcg@@@std@@@4@@std@@AEAA?AU?$pair@PEAU?$_Tree_node@U?$pair@$$CBHPEAV?$QtThreadSafeGLMeshAttributesMultiViewerBOManager@VCMeshO@@PEAVQGLContext@@UMLPerViewGLOptions@@@vcg@@@std@@PEAX@std@@_N@1@AEBH@Z
	??$_Try_emplace@AEBM$$V@?$map@MV?$vector@PEAVQAction@@V?$allocator@PEAVQAction@@@std@@@std@@U?$less@M@2@V?$allocator@U?$pair@$$CBMV?$vector@PEAVQAction@@V?$allocator@PEAVQAction@@@std@@@std@@@std@@@2@@std@@AEAA?AU?$pair@PEAU?$_Tree_node@U?$pair@$$CBMV?$vector@PEAVQAction@@V?$allocator@PEAVQAction@@@std@@@std@@@std@@PEAX@std@@_N@1@AEBM@Z
	??$_Try_emplace@AEBQEAVQAction@@$$V@?$map@PEAVQAction@@MU?$less@PEAVQAction@@@std@@V?$allocator@U?$pair@QEAVQAction@@M@std@@@3@@std@@AEAA?AU?$pair@PEAU?$_Tree_node@U?$pair@QEAVQAction@@M@std@@PEAX@std@@_N@1@AEBQEAVQAction@@@Z
	??$_Try_emplace@AEBQEAVQGLContext@@$$V@?$map@PEAVQGLContext@@V?$PerViewData@UMLPerViewGLOptions@@@vcg@@U?$less@PEAVQGLContext@@@std@@V?$allocator@U?$pair@QEAVQGLContext@@V?$PerViewData@UMLPerViewGLOptions@@@vcg@@@std@@@5@@std@@AEAA?AU?$pair@PEAU?$_Tree_node@U?$pair@QEAVQGLContext@@V?$PerViewData@UMLPerViewGLOptions@@@vcg@@@std@@PEAX@std@@_N@1@AEBQEAVQGLContext@@@Z
	??$_Try_emplace@AEBV?$basic_string@DU?$char_traits@D@std@@V?$allocator@D@2@@std@@$$V@?$map@V?$basic_string@DU?$char_traits@D@std@@V?$allocator@D@2@@std@@VQImage@@U?$less@V?$basic_string@DU?$char_traits@D@std@@V?$allocator@D@2@@std@@@2@V?$allocator@U?$pair@$$CBV?$basic_string@DU?$char_traits@D@std@@V?$allocator@D@2@@std@@VQImage@@@std@@@2@@std@@AEAA?AU?$pair@PEAU?$_Tree_node@U?$pair@$$CBV?$basic_string@DU?$char_traits@D@std@@V?$allocator@D@2@@std@@VQImage@@@std@@PEAX@std@@_N@1@AEBV?$basic_string@DU?$char_traits@D@std@@V?$allocator@D@2@@1@@Z
	??$_Try_emplace@AEBVQString@@$$V@?$map@VQString@@V?$vector@PEAVQAction@@V?$allocator@PEAVQAction@@@std@@@std@@U?$less@VQString@@@3@V?$allocator@U?$pair@$$CBVQString@@V?$vector@PEAVQAction@@V?$allocator@PEAVQAction@@@std@@@std@@@std@@@3@@std@@AEAA?AU?$pair@PEAU?$_Tree_node@U?$pair@$$CBVQString@@V?$vector@PEAVQAction@@V?$allocator@PEAVQAction@@@std@@@std@@@std@@PEAX@std@@_N@1@AEBVQString@@@Z
	??$_Try_emplace@F$$V@?$map@FV?$vector@U?$pair@II@std@@V?$allocator@U?$pair@II@std@@@2@@std@@U?$less@F@2@V?$allocator@U?$pair@$$CBFV?$vector@U?$pair@II@std@@V?$allocator@U?$pair@II@std@@@2@@std@@@std@@@2@@std@@AEAA?AU?$pair@PEAU?$_Tree_node@U?$pair@$$CBFV?$vector@U?$pair@II@std@@V?$allocator@U?$pair@II@std@@@2@@std@@@std@@PEAX@std@@_N@1@$$QEAF@Z
	??$_Tuple_get@$0A@$$QEAF@std@@YA$$QEA_P$$QEAV?$tuple@$$QEAF@0@@Z
	??$_Tuple_get@$0A@AEBF@std@@YA$$QEA_P$$QEAV?$tuple@AEBF@0@@Z
	??$_Tuple_get@$0A@AEBH@std@@YA$$QEA_P$$QEAV?$tuple@AEBH@0@@Z
	??$_Tuple_get@$0A@AEBM@std@@YA$$QEA_P$$QEAV?$tuple@AEBM@0@@Z
	??$_Tuple_get@$0A@AEBQEAVQAction@@@std@@YA$$QEA_P$$QEAV?$tuple@AEBQEAVQAction@@@0@@Z
	??$_Tuple_get@$0A@AEBQEAVQGLContext@@@std@@YA$$QEA_P$$QEAV?$tuple@AEBQEAVQGLContext@@@0@@Z
	??$_Tuple_get@$0A@AEBV?$basic_string@DU?$char_traits@D@std@@V?$allocator@D@2@@std@@@std@@YA$$QEA_P$$QEAV?$tuple@AEBV?$basic_string@DU?$char_traits@D@std@@V?$allocator@D@2@@std@@@0@@Z
	??$_Tuple_get@$0A@AEBVQString@@@std@@YA$$QEA_P$$QEAV?$tuple@AEBVQString@@@0@@Z
	??$_UIntegral_to_buff@DI@std@@YAPEADPEADI@Z
	??$_Ucopy@PEAPEAVQAction@@@?$vector@PEAVQAction@@V?$allocator@PEAVQAction@@@std@@@std@@AEAAPEAPEAVQAction@@PEAPEAV2@00@Z
	??$_Ucopy@PEAV?$basic_string@DU?$char_traits@D@std@@V?$allocator@D@2@@std@@@?$vector@V?$basic_string@DU?$char_traits@D@std@@V?$allocator@D@2@@std@@V?$allocator@V?$basic_string@DU?$char_traits@D@std@@V?$allocator@D@2@@std@@@2@@std@@AEAAPEAV?$basic_string@DU?$char_traits@D@std@@V?$allocator@D@2@@1@PEAV21@00@Z
	??$_Ucopy@PEAVInternalRendAtts@GLMeshAttributesInfo@vcg@@@?$vector@VInternalRendAtts@GLMeshAttributesInfo@vcg@@V?$allocator@VInternalRendAtts@GLMeshAttributesInfo@vcg@@@std@@@std@@AEAAPEAVInternalRendAtts@GLMeshAttributesInfo@vcg@@PEAV234@00@Z
	??$_Unfancy@D@std@@YAPEADPEAD@Z
	??$_Unfancy@H@std@@YAPEAHPEAH@Z
	??$_Unfancy@I@std@@YAPEAIPEAI@Z
	??$_Unfancy@M@std@@YAPEAMPEAM@Z
	??$_Unfancy@PEAUGLBufferObject@?$NotThreadSafeGLMeshAttributesMultiViewerBOManager@VCMeshO@@PEAVQGLContext@@UMLPerViewGLOptions@@@vcg@@@std@@YAPEAPEAUGLBufferObject@?$NotThreadSafeGLMeshAttributesMultiViewerBOManager@VCMeshO@@PEAVQGLContext@@UMLPerViewGLOptions@@@vcg@@PEAPEAU123@@Z
	??$_Unfancy@PEAVCFaceO@@@std@@YAPEAPEAVCFaceO@@PEAPEAV1@@Z
	??$_Unfancy@PEAVCVertexO@@@std@@YAPEAPEAVCVertexO@@PEAPEAV1@@Z
	??$_Unfancy@PEAVDecoratePlugin@@@std@@YAPEAPEAVDecoratePlugin@@PEAPEAV1@@Z
	??$_Unfancy@PEAVEditPlugin@@@std@@YAPEAPEAVEditPlugin@@PEAPEAV1@@Z
	??$_Unfancy@PEAVFilterPlugin@@@std@@YAPEAPEAVFilterPlugin@@PEAPEAV1@@Z
	??$_Unfancy@PEAVIOPlugin@@@std@@YAPEAPEAVIOPlugin@@PEAPEAV1@@Z
	??$_Unfancy@PEAVMeshLabPlugin@@@std@@YAPEAPEAVMeshLabPlugin@@PEAPEAV1@@Z
	??$_Unfancy@PEAVPVertex@vcg@@@std@@YAPEAPEAVPVertex@vcg@@PEAPEAV12@@Z
	??$_Unfancy@PEAVQAction@@@std@@YAPEAPEAVQAction@@PEAPEAV1@@Z
	??$_Unfancy@PEAVQPluginLoader@@@std@@YAPEAPEAVQPluginLoader@@PEAPEAV1@@Z
	??$_Unfancy@PEAVRenderPlugin@@@std@@YAPEAPEAVRenderPlugin@@PEAPEAV1@@Z
	??$_Unfancy@U?$CurvatureDirOcfBaseType@M@face@vcg@@@std@@YAPEAU?$CurvatureDirOcfBaseType@M@face@vcg@@PEAU123@@Z
	??$_Unfancy@U?$CurvatureDirTypeOcf@M@vertex@vcg@@@std@@YAPEAU?$CurvatureDirTypeOcf@M@vertex@vcg@@PEAU123@@Z
	??$_Unfancy@U?$pair@FI@std@@@std@@YAPEAU?$pair@FI@0@PEAU10@@Z
	??$_Unfancy@U?$pair@II@std@@@std@@YAPEAU?$pair@II@0@PEAU10@@Z
	??$_Unfancy@UAdjTypePack@?$vector_ocf@VCFaceO@@@face@vcg@@@std@@YAPEAUAdjTypePack@?$vector_ocf@VCFaceO@@@face@vcg@@PEAU1234@@Z
	??$_Unfancy@UVFAdjType@?$vector_ocf@VCVertexO@@@vertex@vcg@@@std@@YAPEAUVFAdjType@?$vector_ocf@VCVertexO@@@vertex@vcg@@PEAU1234@@Z
	??$_Unfancy@U_Container_proxy@std@@@std@@YAPEAU_Container_proxy@0@PEAU10@@Z
	??$_Unfancy@V?$Color4@E@vcg@@@std@@YAPEAV?$Color4@E@vcg@@PEAV12@@Z
	??$_Unfancy@V?$HEdge@V?$UsedTypes@UAsVertexType@?$Use@VCVertexO@@@vcg@@UAsEdgeType@?$Use@VCEdgeO@@@3@UAsFaceType@?$Use@VCFaceO@@@3@VDefaultDeriver@3@V83@V83@V83@V83@@vcg@@VDefaultDeriver@2@V32@V32@V32@V32@V32@V32@V32@V32@V32@V32@@vcg@@@std@@YAPEAV?$HEdge@V?$UsedTypes@UAsVertexType@?$Use@VCVertexO@@@vcg@@UAsEdgeType@?$Use@VCEdgeO@@@3@UAsFaceType@?$Use@VCFaceO@@@3@VDefaultDeriver@3@V83@V83@V83@V83@@vcg@@VDefaultDeriver@2@V32@V32@V32@V32@V32@V32@V32@V32@V32@V32@@vcg@@PEAV12@@Z
	??$_Unfancy@V?$Point2@M@vcg@@@std@@YAPEAV?$Point2@M@vcg@@PEAV12@@Z
	??$_Unfancy@V?$Point3@M@vcg@@@std@@YAPEAV?$Point3@M@vcg@@PEAV12@@Z
	??$_Unfancy@V?$TetraSimp@V?$UsedTypes@UAsVertexType@?$Use@VCVertexO@@@vcg@@UAsEdgeType@?$Use@VCEdgeO@@@3@UAsFaceType@?$Use@VCFaceO@@@3@VDefaultDeriver@3@V83@V83@V83@V83@@vcg@@VDefaultDeriver@2@V32@V32@V32@V32@V32@V32@V32@V32@V32@V32@V32@@vcg@@@std@@YAPEAV?$TetraSimp@V?$UsedTypes@UAsVertexType@?$Use@VCVertexO@@@vcg@@UAsEdgeType@?$Use@VCEdgeO@@@3@UAsFaceType@?$Use@VCFaceO@@@3@VDefaultDeriver@3@V83@V83@V83@V83@@vcg@@VDefaultDeriver@2@V32@V32@V32@V32@V32@V32@V32@V32@V32@V32@V32@@vcg@@PEAV12@@Z
	??$_Unfancy@V?$TexCoord2@M$00@vcg@@@std@@YAPEAV?$TexCoord2@M$00@vcg@@PEAV12@@Z
	??$_Unfancy@V?$basic_string@DU?$char_traits@D@std@@V?$allocator@D@2@@std@@@std@@YAPEAV?$basic_string@DU?$char_traits@D@std@@V?$allocator@D@2@@0@PEAV10@@Z
	??$_Unfancy@V?$vector@IV?$allocator@I@std@@@std@@@std@@YAPEAV?$vector@IV?$allocator@I@std@@@0@PEAV10@@Z
	??$_Unfancy@VCEdgeO@@@std@@YAPEAVCEdgeO@@PEAV1@@Z
	??$_Unfancy@VCFaceO@@@std@@YAPEAVCFaceO@@PEAV1@@Z
	??$_Unfancy@VCVertexO@@@std@@YAPEAVCVertexO@@PEAV1@@Z
	??$_Unfancy@VEdgeVertInd@?$NotThreadSafeGLMeshAttributesMultiViewerBOManager@VCMeshO@@PEAVQGLContext@@UMLPerViewGLOptions@@@vcg@@@std@@YAPEAVEdgeVertInd@?$NotThreadSafeGLMeshAttributesMultiViewerBOManager@VCMeshO@@PEAVQGLContext@@UMLPerViewGLOptions@@@vcg@@PEAV123@@Z
	??$_Unfancy@VInternalRendAtts@GLMeshAttributesInfo@vcg@@@std@@YAPEAVInternalRendAtts@GLMeshAttributesInfo@vcg@@PEAV123@@Z
	??$_Unfancy@VMLRenderingData@@@std@@YAPEAVMLRenderingData@@PEAV1@@Z
	??$_Unfancy@VPEdge@?$UpdateTopology@VCMeshO@@@tri@vcg@@@std@@YAPEAVPEdge@?$UpdateTopology@VCMeshO@@@tri@vcg@@PEAV1234@@Z
	??$_Unfancy@VPFace@vcg@@@std@@YAPEAVPFace@vcg@@PEAV12@@Z
	??$_Unfancy@VPVertex@vcg@@@std@@YAPEAVPVertex@vcg@@PEAV12@@Z
	??$_Unfancy@VWedgeColorTypePack@?$vector_ocf@VCFaceO@@@face@vcg@@@std@@YAPEAVWedgeColorTypePack@?$vector_ocf@VCFaceO@@@face@vcg@@PEAV1234@@Z
	??$_Unfancy@VWedgeNormalTypePack@?$vector_ocf@VCFaceO@@@face@vcg@@@std@@YAPEAVWedgeNormalTypePack@?$vector_ocf@VCFaceO@@@face@vcg@@PEAV1234@@Z
	??$_Unfancy@VWedgeTexTypePack@?$vector_ocf@VCFaceO@@@face@vcg@@@std@@YAPEAVWedgeTexTypePack@?$vector_ocf@VCFaceO@@@face@vcg@@PEAV1234@@Z
	??$_Unfancy@_K@std@@YAPEA_KPEA_K@Z
	??$_Unfancy_maybe_null@I@std@@YAPEAIPEAI@Z
	??$_Unfancy_maybe_null@M@std@@YAPEAMPEAM@Z
	??$_Unfancy_maybe_null@V?$Point3@M@vcg@@@std@@YAPEAV?$Point3@M@vcg@@PEAV12@@Z
	??$_Uninitialized_copy@PEAPEAVQAction@@V?$allocator@PEAVQAction@@@std@@@std@@YAPEAPEAVQAction@@QEAPEAV1@0PEAPEAV1@AEAV?$allocator@PEAVQAction@@@0@@Z
	??$_Uninitialized_copy@PEAV?$basic_string@DU?$char_traits@D@std@@V?$allocator@D@2@@std@@V?$allocator@V?$basic_string@DU?$char_traits@D@std@@V?$allocator@D@2@@std@@@2@@std@@YAPEAV?$basic_string@DU?$char_traits@D@std@@V?$allocator@D@2@@0@QEAV10@0PEAV10@AEAV?$allocator@V?$basic_string@DU?$char_traits@D@std@@V?$allocator@D@2@@std@@@0@@Z
	??$_Uninitialized_copy@PEAVInternalRendAtts@GLMeshAttributesInfo@vcg@@V?$allocator@VInternalRendAtts@GLMeshAttributesInfo@vcg@@@std@@@std@@YAPEAVInternalRendAtts@GLMeshAttributesInfo@vcg@@QEAV123@0PEAV123@AEAV?$allocator@VInternalRendAtts@GLMeshAttributesInfo@vcg@@@0@@Z
	??$_Uninitialized_fill_n@V?$allocator@H@std@@@std@@YAPEAHPEAH_KAEBHAEAV?$allocator@H@0@@Z
	??$_Uninitialized_fill_n@V?$allocator@I@std@@@std@@YAPEAIPEAI_KAEBIAEAV?$allocator@I@0@@Z
	??$_Uninitialized_fill_n@V?$allocator@M@std@@@std@@YAPEAMPEAM_KAEBMAEAV?$allocator@M@0@@Z
	??$_Uninitialized_fill_n@V?$allocator@PEAUGLBufferObject@?$NotThreadSafeGLMeshAttributesMultiViewerBOManager@VCMeshO@@PEAVQGLContext@@UMLPerViewGLOptions@@@vcg@@@std@@@std@@YAPEAPEAUGLBufferObject@?$NotThreadSafeGLMeshAttributesMultiViewerBOManager@VCMeshO@@PEAVQGLContext@@UMLPerViewGLOptions@@@vcg@@PEAPEAU123@_KAEBQEAU123@AEAV?$allocator@PEAUGLBufferObject@?$NotThreadSafeGLMeshAttributesMultiViewerBOManager@VCMeshO@@PEAVQGLContext@@UMLPerViewGLOptions@@@vcg@@@0@@Z
	??$_Uninitialized_fill_n@V?$allocator@UVFAdjType@?$vector_ocf@VCVertexO@@@vertex@vcg@@@std@@@std@@YAPEAUVFAdjType@?$vector_ocf@VCVertexO@@@vertex@vcg@@PEAU1234@_KAEBU1234@AEAV?$allocator@UVFAdjType@?$vector_ocf@VCVertexO@@@vertex@vcg@@@0@@Z
	??$_Uninitialized_fill_n@V?$allocator@V?$Color4@E@vcg@@@std@@@std@@YAPEAV?$Color4@E@vcg@@PEAV12@_KAEBV12@AEAV?$allocator@V?$Color4@E@vcg@@@0@@Z
	??$_Uninitialized_fill_n@V?$allocator@VInternalRendAtts@GLMeshAttributesInfo@vcg@@@std@@@std@@YAPEAVInternalRendAtts@GLMeshAttributesInfo@vcg@@PEAV123@_KAEBV123@AEAV?$allocator@VInternalRendAtts@GLMeshAttributesInfo@vcg@@@0@@Z
	??$_Uninitialized_fill_n@V?$allocator@VWedgeTexTypePack@?$vector_ocf@VCFaceO@@@face@vcg@@@std@@@std@@YAPEAVWedgeTexTypePack@?$vector_ocf@VCFaceO@@@face@vcg@@PEAV1234@_KAEBV1234@AEAV?$allocator@VWedgeTexTypePack@?$vector_ocf@VCFaceO@@@face@vcg@@@0@@Z
	??$_Uninitialized_fill_n@V?$allocator@_K@std@@@std@@YAPEA_KPEA_K_KAEB_KAEAV?$allocator@_K@0@@Z
	??$_Uninitialized_move@PEAHV?$allocator@H@std@@@std@@YAPEAHQEAH0PEAHAEAV?$allocator@H@0@@Z
	??$_Uninitialized_move@PEAIV?$allocator@I@std@@@std@@YAPEAIQEAI0PEAIAEAV?$allocator@I@0@@Z
	??$_Uninitialized_move@PEAMV?$allocator@M@std@@@std@@YAPEAMQEAM0PEAMAEAV?$allocator@M@0@@Z
	??$_Uninitialized_move@PEAPEAVCFaceO@@V?$allocator@PEAVCFaceO@@@std@@@std@@YAPEAPEAVCFaceO@@QEAPEAV1@0PEAPEAV1@AEAV?$allocator@PEAVCFaceO@@@0@@Z
	??$_Uninitialized_move@PEAPEAVCVertexO@@V?$allocator@PEAVCVertexO@@@std@@@std@@YAPEAPEAVCVertexO@@QEAPEAV1@0PEAPEAV1@AEAV?$allocator@PEAVCVertexO@@@0@@Z
	??$_Uninitialized_move@PEAPEAVDecoratePlugin@@V?$allocator@PEAVDecoratePlugin@@@std@@@std@@YAPEAPEAVDecoratePlugin@@QEAPEAV1@0PEAPEAV1@AEAV?$allocator@PEAVDecoratePlugin@@@0@@Z
	??$_Uninitialized_move@PEAPEAVEditPlugin@@V?$allocator@PEAVEditPlugin@@@std@@@std@@YAPEAPEAVEditPlugin@@QEAPEAV1@0PEAPEAV1@AEAV?$allocator@PEAVEditPlugin@@@0@@Z
	??$_Uninitialized_move@PEAPEAVFilterPlugin@@V?$allocator@PEAVFilterPlugin@@@std@@@std@@YAPEAPEAVFilterPlugin@@QEAPEAV1@0PEAPEAV1@AEAV?$allocator@PEAVFilterPlugin@@@0@@Z
	??$_Uninitialized_move@PEAPEAVIOPlugin@@V?$allocator@PEAVIOPlugin@@@std@@@std@@YAPEAPEAVIOPlugin@@QEAPEAV1@0PEAPEAV1@AEAV?$allocator@PEAVIOPlugin@@@0@@Z
	??$_Uninitialized_move@PEAPEAVMeshLabPlugin@@V?$allocator@PEAVMeshLabPlugin@@@std@@@std@@YAPEAPEAVMeshLabPlugin@@QEAPEAV1@0PEAPEAV1@AEAV?$allocator@PEAVMeshLabPlugin@@@0@@Z
	??$_Uninitialized_move@PEAPEAVQAction@@V?$allocator@PEAVQAction@@@std@@@std@@YAPEAPEAVQAction@@QEAPEAV1@0PEAPEAV1@AEAV?$allocator@PEAVQAction@@@0@@Z
	??$_Uninitialized_move@PEAPEAVQPluginLoader@@V?$allocator@PEAVQPluginLoader@@@std@@@std@@YAPEAPEAVQPluginLoader@@QEAPEAV1@0PEAPEAV1@AEAV?$allocator@PEAVQPluginLoader@@@0@@Z
	??$_Uninitialized_move@PEAPEAVRenderPlugin@@V?$allocator@PEAVRenderPlugin@@@std@@@std@@YAPEAPEAVRenderPlugin@@QEAPEAV1@0PEAPEAV1@AEAV?$allocator@PEAVRenderPlugin@@@0@@Z
	??$_Uninitialized_move@PEAU?$CurvatureDirOcfBaseType@M@face@vcg@@V?$allocator@U?$CurvatureDirOcfBaseType@M@face@vcg@@@std@@@std@@YAPEAU?$CurvatureDirOcfBaseType@M@face@vcg@@QEAU123@0PEAU123@AEAV?$allocator@U?$CurvatureDirOcfBaseType@M@face@vcg@@@0@@Z
	??$_Uninitialized_move@PEAU?$CurvatureDirTypeOcf@M@vertex@vcg@@V?$allocator@U?$CurvatureDirTypeOcf@M@vertex@vcg@@@std@@@std@@YAPEAU?$CurvatureDirTypeOcf@M@vertex@vcg@@QEAU123@0PEAU123@AEAV?$allocator@U?$CurvatureDirTypeOcf@M@vertex@vcg@@@0@@Z
	??$_Uninitialized_move@PEAU?$pair@FI@std@@V?$allocator@U?$pair@FI@std@@@2@@std@@YAPEAU?$pair@FI@0@QEAU10@0PEAU10@AEAV?$allocator@U?$pair@FI@std@@@0@@Z
	??$_Uninitialized_move@PEAU?$pair@II@std@@V?$allocator@U?$pair@II@std@@@2@@std@@YAPEAU?$pair@II@0@QEAU10@0PEAU10@AEAV?$allocator@U?$pair@II@std@@@0@@Z
	??$_Uninitialized_move@PEAUAdjTypePack@?$vector_ocf@VCFaceO@@@face@vcg@@V?$allocator@UAdjTypePack@?$vector_ocf@VCFaceO@@@face@vcg@@@std@@@std@@YAPEAUAdjTypePack@?$vector_ocf@VCFaceO@@@face@vcg@@QEAU1234@0PEAU1234@AEAV?$allocator@UAdjTypePack@?$vector_ocf@VCFaceO@@@face@vcg@@@0@@Z
	??$_Uninitialized_move@PEAUVFAdjType@?$vector_ocf@VCVertexO@@@vertex@vcg@@V?$allocator@UVFAdjType@?$vector_ocf@VCVertexO@@@vertex@vcg@@@std@@@std@@YAPEAUVFAdjType@?$vector_ocf@VCVertexO@@@vertex@vcg@@QEAU1234@0PEAU1234@AEAV?$allocator@UVFAdjType@?$vector_ocf@VCVertexO@@@vertex@vcg@@@0@@Z
	??$_Uninitialized_move@PEAV?$Color4@E@vcg@@V?$allocator@V?$Color4@E@vcg@@@std@@@std@@YAPEAV?$Color4@E@vcg@@QEAV12@0PEAV12@AEAV?$allocator@V?$Color4@E@vcg@@@0@@Z
	??$_Uninitialized_move@PEAV?$HEdge@V?$UsedTypes@UAsVertexType@?$Use@VCVertexO@@@vcg@@UAsEdgeType@?$Use@VCEdgeO@@@3@UAsFaceType@?$Use@VCFaceO@@@3@VDefaultDeriver@3@V83@V83@V83@V83@@vcg@@VDefaultDeriver@2@V32@V32@V32@V32@V32@V32@V32@V32@V32@V32@@vcg@@V?$allocator@V?$HEdge@V?$UsedTypes@UAsVertexType@?$Use@VCVertexO@@@vcg@@UAsEdgeType@?$Use@VCEdgeO@@@3@UAsFaceType@?$Use@VCFaceO@@@3@VDefaultDeriver@3@V83@V83@V83@V83@@vcg@@VDefaultDeriver@2@V32@V32@V32@V32@V32@V32@V32@V32@V32@V32@@vcg@@@std@@@std@@YAPEAV?$HEdge@V?$UsedTypes@UAsVertexType@?$Use@VCVertexO@@@vcg@@UAsEdgeType@?$Use@VCEdgeO@@@3@UAsFaceType@?$Use@VCFaceO@@@3@VDefaultDeriver@3@V83@V83@V83@V83@@vcg@@VDefaultDeriver@2@V32@V32@V32@V32@V32@V32@V32@V32@V32@V32@@vcg@@QEAV12@0PEAV12@AEAV?$allocator@V?$HEdge@V?$UsedTypes@UAsVertexType@?$Use@VCVertexO@@@vcg@@UAsEdgeType@?$Use@VCEdgeO@@@3@UAsFaceType@?$Use@VCFaceO@@@3@VDefaultDeriver@3@V83@V83@V83@V83@@vcg@@VDefaultDeriver@2@V32@V32@V32@V32@V32@V32@V32@V32@V32@V32@@vcg@@@0@@Z
	??$_Uninitialized_move@PEAV?$Point2@M@vcg@@V?$allocator@V?$Point2@M@vcg@@@std@@@std@@YAPEAV?$Point2@M@vcg@@QEAV12@0PEAV12@AEAV?$allocator@V?$Point2@M@vcg@@@0@@Z
	??$_Uninitialized_move@PEAV?$Point3@M@vcg@@V?$allocator@V?$Point3@M@vcg@@@std@@@std@@YAPEAV?$Point3@M@vcg@@QEAV12@0PEAV12@AEAV?$allocator@V?$Point3@M@vcg@@@0@@Z
	??$_Uninitialized_move@PEAV?$TetraSimp@V?$UsedTypes@UAsVertexType@?$Use@VCVertexO@@@vcg@@UAsEdgeType@?$Use@VCEdgeO@@@3@UAsFaceType@?$Use@VCFaceO@@@3@VDefaultDeriver@3@V83@V83@V83@V83@@vcg@@VDefaultDeriver@2@V32@V32@V32@V32@V32@V32@V32@V32@V32@V32@V32@@vcg@@V?$allocator@V?$TetraSimp@V?$UsedTypes@UAsVertexType@?$Use@VCVertexO@@@vcg@@UAsEdgeType@?$Use@VCEdgeO@@@3@UAsFaceType@?$Use@VCFaceO@@@3@VDefaultDeriver@3@V83@V83@V83@V83@@vcg@@VDefaultDeriver@2@V32@V32@V32@V32@V32@V32@V32@V32@V32@V32@V32@@vcg@@@std@@@std@@YAPEAV?$TetraSimp@V?$UsedTypes@UAsVertexType@?$Use@VCVertexO@@@vcg@@UAsEdgeType@?$Use@VCEdgeO@@@3@UAsFaceType@?$Use@VCFaceO@@@3@VDefaultDeriver@3@V83@V83@V83@V83@@vcg@@VDefaultDeriver@2@V32@V32@V32@V32@V32@V32@V32@V32@V32@V32@V32@@vcg@@QEAV12@0PEAV12@AEAV?$allocator@V?$TetraSimp@V?$UsedTypes@UAsVertexType@?$Use@VCVertexO@@@vcg@@UAsEdgeType@?$Use@VCEdgeO@@@3@UAsFaceType@?$Use@VCFaceO@@@3@VDefaultDeriver@3@V83@V83@V83@V83@@vcg@@VDefaultDeriver@2@V32@V32@V32@V32@V32@V32@V32@V32@V32@V32@V32@@vcg@@@0@@Z
	??$_Uninitialized_move@PEAV?$TexCoord2@M$00@vcg@@V?$allocator@V?$TexCoord2@M$00@vcg@@@std@@@std@@YAPEAV?$TexCoord2@M$00@vcg@@QEAV12@0PEAV12@AEAV?$allocator@V?$TexCoord2@M$00@vcg@@@0@@Z
	??$_Uninitialized_move@PEAV?$basic_string@DU?$char_traits@D@std@@V?$allocator@D@2@@std@@V?$allocator@V?$basic_string@DU?$char_traits@D@std@@V?$allocator@D@2@@std@@@2@@std@@YAPEAV?$basic_string@DU?$char_traits@D@std@@V?$allocator@D@2@@0@QEAV10@0PEAV10@AEAV?$allocator@V?$basic_string@DU?$char_traits@D@std@@V?$allocator@D@2@@std@@@0@@Z
	??$_Uninitialized_move@PEAVCEdgeO@@V?$allocator@VCEdgeO@@@std@@@std@@YAPEAVCEdgeO@@QEAV1@0PEAV1@AEAV?$allocator@VCEdgeO@@@0@@Z
	??$_Uninitialized_move@PEAVCFaceO@@V?$allocator@VCFaceO@@@std@@@std@@YAPEAVCFaceO@@QEAV1@0PEAV1@AEAV?$allocator@VCFaceO@@@0@@Z
	??$_Uninitialized_move@PEAVCVertexO@@V?$allocator@VCVertexO@@@std@@@std@@YAPEAVCVertexO@@QEAV1@0PEAV1@AEAV?$allocator@VCVertexO@@@0@@Z
	??$_Uninitialized_move@PEAVEdgeVertInd@?$NotThreadSafeGLMeshAttributesMultiViewerBOManager@VCMeshO@@PEAVQGLContext@@UMLPerViewGLOptions@@@vcg@@V?$allocator@VEdgeVertInd@?$NotThreadSafeGLMeshAttributesMultiViewerBOManager@VCMeshO@@PEAVQGLContext@@UMLPerViewGLOptions@@@vcg@@@std@@@std@@YAPEAVEdgeVertInd@?$NotThreadSafeGLMeshAttributesMultiViewerBOManager@VCMeshO@@PEAVQGLContext@@UMLPerViewGLOptions@@@vcg@@QEAV123@0PEAV123@AEAV?$allocator@VEdgeVertInd@?$NotThreadSafeGLMeshAttributesMultiViewerBOManager@VCMeshO@@PEAVQGLContext@@UMLPerViewGLOptions@@@vcg@@@0@@Z
	??$_Uninitialized_move@PEAVPEdge@?$UpdateTopology@VCMeshO@@@tri@vcg@@V?$allocator@VPEdge@?$UpdateTopology@VCMeshO@@@tri@vcg@@@std@@@std@@YAPEAVPEdge@?$UpdateTopology@VCMeshO@@@tri@vcg@@QEAV1234@0PEAV1234@AEAV?$allocator@VPEdge@?$UpdateTopology@VCMeshO@@@tri@vcg@@@0@@Z
	??$_Uninitialized_move@PEAVPFace@vcg@@V?$allocator@VPFace@vcg@@@std@@@std@@YAPEAVPFace@vcg@@QEAV12@0PEAV12@AEAV?$allocator@VPFace@vcg@@@0@@Z
	??$_Uninitialized_move@PEAVPVertex@vcg@@V?$allocator@VPVertex@vcg@@@std@@@std@@YAPEAVPVertex@vcg@@QEAV12@0PEAV12@AEAV?$allocator@VPVertex@vcg@@@0@@Z
	??$_Uninitialized_move@PEAVWedgeColorTypePack@?$vector_ocf@VCFaceO@@@face@vcg@@V?$allocator@VWedgeColorTypePack@?$vector_ocf@VCFaceO@@@face@vcg@@@std@@@std@@YAPEAVWedgeColorTypePack@?$vector_ocf@VCFaceO@@@face@vcg@@QEAV1234@0PEAV1234@AEAV?$allocator@VWedgeColorTypePack@?$vector_ocf@VCFaceO@@@face@vcg@@@0@@Z
	??$_Uninitialized_move@PEAVWedgeNormalTypePack@?$vector_ocf@VCFaceO@@@face@vcg@@V?$allocator@VWedgeNormalTypePack@?$vector_ocf@VCFaceO@@@face@vcg@@@std@@@std@@YAPEAVWedgeNormalTypePack@?$vector_ocf@VCFaceO@@@face@vcg@@QEAV1234@0PEAV1234@AEAV?$allocator@VWedgeNormalTypePack@?$vector_ocf@VCFaceO@@@face@vcg@@@0@@Z
	??$_Uninitialized_move@PEAVWedgeTexTypePack@?$vector_ocf@VCFaceO@@@face@vcg@@V?$allocator@VWedgeTexTypePack@?$vector_ocf@VCFaceO@@@face@vcg@@@std@@@std@@YAPEAVWedgeTexTypePack@?$vector_ocf@VCFaceO@@@face@vcg@@QEAV1234@0PEAV1234@AEAV?$allocator@VWedgeTexTypePack@?$vector_ocf@VCFaceO@@@face@vcg@@@0@@Z
	??$_Uninitialized_move@PEA_KV?$allocator@_K@std@@@std@@YAPEA_KQEA_K0PEA_KAEAV?$allocator@_K@0@@Z
	??$_Uninitialized_value_construct_n@V?$allocator@H@std@@@std@@YAPEAHPEAH_KAEAV?$allocator@H@0@@Z
	??$_Uninitialized_value_construct_n@V?$allocator@I@std@@@std@@YAPEAIPEAI_KAEAV?$allocator@I@0@@Z
	??$_Uninitialized_value_construct_n@V?$allocator@M@std@@@std@@YAPEAMPEAM_KAEAV?$allocator@M@0@@Z
	??$_Uninitialized_value_construct_n@V?$allocator@PEAVCVertexO@@@std@@@std@@YAPEAPEAVCVertexO@@PEAPEAV1@_KAEAV?$allocator@PEAVCVertexO@@@0@@Z
	??$_Uninitialized_value_construct_n@V?$allocator@PEAVPVertex@vcg@@@std@@@std@@YAPEAPEAVPVertex@vcg@@PEAPEAV12@_KAEAV?$allocator@PEAVPVertex@vcg@@@0@@Z
	??$_Uninitialized_value_construct_n@V?$allocator@PEAVQAction@@@std@@@std@@YAPEAPEAVQAction@@PEAPEAV1@_KAEAV?$allocator@PEAVQAction@@@0@@Z
	??$_Uninitialized_value_construct_n@V?$allocator@U?$CurvatureDirOcfBaseType@M@face@vcg@@@std@@@std@@YAPEAU?$CurvatureDirOcfBaseType@M@face@vcg@@PEAU123@_KAEAV?$allocator@U?$CurvatureDirOcfBaseType@M@face@vcg@@@0@@Z
	??$_Uninitialized_value_construct_n@V?$allocator@U?$CurvatureDirTypeOcf@M@vertex@vcg@@@std@@@std@@YAPEAU?$CurvatureDirTypeOcf@M@vertex@vcg@@PEAU123@_KAEAV?$allocator@U?$CurvatureDirTypeOcf@M@vertex@vcg@@@0@@Z
	??$_Uninitialized_value_construct_n@V?$allocator@U?$pair@FI@std@@@std@@@std@@YAPEAU?$pair@FI@0@PEAU10@_KAEAV?$allocator@U?$pair@FI@std@@@0@@Z
	??$_Uninitialized_value_construct_n@V?$allocator@UAdjTypePack@?$vector_ocf@VCFaceO@@@face@vcg@@@std@@@std@@YAPEAUAdjTypePack@?$vector_ocf@VCFaceO@@@face@vcg@@PEAU1234@_KAEAV?$allocator@UAdjTypePack@?$vector_ocf@VCFaceO@@@face@vcg@@@0@@Z
	??$_Uninitialized_value_construct_n@V?$allocator@V?$Color4@E@vcg@@@std@@@std@@YAPEAV?$Color4@E@vcg@@PEAV12@_KAEAV?$allocator@V?$Color4@E@vcg@@@0@@Z
	??$_Uninitialized_value_construct_n@V?$allocator@V?$HEdge@V?$UsedTypes@UAsVertexType@?$Use@VCVertexO@@@vcg@@UAsEdgeType@?$Use@VCEdgeO@@@3@UAsFaceType@?$Use@VCFaceO@@@3@VDefaultDeriver@3@V83@V83@V83@V83@@vcg@@VDefaultDeriver@2@V32@V32@V32@V32@V32@V32@V32@V32@V32@V32@@vcg@@@std@@@std@@YAPEAV?$HEdge@V?$UsedTypes@UAsVertexType@?$Use@VCVertexO@@@vcg@@UAsEdgeType@?$Use@VCEdgeO@@@3@UAsFaceType@?$Use@VCFaceO@@@3@VDefaultDeriver@3@V83@V83@V83@V83@@vcg@@VDefaultDeriver@2@V32@V32@V32@V32@V32@V32@V32@V32@V32@V32@@vcg@@PEAV12@_KAEAV?$allocator@V?$HEdge@V?$UsedTypes@UAsVertexType@?$Use@VCVertexO@@@vcg@@UAsEdgeType@?$Use@VCEdgeO@@@3@UAsFaceType@?$Use@VCFaceO@@@3@VDefaultDeriver@3@V83@V83@V83@V83@@vcg@@VDefaultDeriver@2@V32@V32@V32@V32@V32@V32@V32@V32@V32@V32@@vcg@@@0@@Z
	??$_Uninitialized_value_construct_n@V?$allocator@V?$Point2@M@vcg@@@std@@@std@@YAPEAV?$Point2@M@vcg@@PEAV12@_KAEAV?$allocator@V?$Point2@M@vcg@@@0@@Z
	??$_Uninitialized_value_construct_n@V?$allocator@V?$Point3@M@vcg@@@std@@@std@@YAPEAV?$Point3@M@vcg@@PEAV12@_KAEAV?$allocator@V?$Point3@M@vcg@@@0@@Z
	??$_Uninitialized_value_construct_n@V?$allocator@V?$TetraSimp@V?$UsedTypes@UAsVertexType@?$Use@VCVertexO@@@vcg@@UAsEdgeType@?$Use@VCEdgeO@@@3@UAsFaceType@?$Use@VCFaceO@@@3@VDefaultDeriver@3@V83@V83@V83@V83@@vcg@@VDefaultDeriver@2@V32@V32@V32@V32@V32@V32@V32@V32@V32@V32@V32@@vcg@@@std@@@std@@YAPEAV?$TetraSimp@V?$UsedTypes@UAsVertexType@?$Use@VCVertexO@@@vcg@@UAsEdgeType@?$Use@VCEdgeO@@@3@UAsFaceType@?$Use@VCFaceO@@@3@VDefaultDeriver@3@V83@V83@V83@V83@@vcg@@VDefaultDeriver@2@V32@V32@V32@V32@V32@V32@V32@V32@V32@V32@V32@@vcg@@PEAV12@_KAEAV?$allocator@V?$TetraSimp@V?$UsedTypes@UAsVertexType@?$Use@VCVertexO@@@vcg@@UAsEdgeType@?$Use@VCEdgeO@@@3@UAsFaceType@?$Use@VCFaceO@@@3@VDefaultDeriver@3@V83@V83@V83@V83@@vcg@@VDefaultDeriver@2@V32@V32@V32@V32@V32@V32@V32@V32@V32@V32@V32@@vcg@@@0@@Z
	??$_Uninitialized_value_construct_n@V?$allocator@V?$TexCoord2@M$00@vcg@@@std@@@std@@YAPEAV?$TexCoord2@M$00@vcg@@PEAV12@_KAEAV?$allocator@V?$TexCoord2@M$00@vcg@@@0@@Z
	??$_Uninitialized_value_construct_n@V?$allocator@V?$vector@IV?$allocator@I@std@@@std@@@std@@@std@@YAPEAV?$vector@IV?$allocator@I@std@@@0@PEAV10@_KAEAV?$allocator@V?$vector@IV?$allocator@I@std@@@std@@@0@@Z
	??$_Uninitialized_value_construct_n@V?$allocator@VCEdgeO@@@std@@@std@@YAPEAVCEdgeO@@PEAV1@_KAEAV?$allocator@VCEdgeO@@@0@@Z
	??$_Uninitialized_value_construct_n@V?$allocator@VCFaceO@@@std@@@std@@YAPEAVCFaceO@@PEAV1@_KAEAV?$allocator@VCFaceO@@@0@@Z
	??$_Uninitialized_value_construct_n@V?$allocator@VCVertexO@@@std@@@std@@YAPEAVCVertexO@@PEAV1@_KAEAV?$allocator@VCVertexO@@@0@@Z
	??$_Uninitialized_value_construct_n@V?$allocator@VEdgeVertInd@?$NotThreadSafeGLMeshAttributesMultiViewerBOManager@VCMeshO@@PEAVQGLContext@@UMLPerViewGLOptions@@@vcg@@@std@@@std@@YAPEAVEdgeVertInd@?$NotThreadSafeGLMeshAttributesMultiViewerBOManager@VCMeshO@@PEAVQGLContext@@UMLPerViewGLOptions@@@vcg@@PEAV123@_KAEAV?$allocator@VEdgeVertInd@?$NotThreadSafeGLMeshAttributesMultiViewerBOManager@VCMeshO@@PEAVQGLContext@@UMLPerViewGLOptions@@@vcg@@@0@@Z
	??$_Uninitialized_value_construct_n@V?$allocator@VInternalRendAtts@GLMeshAttributesInfo@vcg@@@std@@@std@@YAPEAVInternalRendAtts@GLMeshAttributesInfo@vcg@@PEAV123@_KAEAV?$allocator@VInternalRendAtts@GLMeshAttributesInfo@vcg@@@0@@Z
	??$_Uninitialized_value_construct_n@V?$allocator@VPFace@vcg@@@std@@@std@@YAPEAVPFace@vcg@@PEAV12@_KAEAV?$allocator@VPFace@vcg@@@0@@Z
	??$_Uninitialized_value_construct_n@V?$allocator@VPVertex@vcg@@@std@@@std@@YAPEAVPVertex@vcg@@PEAV12@_KAEAV?$allocator@VPVertex@vcg@@@0@@Z
	??$_Uninitialized_value_construct_n@V?$allocator@VWedgeColorTypePack@?$vector_ocf@VCFaceO@@@face@vcg@@@std@@@std@@YAPEAVWedgeColorTypePack@?$vector_ocf@VCFaceO@@@face@vcg@@PEAV1234@_KAEAV?$allocator@VWedgeColorTypePack@?$vector_ocf@VCFaceO@@@face@vcg@@@0@@Z
	??$_Uninitialized_value_construct_n@V?$allocator@VWedgeNormalTypePack@?$vector_ocf@VCFaceO@@@face@vcg@@@std@@@std@@YAPEAVWedgeNormalTypePack@?$vector_ocf@VCFaceO@@@face@vcg@@PEAV1234@_KAEAV?$allocator@VWedgeNormalTypePack@?$vector_ocf@VCFaceO@@@face@vcg@@@0@@Z
	??$_Verify_range@D@std@@YAXQEBD0@Z
	??$_Verify_range@I@std@@YAXQEBI0@Z
	??$_Verify_range@M@std@@YAXQEBM0@Z
	??$_Verify_range@V?$basic_string@DU?$char_traits@D@std@@V?$allocator@D@2@@std@@@std@@YAXQEBV?$basic_string@DU?$char_traits@D@std@@V?$allocator@D@2@@0@0@Z
	??$_Verify_range@VInternalRendAtts@GLMeshAttributesInfo@vcg@@@std@@YAXQEBVInternalRendAtts@GLMeshAttributesInfo@vcg@@0@Z
	??$_Verify_range@VQString@@@std@@YAXQEBVQString@@0@Z
	??$_Voidify_iter@PEAH@std@@YAPEAXPEAH@Z
	??$_Voidify_iter@PEAI@std@@YAPEAXPEAI@Z
	??$_Voidify_iter@PEAM@std@@YAPEAXPEAM@Z
	??$_Voidify_iter@PEAPEAD@std@@YAPEAXPEAPEAD@Z
	??$_Voidify_iter@PEAPEAU?$_List_node@HPEAX@std@@@std@@YAPEAXPEAPEAU?$_List_node@HPEAX@0@@Z
	??$_Voidify_iter@PEAPEAU?$_List_node@PEAVMeshModel@@PEAX@std@@@std@@YAPEAXPEAPEAU?$_List_node@PEAVMeshModel@@PEAX@0@@Z
	??$_Voidify_iter@PEAPEAU?$_List_node@PEAVRichParameter@@PEAX@std@@@std@@YAPEAXPEAPEAU?$_List_node@PEAVRichParameter@@PEAX@0@@Z
	??$_Voidify_iter@PEAPEAU?$_List_node@U?$pair@VQString@@V1@@std@@PEAX@std@@@std@@YAPEAXPEAPEAU?$_List_node@U?$pair@VQString@@V1@@std@@PEAX@0@@Z
	??$_Voidify_iter@PEAPEAU?$_List_node@V?$Matrix@I$0?0$00$0A@$0?0$00@Eigen@@PEAX@std@@@std@@YAPEAXPEAPEAU?$_List_node@V?$Matrix@I$0?0$00$0A@$0?0$00@Eigen@@PEAX@0@@Z
	??$_Voidify_iter@PEAPEAU?$_List_node@V?$basic_string@DU?$char_traits@D@std@@V?$allocator@D@2@@std@@PEAX@std@@@std@@YAPEAXPEAPEAU?$_List_node@V?$basic_string@DU?$char_traits@D@std@@V?$allocator@D@2@@std@@PEAX@0@@Z
	??$_Voidify_iter@PEAPEAU?$_List_node@VFunctionParameter@pymeshlab@@PEAX@std@@@std@@YAPEAXPEAPEAU?$_List_node@VFunctionParameter@pymeshlab@@PEAX@0@@Z
	??$_Voidify_iter@PEAPEAU?$_List_node@VMeshModel@@PEAX@std@@@std@@YAPEAXPEAPEAU?$_List_node@VMeshModel@@PEAX@0@@Z
	??$_Voidify_iter@PEAPEAU?$_List_node@VRasterModel@@PEAX@std@@@std@@YAPEAXPEAPEAU?$_List_node@VRasterModel@@PEAX@0@@Z
	??$_Voidify_iter@PEAPEAU?$_Tree_node@U?$pair@$$CBFV?$vector@U?$pair@II@std@@V?$allocator@U?$pair@II@std@@@2@@std@@@std@@PEAX@std@@@std@@YAPEAXPEAPEAU?$_Tree_node@U?$pair@$$CBFV?$vector@U?$pair@II@std@@V?$allocator@U?$pair@II@std@@@2@@std@@@std@@PEAX@0@@Z
	??$_Voidify_iter@PEAPEAU?$_Tree_node@U?$pair@$$CBHPEAV?$QtThreadSafeGLMeshAttributesMultiViewerBOManager@VCMeshO@@PEAVQGLContext@@UMLPerViewGLOptions@@@vcg@@@std@@PEAX@std@@@std@@YAPEAXPEAPEAU?$_Tree_node@U?$pair@$$CBHPEAV?$QtThreadSafeGLMeshAttributesMultiViewerBOManager@VCMeshO@@PEAVQGLContext@@UMLPerViewGLOptions@@@vcg@@@std@@PEAX@0@@Z
	??$_Voidify_iter@PEAPEAU?$_Tree_node@U?$pair@$$CBMV?$vector@PEAVQAction@@V?$allocator@PEAVQAction@@@std@@@std@@@std@@PEAX@std@@@std@@YAPEAXPEAPEAU?$_Tree_node@U?$pair@$$CBMV?$vector@PEAVQAction@@V?$allocator@PEAVQAction@@@std@@@std@@@std@@PEAX@0@@Z
	??$_Voidify_iter@PEAPEAU?$_Tree_node@U?$pair@$$CBV?$basic_string@DU?$char_traits@D@std@@V?$allocator@D@2@@std@@VQImage@@@std@@PEAX@std@@@std@@YAPEAXPEAPEAU?$_Tree_node@U?$pair@$$CBV?$basic_string@DU?$char_traits@D@std@@V?$allocator@D@2@@std@@VQImage@@@std@@PEAX@0@@Z
	??$_Voidify_iter@PEAPEAU?$_Tree_node@U?$pair@$$CBVQString@@V?$vector@PEAVQAction@@V?$allocator@PEAVQAction@@@std@@@std@@@std@@PEAX@std@@@std@@YAPEAXPEAPEAU?$_Tree_node@U?$pair@$$CBVQString@@V?$vector@PEAVQAction@@V?$allocator@PEAVQAction@@@std@@@std@@@std@@PEAX@0@@Z
	??$_Voidify_iter@PEAPEAU?$_Tree_node@U?$pair@QEAVQAction@@M@std@@PEAX@std@@@std@@YAPEAXPEAPEAU?$_Tree_node@U?$pair@QEAVQAction@@M@std@@PEAX@0@@Z
	??$_Voidify_iter@PEAPEAU?$_Tree_node@U?$pair@QEAVQGLContext@@V?$PerViewData@UMLPerViewGLOptions@@@vcg@@@std@@PEAX@std@@@std@@YAPEAXPEAPEAU?$_Tree_node@U?$pair@QEAVQGLContext@@V?$PerViewData@UMLPerViewGLOptions@@@vcg@@@std@@PEAX@0@@Z
	??$_Voidify_iter@PEAPEAU?$_Tree_node@VFunction@pymeshlab@@PEAX@std@@@std@@YAPEAXPEAPEAU?$_Tree_node@VFunction@pymeshlab@@PEAX@0@@Z
	??$_Voidify_iter@PEAPEAU?$_Tree_node@VPointerToAttribute@vcg@@PEAX@std@@@std@@YAPEAXPEAPEAU?$_Tree_node@VPointerToAttribute@vcg@@PEAX@0@@Z
	??$_Voidify_iter@PEAPEAU?$_Tree_node@VQString@@PEAX@std@@@std@@YAPEAXPEAPEAU?$_Tree_node@VQString@@PEAX@0@@Z
	??$_Voidify_iter@PEAPEAUGLBufferObject@?$NotThreadSafeGLMeshAttributesMultiViewerBOManager@VCMeshO@@PEAVQGLContext@@UMLPerViewGLOptions@@@vcg@@@std@@YAPEAXPEAPEAUGLBufferObject@?$NotThreadSafeGLMeshAttributesMultiViewerBOManager@VCMeshO@@PEAVQGLContext@@UMLPerViewGLOptions@@@vcg@@@Z
	??$_Voidify_iter@PEAPEAVCFaceO@@@std@@YAPEAXPEAPEAVCFaceO@@@Z
	??$_Voidify_iter@PEAPEAVCVertexO@@@std@@YAPEAXPEAPEAVCVertexO@@@Z
	??$_Voidify_iter@PEAPEAVDecoratePlugin@@@std@@YAPEAXPEAPEAVDecoratePlugin@@@Z
	??$_Voidify_iter@PEAPEAVEditPlugin@@@std@@YAPEAXPEAPEAVEditPlugin@@@Z
	??$_Voidify_iter@PEAPEAVFilterPlugin@@@std@@YAPEAXPEAPEAVFilterPlugin@@@Z
	??$_Voidify_iter@PEAPEAVIOPlugin@@@std@@YAPEAXPEAPEAVIOPlugin@@@Z
	??$_Voidify_iter@PEAPEAVMeshLabPlugin@@@std@@YAPEAXPEAPEAVMeshLabPlugin@@@Z
	??$_Voidify_iter@PEAPEAVMeshModel@@@std@@YAPEAXPEAPEAVMeshModel@@@Z
	??$_Voidify_iter@PEAPEAVPVertex@vcg@@@std@@YAPEAXPEAPEAVPVertex@vcg@@@Z
	??$_Voidify_iter@PEAPEAVQAction@@@std@@YAPEAXPEAPEAVQAction@@@Z
	??$_Voidify_iter@PEAPEAVQPluginLoader@@@std@@YAPEAXPEAPEAVQPluginLoader@@@Z
	??$_Voidify_iter@PEAPEAVRenderPlugin@@@std@@YAPEAXPEAPEAVRenderPlugin@@@Z
	??$_Voidify_iter@PEAPEAVRichParameter@@@std@@YAPEAXPEAPEAVRichParameter@@@Z
	??$_Voidify_iter@PEAU?$CurvatureDirOcfBaseType@M@face@vcg@@@std@@YAPEAXPEAU?$CurvatureDirOcfBaseType@M@face@vcg@@@Z
	??$_Voidify_iter@PEAU?$CurvatureDirTypeOcf@M@vertex@vcg@@@std@@YAPEAXPEAU?$CurvatureDirTypeOcf@M@vertex@vcg@@@Z
	??$_Voidify_iter@PEAU?$pair@$$CBFV?$vector@U?$pair@II@std@@V?$allocator@U?$pair@II@std@@@2@@std@@@std@@@std@@YAPEAXPEAU?$pair@$$CBFV?$vector@U?$pair@II@std@@V?$allocator@U?$pair@II@std@@@2@@std@@@0@@Z
	??$_Voidify_iter@PEAU?$pair@$$CBHPEAV?$QtThreadSafeGLMeshAttributesMultiViewerBOManager@VCMeshO@@PEAVQGLContext@@UMLPerViewGLOptions@@@vcg@@@std@@@std@@YAPEAXPEAU?$pair@$$CBHPEAV?$QtThreadSafeGLMeshAttributesMultiViewerBOManager@VCMeshO@@PEAVQGLContext@@UMLPerViewGLOptions@@@vcg@@@0@@Z
	??$_Voidify_iter@PEAU?$pair@$$CBMV?$vector@PEAVQAction@@V?$allocator@PEAVQAction@@@std@@@std@@@std@@@std@@YAPEAXPEAU?$pair@$$CBMV?$vector@PEAVQAction@@V?$allocator@PEAVQAction@@@std@@@std@@@0@@Z
	??$_Voidify_iter@PEAU?$pair@$$CBV?$basic_string@DU?$char_traits@D@std@@V?$allocator@D@2@@std@@VQImage@@@std@@@std@@YAPEAXPEAU?$pair@$$CBV?$basic_string@DU?$char_traits@D@std@@V?$allocator@D@2@@std@@VQImage@@@0@@Z
	??$_Voidify_iter@PEAU?$pair@$$CBVQString@@V?$vector@PEAVQAction@@V?$allocator@PEAVQAction@@@std@@@std@@@std@@@std@@YAPEAXPEAU?$pair@$$CBVQString@@V?$vector@PEAVQAction@@V?$allocator@PEAVQAction@@@std@@@std@@@0@@Z
	??$_Voidify_iter@PEAU?$pair@FI@std@@@std@@YAPEAXPEAU?$pair@FI@0@@Z
	??$_Voidify_iter@PEAU?$pair@II@std@@@std@@YAPEAXPEAU?$pair@II@0@@Z
	??$_Voidify_iter@PEAU?$pair@QEAVQAction@@M@std@@@std@@YAPEAXPEAU?$pair@QEAVQAction@@M@0@@Z
	??$_Voidify_iter@PEAU?$pair@QEAVQGLContext@@V?$PerViewData@UMLPerViewGLOptions@@@vcg@@@std@@@std@@YAPEAXPEAU?$pair@QEAVQGLContext@@V?$PerViewData@UMLPerViewGLOptions@@@vcg@@@0@@Z
	??$_Voidify_iter@PEAU?$pair@VQString@@V1@@std@@@std@@YAPEAXPEAU?$pair@VQString@@V1@@0@@Z
	??$_Voidify_iter@PEAUAdjTypePack@?$vector_ocf@VCFaceO@@@face@vcg@@@std@@YAPEAXPEAUAdjTypePack@?$vector_ocf@VCFaceO@@@face@vcg@@@Z
	??$_Voidify_iter@PEAUVFAdjType@?$vector_ocf@VCVertexO@@@vertex@vcg@@@std@@YAPEAXPEAUVFAdjType@?$vector_ocf@VCVertexO@@@vertex@vcg@@@Z
	??$_Voidify_iter@PEAU_Container_proxy@std@@@std@@YAPEAXPEAU_Container_proxy@0@@Z
	??$_Voidify_iter@PEAV?$Color4@E@vcg@@@std@@YAPEAXPEAV?$Color4@E@vcg@@@Z
	??$_Voidify_iter@PEAV?$HEdge@V?$UsedTypes@UAsVertexType@?$Use@VCVertexO@@@vcg@@UAsEdgeType@?$Use@VCEdgeO@@@3@UAsFaceType@?$Use@VCFaceO@@@3@VDefaultDeriver@3@V83@V83@V83@V83@@vcg@@VDefaultDeriver@2@V32@V32@V32@V32@V32@V32@V32@V32@V32@V32@@vcg@@@std@@YAPEAXPEAV?$HEdge@V?$UsedTypes@UAsVertexType@?$Use@VCVertexO@@@vcg@@UAsEdgeType@?$Use@VCEdgeO@@@3@UAsFaceType@?$Use@VCFaceO@@@3@VDefaultDeriver@3@V83@V83@V83@V83@@vcg@@VDefaultDeriver@2@V32@V32@V32@V32@V32@V32@V32@V32@V32@V32@@vcg@@@Z
	??$_Voidify_iter@PEAV?$Matrix@I$0?0$00$0A@$0?0$00@Eigen@@@std@@YAPEAXPEAV?$Matrix@I$0?0$00$0A@$0?0$00@Eigen@@@Z
	??$_Voidify_iter@PEAV?$Point2@M@vcg@@@std@@YAPEAXPEAV?$Point2@M@vcg@@@Z
	??$_Voidify_iter@PEAV?$Point3@M@vcg@@@std@@YAPEAXPEAV?$Point3@M@vcg@@@Z
	??$_Voidify_iter@PEAV?$TetraSimp@V?$UsedTypes@UAsVertexType@?$Use@VCVertexO@@@vcg@@UAsEdgeType@?$Use@VCEdgeO@@@3@UAsFaceType@?$Use@VCFaceO@@@3@VDefaultDeriver@3@V83@V83@V83@V83@@vcg@@VDefaultDeriver@2@V32@V32@V32@V32@V32@V32@V32@V32@V32@V32@V32@@vcg@@@std@@YAPEAXPEAV?$TetraSimp@V?$UsedTypes@UAsVertexType@?$Use@VCVertexO@@@vcg@@UAsEdgeType@?$Use@VCEdgeO@@@3@UAsFaceType@?$Use@VCFaceO@@@3@VDefaultDeriver@3@V83@V83@V83@V83@@vcg@@VDefaultDeriver@2@V32@V32@V32@V32@V32@V32@V32@V32@V32@V32@V32@@vcg@@@Z
	??$_Voidify_iter@PEAV?$TexCoord2@M$00@vcg@@@std@@YAPEAXPEAV?$TexCoord2@M$00@vcg@@@Z
	??$_Voidify_iter@PEAV?$basic_string@DU?$char_traits@D@std@@V?$allocator@D@2@@std@@@std@@YAPEAXPEAV?$basic_string@DU?$char_traits@D@std@@V?$allocator@D@2@@0@@Z
	??$_Voidify_iter@PEAV?$vector@IV?$allocator@I@std@@@std@@@std@@YAPEAXPEAV?$vector@IV?$allocator@I@std@@@0@@Z
	??$_Voidify_iter@PEAVCEdgeO@@@std@@YAPEAXPEAVCEdgeO@@@Z
	??$_Voidify_iter@PEAVCFaceO@@@std@@YAPEAXPEAVCFaceO@@@Z
	??$_Voidify_iter@PEAVCVertexO@@@std@@YAPEAXPEAVCVertexO@@@Z
	??$_Voidify_iter@PEAVEdgeVertInd@?$NotThreadSafeGLMeshAttributesMultiViewerBOManager@VCMeshO@@PEAVQGLContext@@UMLPerViewGLOptions@@@vcg@@@std@@YAPEAXPEAVEdgeVertInd@?$NotThreadSafeGLMeshAttributesMultiViewerBOManager@VCMeshO@@PEAVQGLContext@@UMLPerViewGLOptions@@@vcg@@@Z
	??$_Voidify_iter@PEAVFunction@pymeshlab@@@std@@YAPEAXPEAVFunction@pymeshlab@@@Z
	??$_Voidify_iter@PEAVFunctionParameter@pymeshlab@@@std@@YAPEAXPEAVFunctionParameter@pymeshlab@@@Z
	??$_Voidify_iter@PEAVInternalRendAtts@GLMeshAttributesInfo@vcg@@@std@@YAPEAXPEAVInternalRendAtts@GLMeshAttributesInfo@vcg@@@Z
	??$_Voidify_iter@PEAVMeshModel@@@std@@YAPEAXPEAVMeshModel@@@Z
	??$_Voidify_iter@PEAVPEdge@?$UpdateTopology@VCMeshO@@@tri@vcg@@@std@@YAPEAXPEAVPEdge@?$UpdateTopology@VCMeshO@@@tri@vcg@@@Z
	??$_Voidify_iter@PEAVPFace@vcg@@@std@@YAPEAXPEAVPFace@vcg@@@Z
	??$_Voidify_iter@PEAVPVertex@vcg@@@std@@YAPEAXPEAVPVertex@vcg@@@Z
	??$_Voidify_iter@PEAVPointerToAttribute@vcg@@@std@@YAPEAXPEAVPointerToAttribute@vcg@@@Z
	??$_Voidify_iter@PEAVQString@@@std@@YAPEAXPEAVQString@@@Z
	??$_Voidify_iter@PEAVRasterModel@@@std@@YAPEAXPEAVRasterModel@@@Z
	??$_Voidify_iter@PEAVWedgeColorTypePack@?$vector_ocf@VCFaceO@@@face@vcg@@@std@@YAPEAXPEAVWedgeColorTypePack@?$vector_ocf@VCFaceO@@@face@vcg@@@Z
	??$_Voidify_iter@PEAVWedgeNormalTypePack@?$vector_ocf@VCFaceO@@@face@vcg@@@std@@YAPEAXPEAVWedgeNormalTypePack@?$vector_ocf@VCFaceO@@@face@vcg@@@Z
	??$_Voidify_iter@PEAVWedgeTexTypePack@?$vector_ocf@VCFaceO@@@face@vcg@@@std@@YAPEAXPEAVWedgeTexTypePack@?$vector_ocf@VCFaceO@@@face@vcg@@@Z
	??$_Voidify_iter@PEA_K@std@@YAPEAXPEA_K@Z
	??$_Zero_range@PEAH@std@@YAPEAHQEAH0@Z
	??$_Zero_range@PEAI@std@@YAPEAIQEAI0@Z
	??$_Zero_range@PEAM@std@@YAPEAMQEAM0@Z
	??$_Zero_range@PEAPEAVCVertexO@@@std@@YAPEAPEAVCVertexO@@QEAPEAV1@0@Z
	??$_Zero_range@PEAPEAVPVertex@vcg@@@std@@YAPEAPEAVPVertex@vcg@@QEAPEAV12@0@Z
	??$_Zero_range@PEAPEAVQAction@@@std@@YAPEAPEAVQAction@@QEAPEAV1@0@Z
	??$_init1@H@?$PlainObjectBase@V?$Matrix@I$0?0$00$0A@$0?0$00@Eigen@@@Eigen@@IEAAX_JPEAH@Z
	??$_init1@H@?$PlainObjectBase@V?$Matrix@M$0?0$00$0A@$0?0$00@Eigen@@@Eigen@@IEAAX_JPEAH@Z
	??$_init1@H@?$PlainObjectBase@V?$Matrix@_N$0?0$00$0A@$0?0$00@Eigen@@@Eigen@@IEAAX_JPEAH@Z
	??$_init1@I@?$PlainObjectBase@V?$Matrix@I$0?0$00$0A@$0?0$00@Eigen@@@Eigen@@IEAAX_JPEAI@Z
	??$_init2@HH@?$PlainObjectBase@V?$Matrix@H$0?0$02$0A@$0?0$02@Eigen@@@Eigen@@IEAAX_J0PEAH@Z
	??$_init2@HH@?$PlainObjectBase@V?$Matrix@H$0?0$0?0$0A@$0?0$0?0@Eigen@@@Eigen@@IEAAX_J0PEAH@Z
	??$_init2@HH@?$PlainObjectBase@V?$Matrix@M$0?0$01$0A@$0?0$01@Eigen@@@Eigen@@IEAAX_J0PEAH@Z
	??$_init2@HH@?$PlainObjectBase@V?$Matrix@M$0?0$02$0A@$0?0$02@Eigen@@@Eigen@@IEAAX_J0PEAH@Z
	??$_init2@HH@?$PlainObjectBase@V?$Matrix@M$0?0$03$0A@$0?0$03@Eigen@@@Eigen@@IEAAX_J0PEAH@Z
	??$_set_noalias@V?$Matrix@H$0?0$0?0$0A@$0?0$0?0@Eigen@@@?$PlainObjectBase@V?$Matrix@H$0?0$01$0A@$0?0$01@Eigen@@@Eigen@@IEAAAEAV?$Matrix@H$0?0$01$0A@$0?0$01@1@AEBV?$DenseBase@V?$Matrix@H$0?0$0?0$0A@$0?0$0?0@Eigen@@@1@@Z
	??$_set_noalias@V?$Matrix@H$0?0$0?0$0A@$0?0$0?0@Eigen@@@?$PlainObjectBase@V?$Matrix@H$0?0$02$0A@$0?0$02@Eigen@@@Eigen@@IEAAAEAV?$Matrix@H$0?0$02$0A@$0?0$02@1@AEBV?$DenseBase@V?$Matrix@H$0?0$0?0$0A@$0?0$0?0@Eigen@@@1@@Z
	??$addressof@$$CBU?$pair@$$CBFV?$vector@U?$pair@II@std@@V?$allocator@U?$pair@II@std@@@2@@std@@@std@@@std@@YAPEBU?$pair@$$CBFV?$vector@U?$pair@II@std@@V?$allocator@U?$pair@II@std@@@2@@std@@@0@AEBU10@@Z
	??$addressof@$$CBU?$pair@$$CBHPEAV?$QtThreadSafeGLMeshAttributesMultiViewerBOManager@VCMeshO@@PEAVQGLContext@@UMLPerViewGLOptions@@@vcg@@@std@@@std@@YAPEBU?$pair@$$CBHPEAV?$QtThreadSafeGLMeshAttributesMultiViewerBOManager@VCMeshO@@PEAVQGLContext@@UMLPerViewGLOptions@@@vcg@@@0@AEBU10@@Z
	??$addressof@$$CBU?$pair@$$CBV?$basic_string@DU?$char_traits@D@std@@V?$allocator@D@2@@std@@VQImage@@@std@@@std@@YAPEBU?$pair@$$CBV?$basic_string@DU?$char_traits@D@std@@V?$allocator@D@2@@std@@VQImage@@@0@AEBU10@@Z
	??$addressof@$$CBU?$pair@$$CBVQString@@V?$vector@PEAVQAction@@V?$allocator@PEAVQAction@@@std@@@std@@@std@@@std@@YAPEBU?$pair@$$CBVQString@@V?$vector@PEAVQAction@@V?$allocator@PEAVQAction@@@std@@@std@@@0@AEBU10@@Z
	??$addressof@$$CBU?$pair@QEAVQGLContext@@V?$PerViewData@UMLPerViewGLOptions@@@vcg@@@std@@@std@@YAPEBU?$pair@QEAVQGLContext@@V?$PerViewData@UMLPerViewGLOptions@@@vcg@@@0@AEBU10@@Z
	??$addressof@$$CBV?$Matrix@I$0?0$00$0A@$0?0$00@Eigen@@@std@@YAPEBV?$Matrix@I$0?0$00$0A@$0?0$00@Eigen@@AEBV12@@Z
	??$addressof@$$CBV?$RenderingAtts@UATT_NAMES@GLMeshAttributesInfo@vcg@@@GLMeshAttributesInfo@vcg@@@std@@YAPEBV?$RenderingAtts@UATT_NAMES@GLMeshAttributesInfo@vcg@@@GLMeshAttributesInfo@vcg@@AEBV123@@Z
	??$addressof@$$CBV?$_List_val@U?$_List_simple_types@PEAVMeshModel@@@std@@@std@@@std@@YAPEBV?$_List_val@U?$_List_simple_types@PEAVMeshModel@@@std@@@0@AEBV10@@Z
	??$addressof@$$CBV?$_List_val@U?$_List_simple_types@PEAVRichParameter@@@std@@@std@@@std@@YAPEBV?$_List_val@U?$_List_simple_types@PEAVRichParameter@@@std@@@0@AEBV10@@Z
	??$addressof@$$CBV?$_List_val@U?$_List_simple_types@V?$Matrix@I$0?0$00$0A@$0?0$00@Eigen@@@std@@@std@@@std@@YAPEBV?$_List_val@U?$_List_simple_types@V?$Matrix@I$0?0$00$0A@$0?0$00@Eigen@@@std@@@0@AEBV10@@Z
	??$addressof@$$CBV?$_List_val@U?$_List_simple_types@V?$basic_string@DU?$char_traits@D@std@@V?$allocator@D@2@@std@@@std@@@std@@@std@@YAPEBV?$_List_val@U?$_List_simple_types@V?$basic_string@DU?$char_traits@D@std@@V?$allocator@D@2@@std@@@std@@@0@AEBV10@@Z
	??$addressof@$$CBV?$_List_val@U?$_List_simple_types@VFilter@@@std@@@std@@@std@@YAPEBV?$_List_val@U?$_List_simple_types@VFilter@@@std@@@0@AEBV10@@Z
	??$addressof@$$CBV?$_List_val@U?$_List_simple_types@VFunctionParameter@pymeshlab@@@std@@@std@@@std@@YAPEBV?$_List_val@U?$_List_simple_types@VFunctionParameter@pymeshlab@@@std@@@0@AEBV10@@Z
	??$addressof@$$CBV?$_List_val@U?$_List_simple_types@VMeshModel@@@std@@@std@@@std@@YAPEBV?$_List_val@U?$_List_simple_types@VMeshModel@@@std@@@0@AEBV10@@Z
	??$addressof@$$CBV?$_List_val@U?$_List_simple_types@VRasterModel@@@std@@@std@@@std@@YAPEBV?$_List_val@U?$_List_simple_types@VRasterModel@@@std@@@0@AEBV10@@Z
	??$addressof@$$CBV?$_String_val@U?$_Simple_types@D@std@@@std@@@std@@YAPEBV?$_String_val@U?$_Simple_types@D@std@@@0@AEBV10@@Z
	??$addressof@$$CBV?$_Tree_val@U?$_Tree_simple_types@U?$pair@$$CBFV?$vector@U?$pair@II@std@@V?$allocator@U?$pair@II@std@@@2@@std@@@std@@@std@@@std@@@std@@YAPEBV?$_Tree_val@U?$_Tree_simple_types@U?$pair@$$CBFV?$vector@U?$pair@II@std@@V?$allocator@U?$pair@II@std@@@2@@std@@@std@@@std@@@0@AEBV10@@Z
	??$addressof@$$CBV?$_Tree_val@U?$_Tree_simple_types@U?$pair@$$CBHPEAV?$QtThreadSafeGLMeshAttributesMultiViewerBOManager@VCMeshO@@PEAVQGLContext@@UMLPerViewGLOptions@@@vcg@@@std@@@std@@@std@@@std@@YAPEBV?$_Tree_val@U?$_Tree_simple_types@U?$pair@$$CBHPEAV?$QtThreadSafeGLMeshAttributesMultiViewerBOManager@VCMeshO@@PEAVQGLContext@@UMLPerViewGLOptions@@@vcg@@@std@@@std@@@0@AEBV10@@Z
	??$addressof@$$CBV?$_Tree_val@U?$_Tree_simple_types@U?$pair@$$CBMV?$vector@PEAVQAction@@V?$allocator@PEAVQAction@@@std@@@std@@@std@@@std@@@std@@@std@@YAPEBV?$_Tree_val@U?$_Tree_simple_types@U?$pair@$$CBMV?$vector@PEAVQAction@@V?$allocator@PEAVQAction@@@std@@@std@@@std@@@std@@@0@AEBV10@@Z
	??$addressof@$$CBV?$_Tree_val@U?$_Tree_simple_types@U?$pair@$$CBV?$basic_string@DU?$char_traits@D@std@@V?$allocator@D@2@@std@@VQImage@@@std@@@std@@@std@@@std@@YAPEBV?$_Tree_val@U?$_Tree_simple_types@U?$pair@$$CBV?$basic_string@DU?$char_traits@D@std@@V?$allocator@D@2@@std@@VQImage@@@std@@@std@@@0@AEBV10@@Z
	??$addressof@$$CBV?$_Tree_val@U?$_Tree_simple_types@U?$pair@$$CBVQString@@V?$vector@PEAVQAction@@V?$allocator@PEAVQAction@@@std@@@std@@@std@@@std@@@std@@@std@@YAPEBV?$_Tree_val@U?$_Tree_simple_types@U?$pair@$$CBVQString@@V?$vector@PEAVQAction@@V?$allocator@PEAVQAction@@@std@@@std@@@std@@@std@@@0@AEBV10@@Z
	??$addressof@$$CBV?$_Tree_val@U?$_Tree_simple_types@U?$pair@QEAVQAction@@M@std@@@std@@@std@@@std@@YAPEBV?$_Tree_val@U?$_Tree_simple_types@U?$pair@QEAVQAction@@M@std@@@std@@@0@AEBV10@@Z
	??$addressof@$$CBV?$_Tree_val@U?$_Tree_simple_types@U?$pair@QEAVQGLContext@@V?$PerViewData@UMLPerViewGLOptions@@@vcg@@@std@@@std@@@std@@@std@@YAPEBV?$_Tree_val@U?$_Tree_simple_types@U?$pair@QEAVQGLContext@@V?$PerViewData@UMLPerViewGLOptions@@@vcg@@@std@@@std@@@0@AEBV10@@Z
	??$addressof@$$CBV?$_Tree_val@U?$_Tree_simple_types@VFunction@pymeshlab@@@std@@@std@@@std@@YAPEBV?$_Tree_val@U?$_Tree_simple_types@VFunction@pymeshlab@@@std@@@0@AEBV10@@Z
	??$addressof@$$CBV?$_Tree_val@U?$_Tree_simple_types@VPointerToAttribute@vcg@@@std@@@std@@@std@@YAPEBV?$_Tree_val@U?$_Tree_simple_types@VPointerToAttribute@vcg@@@std@@@0@AEBV10@@Z
	??$addressof@$$CBV?$_Tree_val@U?$_Tree_simple_types@VQString@@@std@@@std@@@std@@YAPEBV?$_Tree_val@U?$_Tree_simple_types@VQString@@@std@@@0@AEBV10@@Z
	??$addressof@$$CBV?$_Vector_val@U?$_Simple_types@PEAUGLBufferObject@?$NotThreadSafeGLMeshAttributesMultiViewerBOManager@VCMeshO@@PEAVQGLContext@@UMLPerViewGLOptions@@@vcg@@@std@@@std@@@std@@YAPEBV?$_Vector_val@U?$_Simple_types@PEAUGLBufferObject@?$NotThreadSafeGLMeshAttributesMultiViewerBOManager@VCMeshO@@PEAVQGLContext@@UMLPerViewGLOptions@@@vcg@@@std@@@0@AEBV10@@Z
	??$addressof@$$CBV?$_Vector_val@U?$_Simple_types@PEAVEditPlugin@@@std@@@std@@@std@@YAPEBV?$_Vector_val@U?$_Simple_types@PEAVEditPlugin@@@std@@@0@AEBV10@@Z
	??$addressof@$$CBV?$_Vector_val@U?$_Simple_types@PEAVFilterPlugin@@@std@@@std@@@std@@YAPEBV?$_Vector_val@U?$_Simple_types@PEAVFilterPlugin@@@std@@@0@AEBV10@@Z
	??$addressof@$$CBV?$_Vector_val@U?$_Simple_types@PEAVIOPlugin@@@std@@@std@@@std@@YAPEBV?$_Vector_val@U?$_Simple_types@PEAVIOPlugin@@@std@@@0@AEBV10@@Z
	??$addressof@$$CBV?$_Vector_val@U?$_Simple_types@PEAVMeshLabPlugin@@@std@@@std@@@std@@YAPEBV?$_Vector_val@U?$_Simple_types@PEAVMeshLabPlugin@@@std@@@0@AEBV10@@Z
	??$addressof@$$CBV?$_Vector_val@U?$_Simple_types@PEAVRenderPlugin@@@std@@@std@@@std@@YAPEBV?$_Vector_val@U?$_Simple_types@PEAVRenderPlugin@@@std@@@0@AEBV10@@Z
	??$addressof@$$CBV?$_Vector_val@U?$_Simple_types@U?$pair@FI@std@@@std@@@std@@@std@@YAPEBV?$_Vector_val@U?$_Simple_types@U?$pair@FI@std@@@std@@@0@AEBV10@@Z
	??$addressof@$$CBV?$_Vector_val@U?$_Simple_types@U?$pair@II@std@@@std@@@std@@@std@@YAPEBV?$_Vector_val@U?$_Simple_types@U?$pair@II@std@@@std@@@0@AEBV10@@Z
	??$addressof@$$CBV?$_Vector_val@U?$_Simple_types@V?$HEdge@V?$UsedTypes@UAsVertexType@?$Use@VCVertexO@@@vcg@@UAsEdgeType@?$Use@VCEdgeO@@@3@UAsFaceType@?$Use@VCFaceO@@@3@VDefaultDeriver@3@V83@V83@V83@V83@@vcg@@VDefaultDeriver@2@V32@V32@V32@V32@V32@V32@V32@V32@V32@V32@@vcg@@@std@@@std@@@std@@YAPEBV?$_Vector_val@U?$_Simple_types@V?$HEdge@V?$UsedTypes@UAsVertexType@?$Use@VCVertexO@@@vcg@@UAsEdgeType@?$Use@VCEdgeO@@@3@UAsFaceType@?$Use@VCFaceO@@@3@VDefaultDeriver@3@V83@V83@V83@V83@@vcg@@VDefaultDeriver@2@V32@V32@V32@V32@V32@V32@V32@V32@V32@V32@@vcg@@@std@@@0@AEBV10@@Z
	??$addressof@$$CBV?$_Vector_val@U?$_Simple_types@V?$TetraSimp@V?$UsedTypes@UAsVertexType@?$Use@VCVertexO@@@vcg@@UAsEdgeType@?$Use@VCEdgeO@@@3@UAsFaceType@?$Use@VCFaceO@@@3@VDefaultDeriver@3@V83@V83@V83@V83@@vcg@@VDefaultDeriver@2@V32@V32@V32@V32@V32@V32@V32@V32@V32@V32@V32@@vcg@@@std@@@std@@@std@@YAPEBV?$_Vector_val@U?$_Simple_types@V?$TetraSimp@V?$UsedTypes@UAsVertexType@?$Use@VCVertexO@@@vcg@@UAsEdgeType@?$Use@VCEdgeO@@@3@UAsFaceType@?$Use@VCFaceO@@@3@VDefaultDeriver@3@V83@V83@V83@V83@@vcg@@VDefaultDeriver@2@V32@V32@V32@V32@V32@V32@V32@V32@V32@V32@V32@@vcg@@@std@@@0@AEBV10@@Z
	??$addressof@$$CBV?$_Vector_val@U?$_Simple_types@VCEdgeO@@@std@@@std@@@std@@YAPEBV?$_Vector_val@U?$_Simple_types@VCEdgeO@@@std@@@0@AEBV10@@Z
	??$addressof@$$CBV?$_Vector_val@U?$_Simple_types@VCFaceO@@@std@@@std@@@std@@YAPEBV?$_Vector_val@U?$_Simple_types@VCFaceO@@@std@@@0@AEBV10@@Z
	??$addressof@$$CBV?$_Vector_val@U?$_Simple_types@VCVertexO@@@std@@@std@@@std@@YAPEBV?$_Vector_val@U?$_Simple_types@VCVertexO@@@std@@@0@AEBV10@@Z
	??$addressof@$$CBV?$_Vector_val@U?$_Simple_types@VPFace@vcg@@@std@@@std@@@std@@YAPEBV?$_Vector_val@U?$_Simple_types@VPFace@vcg@@@std@@@0@AEBV10@@Z
	??$addressof@$$CBV?$_Vector_val@U?$_Simple_types@VPVertex@vcg@@@std@@@std@@@std@@YAPEBV?$_Vector_val@U?$_Simple_types@VPVertex@vcg@@@std@@@0@AEBV10@@Z
	??$addressof@$$CBV?$basic_string@DU?$char_traits@D@std@@V?$allocator@D@2@@std@@@std@@YAPEBV?$basic_string@DU?$char_traits@D@std@@V?$allocator@D@2@@0@AEBV10@@Z
	??$addressof@$$CBV?$vector@V?$basic_string@DU?$char_traits@D@std@@V?$allocator@D@2@@std@@V?$allocator@V?$basic_string@DU?$char_traits@D@std@@V?$allocator@D@2@@std@@@2@@std@@@std@@YAPEBV?$vector@V?$basic_string@DU?$char_traits@D@std@@V?$allocator@D@2@@std@@V?$allocator@V?$basic_string@DU?$char_traits@D@std@@V?$allocator@D@2@@std@@@2@@0@AEBV10@@Z
	??$addressof@$$CBV?$vector@VInternalRendAtts@GLMeshAttributesInfo@vcg@@V?$allocator@VInternalRendAtts@GLMeshAttributesInfo@vcg@@@std@@@std@@@std@@YAPEBV?$vector@VInternalRendAtts@GLMeshAttributesInfo@vcg@@V?$allocator@VInternalRendAtts@GLMeshAttributesInfo@vcg@@@std@@@0@AEBV10@@Z
	??$addressof@$$CBVMLRenderingData@@@std@@YAPEBVMLRenderingData@@AEBV1@@Z
	??$addressof@$$CBVPointerToAttribute@vcg@@@std@@YAPEBVPointerToAttribute@vcg@@AEBV12@@Z
	??$addressof@D@std@@YAPEADAEAD@Z
	??$addressof@H@std@@YAPEAHAEAH@Z
	??$addressof@I@std@@YAPEAIAEAI@Z
	??$addressof@PEAD@std@@YAPEAPEADAEAPEAD@Z
	??$addressof@PEAU?$_List_node@HPEAX@std@@@std@@YAPEAPEAU?$_List_node@HPEAX@0@AEAPEAU10@@Z
	??$addressof@PEAU?$_List_node@PEAVMeshModel@@PEAX@std@@@std@@YAPEAPEAU?$_List_node@PEAVMeshModel@@PEAX@0@AEAPEAU10@@Z
	??$addressof@PEAU?$_List_node@PEAVRichParameter@@PEAX@std@@@std@@YAPEAPEAU?$_List_node@PEAVRichParameter@@PEAX@0@AEAPEAU10@@Z
	??$addressof@PEAU?$_List_node@U?$pair@VQString@@V1@@std@@PEAX@std@@@std@@YAPEAPEAU?$_List_node@U?$pair@VQString@@V1@@std@@PEAX@0@AEAPEAU10@@Z
	??$addressof@PEAU?$_List_node@V?$Matrix@I$0?0$00$0A@$0?0$00@Eigen@@PEAX@std@@@std@@YAPEAPEAU?$_List_node@V?$Matrix@I$0?0$00$0A@$0?0$00@Eigen@@PEAX@0@AEAPEAU10@@Z
	??$addressof@PEAU?$_List_node@V?$basic_string@DU?$char_traits@D@std@@V?$allocator@D@2@@std@@PEAX@std@@@std@@YAPEAPEAU?$_List_node@V?$basic_string@DU?$char_traits@D@std@@V?$allocator@D@2@@std@@PEAX@0@AEAPEAU10@@Z
	??$addressof@PEAU?$_List_node@VFunctionParameter@pymeshlab@@PEAX@std@@@std@@YAPEAPEAU?$_List_node@VFunctionParameter@pymeshlab@@PEAX@0@AEAPEAU10@@Z
	??$addressof@PEAU?$_List_node@VMeshModel@@PEAX@std@@@std@@YAPEAPEAU?$_List_node@VMeshModel@@PEAX@0@AEAPEAU10@@Z
	??$addressof@PEAU?$_List_node@VRasterModel@@PEAX@std@@@std@@YAPEAPEAU?$_List_node@VRasterModel@@PEAX@0@AEAPEAU10@@Z
	??$addressof@PEAU?$_Tree_node@U?$pair@$$CBFV?$vector@U?$pair@II@std@@V?$allocator@U?$pair@II@std@@@2@@std@@@std@@PEAX@std@@@std@@YAPEAPEAU?$_Tree_node@U?$pair@$$CBFV?$vector@U?$pair@II@std@@V?$allocator@U?$pair@II@std@@@2@@std@@@std@@PEAX@0@AEAPEAU10@@Z
	??$addressof@PEAU?$_Tree_node@U?$pair@$$CBHPEAV?$QtThreadSafeGLMeshAttributesMultiViewerBOManager@VCMeshO@@PEAVQGLContext@@UMLPerViewGLOptions@@@vcg@@@std@@PEAX@std@@@std@@YAPEAPEAU?$_Tree_node@U?$pair@$$CBHPEAV?$QtThreadSafeGLMeshAttributesMultiViewerBOManager@VCMeshO@@PEAVQGLContext@@UMLPerViewGLOptions@@@vcg@@@std@@PEAX@0@AEAPEAU10@@Z
	??$addressof@PEAU?$_Tree_node@U?$pair@$$CBMV?$vector@PEAVQAction@@V?$allocator@PEAVQAction@@@std@@@std@@@std@@PEAX@std@@@std@@YAPEAPEAU?$_Tree_node@U?$pair@$$CBMV?$vector@PEAVQAction@@V?$allocator@PEAVQAction@@@std@@@std@@@std@@PEAX@0@AEAPEAU10@@Z
	??$addressof@PEAU?$_Tree_node@U?$pair@$$CBV?$basic_string@DU?$char_traits@D@std@@V?$allocator@D@2@@std@@VQImage@@@std@@PEAX@std@@@std@@YAPEAPEAU?$_Tree_node@U?$pair@$$CBV?$basic_string@DU?$char_traits@D@std@@V?$allocator@D@2@@std@@VQImage@@@std@@PEAX@0@AEAPEAU10@@Z
	??$addressof@PEAU?$_Tree_node@U?$pair@$$CBVQString@@V?$vector@PEAVQAction@@V?$allocator@PEAVQAction@@@std@@@std@@@std@@PEAX@std@@@std@@YAPEAPEAU?$_Tree_node@U?$pair@$$CBVQString@@V?$vector@PEAVQAction@@V?$allocator@PEAVQAction@@@std@@@std@@@std@@PEAX@0@AEAPEAU10@@Z
	??$addressof@PEAU?$_Tree_node@U?$pair@QEAVQAction@@M@std@@PEAX@std@@@std@@YAPEAPEAU?$_Tree_node@U?$pair@QEAVQAction@@M@std@@PEAX@0@AEAPEAU10@@Z
	??$addressof@PEAU?$_Tree_node@U?$pair@QEAVQGLContext@@V?$PerViewData@UMLPerViewGLOptions@@@vcg@@@std@@PEAX@std@@@std@@YAPEAPEAU?$_Tree_node@U?$pair@QEAVQGLContext@@V?$PerViewData@UMLPerViewGLOptions@@@vcg@@@std@@PEAX@0@AEAPEAU10@@Z
	??$addressof@PEAU?$_Tree_node@VFunction@pymeshlab@@PEAX@std@@@std@@YAPEAPEAU?$_Tree_node@VFunction@pymeshlab@@PEAX@0@AEAPEAU10@@Z
	??$addressof@PEAU?$_Tree_node@VPointerToAttribute@vcg@@PEAX@std@@@std@@YAPEAPEAU?$_Tree_node@VPointerToAttribute@vcg@@PEAX@0@AEAPEAU10@@Z
	??$addressof@PEAU?$_Tree_node@VQString@@PEAX@std@@@std@@YAPEAPEAU?$_Tree_node@VQString@@PEAX@0@AEAPEAU10@@Z
	??$addressof@PEAVMeshModel@@@std@@YAPEAPEAVMeshModel@@AEAPEAV1@@Z
	??$addressof@PEAVQAction@@@std@@YAPEAPEAVQAction@@AEAPEAV1@@Z
	??$addressof@PEAVQGLContext@@@std@@YAPEAPEAVQGLContext@@AEAPEAV1@@Z
	??$addressof@PEAVRichParameter@@@std@@YAPEAPEAVRichParameter@@AEAPEAV1@@Z
	??$addressof@U?$pair@$$CBFV?$vector@U?$pair@II@std@@V?$allocator@U?$pair@II@std@@@2@@std@@@std@@@std@@YAPEAU?$pair@$$CBFV?$vector@U?$pair@II@std@@V?$allocator@U?$pair@II@std@@@2@@std@@@0@AEAU10@@Z
	??$addressof@U?$pair@$$CBHPEAV?$QtThreadSafeGLMeshAttributesMultiViewerBOManager@VCMeshO@@PEAVQGLContext@@UMLPerViewGLOptions@@@vcg@@@std@@@std@@YAPEAU?$pair@$$CBHPEAV?$QtThreadSafeGLMeshAttributesMultiViewerBOManager@VCMeshO@@PEAVQGLContext@@UMLPerViewGLOptions@@@vcg@@@0@AEAU10@@Z
	??$addressof@U?$pair@$$CBMV?$vector@PEAVQAction@@V?$allocator@PEAVQAction@@@std@@@std@@@std@@@std@@YAPEAU?$pair@$$CBMV?$vector@PEAVQAction@@V?$allocator@PEAVQAction@@@std@@@std@@@0@AEAU10@@Z
	??$addressof@U?$pair@$$CBV?$basic_string@DU?$char_traits@D@std@@V?$allocator@D@2@@std@@VQImage@@@std@@@std@@YAPEAU?$pair@$$CBV?$basic_string@DU?$char_traits@D@std@@V?$allocator@D@2@@std@@VQImage@@@0@AEAU10@@Z
	??$addressof@U?$pair@$$CBVQString@@V?$vector@PEAVQAction@@V?$allocator@PEAVQAction@@@std@@@std@@@std@@@std@@YAPEAU?$pair@$$CBVQString@@V?$vector@PEAVQAction@@V?$allocator@PEAVQAction@@@std@@@std@@@0@AEAU10@@Z
	??$addressof@U?$pair@QEAVQAction@@M@std@@@std@@YAPEAU?$pair@QEAVQAction@@M@0@AEAU10@@Z
	??$addressof@U?$pair@QEAVQGLContext@@V?$PerViewData@UMLPerViewGLOptions@@@vcg@@@std@@@std@@YAPEAU?$pair@QEAVQGLContext@@V?$PerViewData@UMLPerViewGLOptions@@@vcg@@@0@AEAU10@@Z
	??$addressof@U?$pair@VQString@@V1@@std@@@std@@YAPEAU?$pair@VQString@@V1@@0@AEAU10@@Z
	??$addressof@U_Container_base12@std@@@std@@YAPEAU_Container_base12@0@AEAU10@@Z
	??$addressof@U_Container_proxy@std@@@std@@YAPEAU_Container_proxy@0@AEAU10@@Z
	??$addressof@V?$Matrix@I$0?0$00$0A@$0?0$00@Eigen@@@std@@YAPEAV?$Matrix@I$0?0$00$0A@$0?0$00@Eigen@@AEAV12@@Z
	??$addressof@V?$QList@VQString@@@@@std@@YAPEAV?$QList@VQString@@@@AEAV1@@Z
	??$addressof@V?$_List_val@U?$_List_simple_types@H@std@@@std@@@std@@YAPEAV?$_List_val@U?$_List_simple_types@H@std@@@0@AEAV10@@Z
	??$addressof@V?$_List_val@U?$_List_simple_types@PEAVQAction@@@std@@@std@@@std@@YAPEAV?$_List_val@U?$_List_simple_types@PEAVQAction@@@std@@@0@AEAV10@@Z
	??$addressof@V?$_List_val@U?$_List_simple_types@PEAVRichParameter@@@std@@@std@@@std@@YAPEAV?$_List_val@U?$_List_simple_types@PEAVRichParameter@@@std@@@0@AEAV10@@Z
	??$addressof@V?$_List_val@U?$_List_simple_types@V?$basic_string@DU?$char_traits@D@std@@V?$allocator@D@2@@std@@@std@@@std@@@std@@YAPEAV?$_List_val@U?$_List_simple_types@V?$basic_string@DU?$char_traits@D@std@@V?$allocator@D@2@@std@@@std@@@0@AEAV10@@Z
	??$addressof@V?$_List_val@U?$_List_simple_types@VFilter@@@std@@@std@@@std@@YAPEAV?$_List_val@U?$_List_simple_types@VFilter@@@std@@@0@AEAV10@@Z
	??$addressof@V?$_List_val@U?$_List_simple_types@VMeshModel@@@std@@@std@@@std@@YAPEAV?$_List_val@U?$_List_simple_types@VMeshModel@@@std@@@0@AEAV10@@Z
	??$addressof@V?$_List_val@U?$_List_simple_types@VRasterModel@@@std@@@std@@@std@@YAPEAV?$_List_val@U?$_List_simple_types@VRasterModel@@@std@@@0@AEAV10@@Z
	??$addressof@V?$_String_val@U?$_Simple_types@D@std@@@std@@@std@@YAPEAV?$_String_val@U?$_Simple_types@D@std@@@0@AEAV10@@Z
	??$addressof@V?$_Tree@V?$_Tset_traits@VPointerToAttribute@vcg@@U?$less@VPointerToAttribute@vcg@@@std@@V?$allocator@VPointerToAttribute@vcg@@@4@$0A@@std@@@std@@@std@@YAPEAV?$_Tree@V?$_Tset_traits@VPointerToAttribute@vcg@@U?$less@VPointerToAttribute@vcg@@@std@@V?$allocator@VPointerToAttribute@vcg@@@4@$0A@@std@@@0@AEAV10@@Z
	??$addressof@V?$_Tree_val@U?$_Tree_simple_types@U?$pair@$$CBFV?$vector@U?$pair@II@std@@V?$allocator@U?$pair@II@std@@@2@@std@@@std@@@std@@@std@@@std@@YAPEAV?$_Tree_val@U?$_Tree_simple_types@U?$pair@$$CBFV?$vector@U?$pair@II@std@@V?$allocator@U?$pair@II@std@@@2@@std@@@std@@@std@@@0@AEAV10@@Z
	??$addressof@V?$_Tree_val@U?$_Tree_simple_types@U?$pair@$$CBHPEAV?$QtThreadSafeGLMeshAttributesMultiViewerBOManager@VCMeshO@@PEAVQGLContext@@UMLPerViewGLOptions@@@vcg@@@std@@@std@@@std@@@std@@YAPEAV?$_Tree_val@U?$_Tree_simple_types@U?$pair@$$CBHPEAV?$QtThreadSafeGLMeshAttributesMultiViewerBOManager@VCMeshO@@PEAVQGLContext@@UMLPerViewGLOptions@@@vcg@@@std@@@std@@@0@AEAV10@@Z
	??$addressof@V?$_Tree_val@U?$_Tree_simple_types@U?$pair@$$CBMV?$vector@PEAVQAction@@V?$allocator@PEAVQAction@@@std@@@std@@@std@@@std@@@std@@@std@@YAPEAV?$_Tree_val@U?$_Tree_simple_types@U?$pair@$$CBMV?$vector@PEAVQAction@@V?$allocator@PEAVQAction@@@std@@@std@@@std@@@std@@@0@AEAV10@@Z
	??$addressof@V?$_Tree_val@U?$_Tree_simple_types@U?$pair@$$CBV?$basic_string@DU?$char_traits@D@std@@V?$allocator@D@2@@std@@VQImage@@@std@@@std@@@std@@@std@@YAPEAV?$_Tree_val@U?$_Tree_simple_types@U?$pair@$$CBV?$basic_string@DU?$char_traits@D@std@@V?$allocator@D@2@@std@@VQImage@@@std@@@std@@@0@AEAV10@@Z
	??$addressof@V?$_Tree_val@U?$_Tree_simple_types@U?$pair@$$CBVQString@@V?$vector@PEAVQAction@@V?$allocator@PEAVQAction@@@std@@@std@@@std@@@std@@@std@@@std@@YAPEAV?$_Tree_val@U?$_Tree_simple_types@U?$pair@$$CBVQString@@V?$vector@PEAVQAction@@V?$allocator@PEAVQAction@@@std@@@std@@@std@@@std@@@0@AEAV10@@Z
	??$addressof@V?$_Tree_val@U?$_Tree_simple_types@U?$pair@QEAVQAction@@M@std@@@std@@@std@@@std@@YAPEAV?$_Tree_val@U?$_Tree_simple_types@U?$pair@QEAVQAction@@M@std@@@std@@@0@AEAV10@@Z
	??$addressof@V?$_Tree_val@U?$_Tree_simple_types@U?$pair@QEAVQGLContext@@V?$PerViewData@UMLPerViewGLOptions@@@vcg@@@std@@@std@@@std@@@std@@YAPEAV?$_Tree_val@U?$_Tree_simple_types@U?$pair@QEAVQGLContext@@V?$PerViewData@UMLPerViewGLOptions@@@vcg@@@std@@@std@@@0@AEAV10@@Z
	??$addressof@V?$_Tree_val@U?$_Tree_simple_types@VFunction@pymeshlab@@@std@@@std@@@std@@YAPEAV?$_Tree_val@U?$_Tree_simple_types@VFunction@pymeshlab@@@std@@@0@AEAV10@@Z
	??$addressof@V?$_Tree_val@U?$_Tree_simple_types@VPointerToAttribute@vcg@@@std@@@std@@@std@@YAPEAV?$_Tree_val@U?$_Tree_simple_types@VPointerToAttribute@vcg@@@std@@@0@AEAV10@@Z
	??$addressof@V?$_Tree_val@U?$_Tree_simple_types@VQString@@@std@@@std@@@std@@YAPEAV?$_Tree_val@U?$_Tree_simple_types@VQString@@@std@@@0@AEAV10@@Z
	??$addressof@V?$_Vector_val@U?$_Simple_types@I@std@@@std@@@std@@YAPEAV?$_Vector_val@U?$_Simple_types@I@std@@@0@AEAV10@@Z
	??$addressof@V?$_Vector_val@U?$_Simple_types@M@std@@@std@@@std@@YAPEAV?$_Vector_val@U?$_Simple_types@M@std@@@0@AEAV10@@Z
	??$addressof@V?$_Vector_val@U?$_Simple_types@PEAUGLBufferObject@?$NotThreadSafeGLMeshAttributesMultiViewerBOManager@VCMeshO@@PEAVQGLContext@@UMLPerViewGLOptions@@@vcg@@@std@@@std@@@std@@YAPEAV?$_Vector_val@U?$_Simple_types@PEAUGLBufferObject@?$NotThreadSafeGLMeshAttributesMultiViewerBOManager@VCMeshO@@PEAVQGLContext@@UMLPerViewGLOptions@@@vcg@@@std@@@0@AEAV10@@Z
	??$addressof@V?$_Vector_val@U?$_Simple_types@PEAVCVertexO@@@std@@@std@@@std@@YAPEAV?$_Vector_val@U?$_Simple_types@PEAVCVertexO@@@std@@@0@AEAV10@@Z
	??$addressof@V?$_Vector_val@U?$_Simple_types@PEAVDecoratePlugin@@@std@@@std@@@std@@YAPEAV?$_Vector_val@U?$_Simple_types@PEAVDecoratePlugin@@@std@@@0@AEAV10@@Z
	??$addressof@V?$_Vector_val@U?$_Simple_types@PEAVEditPlugin@@@std@@@std@@@std@@YAPEAV?$_Vector_val@U?$_Simple_types@PEAVEditPlugin@@@std@@@0@AEAV10@@Z
	??$addressof@V?$_Vector_val@U?$_Simple_types@PEAVFilterPlugin@@@std@@@std@@@std@@YAPEAV?$_Vector_val@U?$_Simple_types@PEAVFilterPlugin@@@std@@@0@AEAV10@@Z
	??$addressof@V?$_Vector_val@U?$_Simple_types@PEAVIOPlugin@@@std@@@std@@@std@@YAPEAV?$_Vector_val@U?$_Simple_types@PEAVIOPlugin@@@std@@@0@AEAV10@@Z
	??$addressof@V?$_Vector_val@U?$_Simple_types@PEAVMeshLabPlugin@@@std@@@std@@@std@@YAPEAV?$_Vector_val@U?$_Simple_types@PEAVMeshLabPlugin@@@std@@@0@AEAV10@@Z
	??$addressof@V?$_Vector_val@U?$_Simple_types@PEAVQAction@@@std@@@std@@@std@@YAPEAV?$_Vector_val@U?$_Simple_types@PEAVQAction@@@std@@@0@AEAV10@@Z
	??$addressof@V?$_Vector_val@U?$_Simple_types@PEAVQPluginLoader@@@std@@@std@@@std@@YAPEAV?$_Vector_val@U?$_Simple_types@PEAVQPluginLoader@@@std@@@0@AEAV10@@Z
	??$addressof@V?$_Vector_val@U?$_Simple_types@PEAVRenderPlugin@@@std@@@std@@@std@@YAPEAV?$_Vector_val@U?$_Simple_types@PEAVRenderPlugin@@@std@@@0@AEAV10@@Z
	??$addressof@V?$_Vector_val@U?$_Simple_types@V?$Color4@E@vcg@@@std@@@std@@@std@@YAPEAV?$_Vector_val@U?$_Simple_types@V?$Color4@E@vcg@@@std@@@0@AEAV10@@Z
	??$addressof@V?$_Vector_val@U?$_Simple_types@V?$HEdge@V?$UsedTypes@UAsVertexType@?$Use@VCVertexO@@@vcg@@UAsEdgeType@?$Use@VCEdgeO@@@3@UAsFaceType@?$Use@VCFaceO@@@3@VDefaultDeriver@3@V83@V83@V83@V83@@vcg@@VDefaultDeriver@2@V32@V32@V32@V32@V32@V32@V32@V32@V32@V32@@vcg@@@std@@@std@@@std@@YAPEAV?$_Vector_val@U?$_Simple_types@V?$HEdge@V?$UsedTypes@UAsVertexType@?$Use@VCVertexO@@@vcg@@UAsEdgeType@?$Use@VCEdgeO@@@3@UAsFaceType@?$Use@VCFaceO@@@3@VDefaultDeriver@3@V83@V83@V83@V83@@vcg@@VDefaultDeriver@2@V32@V32@V32@V32@V32@V32@V32@V32@V32@V32@@vcg@@@std@@@0@AEAV10@@Z
	??$addressof@V?$_Vector_val@U?$_Simple_types@V?$HEdge@V?$UsedTypes@UAsVertexType@?$Use@VPVertex@vcg@@@vcg@@UAsEdgeType@?$Use@VPEdge@vcg@@@3@UAsFaceType@?$Use@VPFace@vcg@@@3@VDefaultDeriver@3@V83@V83@V83@V83@@vcg@@VDefaultDeriver@2@V32@V32@V32@V32@V32@V32@V32@V32@V32@V32@@vcg@@@std@@@std@@@std@@YAPEAV?$_Vector_val@U?$_Simple_types@V?$HEdge@V?$UsedTypes@UAsVertexType@?$Use@VPVertex@vcg@@@vcg@@UAsEdgeType@?$Use@VPEdge@vcg@@@3@UAsFaceType@?$Use@VPFace@vcg@@@3@VDefaultDeriver@3@V83@V83@V83@V83@@vcg@@VDefaultDeriver@2@V32@V32@V32@V32@V32@V32@V32@V32@V32@V32@@vcg@@@std@@@0@AEAV10@@Z
	??$addressof@V?$_Vector_val@U?$_Simple_types@V?$Point3@M@vcg@@@std@@@std@@@std@@YAPEAV?$_Vector_val@U?$_Simple_types@V?$Point3@M@vcg@@@std@@@0@AEAV10@@Z
	??$addressof@V?$_Vector_val@U?$_Simple_types@V?$TetraSimp@V?$UsedTypes@UAsVertexType@?$Use@VCVertexO@@@vcg@@UAsEdgeType@?$Use@VCEdgeO@@@3@UAsFaceType@?$Use@VCFaceO@@@3@VDefaultDeriver@3@V83@V83@V83@V83@@vcg@@VDefaultDeriver@2@V32@V32@V32@V32@V32@V32@V32@V32@V32@V32@V32@@vcg@@@std@@@std@@@std@@YAPEAV?$_Vector_val@U?$_Simple_types@V?$TetraSimp@V?$UsedTypes@UAsVertexType@?$Use@VCVertexO@@@vcg@@UAsEdgeType@?$Use@VCEdgeO@@@3@UAsFaceType@?$Use@VCFaceO@@@3@VDefaultDeriver@3@V83@V83@V83@V83@@vcg@@VDefaultDeriver@2@V32@V32@V32@V32@V32@V32@V32@V32@V32@V32@V32@@vcg@@@std@@@0@AEAV10@@Z
	??$addressof@V?$_Vector_val@U?$_Simple_types@V?$TetraSimp@V?$UsedTypes@UAsVertexType@?$Use@VPVertex@vcg@@@vcg@@UAsEdgeType@?$Use@VPEdge@vcg@@@3@UAsFaceType@?$Use@VPFace@vcg@@@3@VDefaultDeriver@3@V83@V83@V83@V83@@vcg@@VDefaultDeriver@2@V32@V32@V32@V32@V32@V32@V32@V32@V32@V32@V32@@vcg@@@std@@@std@@@std@@YAPEAV?$_Vector_val@U?$_Simple_types@V?$TetraSimp@V?$UsedTypes@UAsVertexType@?$Use@VPVertex@vcg@@@vcg@@UAsEdgeType@?$Use@VPEdge@vcg@@@3@UAsFaceType@?$Use@VPFace@vcg@@@3@VDefaultDeriver@3@V83@V83@V83@V83@@vcg@@VDefaultDeriver@2@V32@V32@V32@V32@V32@V32@V32@V32@V32@V32@V32@@vcg@@@std@@@0@AEAV10@@Z
	??$addressof@V?$_Vector_val@U?$_Simple_types@V?$basic_string@DU?$char_traits@D@std@@V?$allocator@D@2@@std@@@std@@@std@@@std@@YAPEAV?$_Vector_val@U?$_Simple_types@V?$basic_string@DU?$char_traits@D@std@@V?$allocator@D@2@@std@@@std@@@0@AEAV10@@Z
	??$addressof@V?$_Vector_val@U?$_Simple_types@VCEdgeO@@@std@@@std@@@std@@YAPEAV?$_Vector_val@U?$_Simple_types@VCEdgeO@@@std@@@0@AEAV10@@Z
	??$addressof@V?$_Vector_val@U?$_Simple_types@VCFaceO@@@std@@@std@@@std@@YAPEAV?$_Vector_val@U?$_Simple_types@VCFaceO@@@std@@@0@AEAV10@@Z
	??$addressof@V?$_Vector_val@U?$_Simple_types@VCVertexO@@@std@@@std@@@std@@YAPEAV?$_Vector_val@U?$_Simple_types@VCVertexO@@@std@@@0@AEAV10@@Z
	??$addressof@V?$_Vector_val@U?$_Simple_types@VEdgeVertInd@?$NotThreadSafeGLMeshAttributesMultiViewerBOManager@VCMeshO@@PEAVQGLContext@@UMLPerViewGLOptions@@@vcg@@@std@@@std@@@std@@YAPEAV?$_Vector_val@U?$_Simple_types@VEdgeVertInd@?$NotThreadSafeGLMeshAttributesMultiViewerBOManager@VCMeshO@@PEAVQGLContext@@UMLPerViewGLOptions@@@vcg@@@std@@@0@AEAV10@@Z
	??$addressof@V?$_Vector_val@U?$_Simple_types@VInternalRendAtts@GLMeshAttributesInfo@vcg@@@std@@@std@@@std@@YAPEAV?$_Vector_val@U?$_Simple_types@VInternalRendAtts@GLMeshAttributesInfo@vcg@@@std@@@0@AEAV10@@Z
	??$addressof@V?$_Vector_val@U?$_Simple_types@VPEdge@?$UpdateTopology@VCMeshO@@@tri@vcg@@@std@@@std@@@std@@YAPEAV?$_Vector_val@U?$_Simple_types@VPEdge@?$UpdateTopology@VCMeshO@@@tri@vcg@@@std@@@0@AEAV10@@Z
	??$addressof@V?$_Vector_val@U?$_Simple_types@VPEdge@vcg@@@std@@@std@@@std@@YAPEAV?$_Vector_val@U?$_Simple_types@VPEdge@vcg@@@std@@@0@AEAV10@@Z
	??$addressof@V?$_Vector_val@U?$_Simple_types@VPFace@vcg@@@std@@@std@@@std@@YAPEAV?$_Vector_val@U?$_Simple_types@VPFace@vcg@@@std@@@0@AEAV10@@Z
	??$addressof@V?$_Vector_val@U?$_Simple_types@VPVertex@vcg@@@std@@@std@@@std@@YAPEAV?$_Vector_val@U?$_Simple_types@VPVertex@vcg@@@std@@@0@AEAV10@@Z
	??$addressof@V?$basic_string@DU?$char_traits@D@std@@V?$allocator@D@2@@std@@@std@@YAPEAV?$basic_string@DU?$char_traits@D@std@@V?$allocator@D@2@@0@AEAV10@@Z
	??$addressof@V?$basic_stringbuf@DU?$char_traits@D@std@@V?$allocator@D@2@@std@@@std@@YAPEAV?$basic_stringbuf@DU?$char_traits@D@std@@V?$allocator@D@2@@0@AEAV10@@Z
	??$addressof@V?$list@PEAVRichParameter@@V?$allocator@PEAVRichParameter@@@std@@@std@@@std@@YAPEAV?$list@PEAVRichParameter@@V?$allocator@PEAVRichParameter@@@std@@@0@AEAV10@@Z
	??$addressof@V?$vector@HV?$allocator@H@std@@@std@@@std@@YAPEAV?$vector@HV?$allocator@H@std@@@0@AEAV10@@Z
	??$addressof@V?$vector@MV?$allocator@M@std@@@std@@@std@@YAPEAV?$vector@MV?$allocator@M@std@@@0@AEAV10@@Z
	??$addressof@V?$vector@U?$CurvatureDirOcfBaseType@M@face@vcg@@V?$allocator@U?$CurvatureDirOcfBaseType@M@face@vcg@@@std@@@std@@@std@@YAPEAV?$vector@U?$CurvatureDirOcfBaseType@M@face@vcg@@V?$allocator@U?$CurvatureDirOcfBaseType@M@face@vcg@@@std@@@0@AEAV10@@Z
	??$addressof@V?$vector@U?$CurvatureDirTypeOcf@M@vertex@vcg@@V?$allocator@U?$CurvatureDirTypeOcf@M@vertex@vcg@@@std@@@std@@@std@@YAPEAV?$vector@U?$CurvatureDirTypeOcf@M@vertex@vcg@@V?$allocator@U?$CurvatureDirTypeOcf@M@vertex@vcg@@@std@@@0@AEAV10@@Z
	??$addressof@V?$vector@UAdjTypePack@?$vector_ocf@VCFaceO@@@face@vcg@@V?$allocator@UAdjTypePack@?$vector_ocf@VCFaceO@@@face@vcg@@@std@@@std@@@std@@YAPEAV?$vector@UAdjTypePack@?$vector_ocf@VCFaceO@@@face@vcg@@V?$allocator@UAdjTypePack@?$vector_ocf@VCFaceO@@@face@vcg@@@std@@@0@AEAV10@@Z
	??$addressof@V?$vector@UVFAdjType@?$vector_ocf@VCVertexO@@@vertex@vcg@@V?$allocator@UVFAdjType@?$vector_ocf@VCVertexO@@@vertex@vcg@@@std@@@std@@@std@@YAPEAV?$vector@UVFAdjType@?$vector_ocf@VCVertexO@@@vertex@vcg@@V?$allocator@UVFAdjType@?$vector_ocf@VCVertexO@@@vertex@vcg@@@std@@@0@AEAV10@@Z
	??$addressof@V?$vector@V?$Color4@E@vcg@@V?$allocator@V?$Color4@E@vcg@@@std@@@std@@@std@@YAPEAV?$vector@V?$Color4@E@vcg@@V?$allocator@V?$Color4@E@vcg@@@std@@@0@AEAV10@@Z
	??$addressof@V?$vector@V?$HEdge@V?$UsedTypes@UAsVertexType@?$Use@VCVertexO@@@vcg@@UAsEdgeType@?$Use@VCEdgeO@@@3@UAsFaceType@?$Use@VCFaceO@@@3@VDefaultDeriver@3@V83@V83@V83@V83@@vcg@@VDefaultDeriver@2@V32@V32@V32@V32@V32@V32@V32@V32@V32@V32@@vcg@@V?$allocator@V?$HEdge@V?$UsedTypes@UAsVertexType@?$Use@VCVertexO@@@vcg@@UAsEdgeType@?$Use@VCEdgeO@@@3@UAsFaceType@?$Use@VCFaceO@@@3@VDefaultDeriver@3@V83@V83@V83@V83@@vcg@@VDefaultDeriver@2@V32@V32@V32@V32@V32@V32@V32@V32@V32@V32@@vcg@@@std@@@std@@@std@@YAPEAV?$vector@V?$HEdge@V?$UsedTypes@UAsVertexType@?$Use@VCVertexO@@@vcg@@UAsEdgeType@?$Use@VCEdgeO@@@3@UAsFaceType@?$Use@VCFaceO@@@3@VDefaultDeriver@3@V83@V83@V83@V83@@vcg@@VDefaultDeriver@2@V32@V32@V32@V32@V32@V32@V32@V32@V32@V32@@vcg@@V?$allocator@V?$HEdge@V?$UsedTypes@UAsVertexType@?$Use@VCVertexO@@@vcg@@UAsEdgeType@?$Use@VCEdgeO@@@3@UAsFaceType@?$Use@VCFaceO@@@3@VDefaultDeriver@3@V83@V83@V83@V83@@vcg@@VDefaultDeriver@2@V32@V32@V32@V32@V32@V32@V32@V32@V32@V32@@vcg@@@std@@@0@AEAV10@@Z
	??$addressof@V?$vector@V?$Point2@M@vcg@@V?$allocator@V?$Point2@M@vcg@@@std@@@std@@@std@@YAPEAV?$vector@V?$Point2@M@vcg@@V?$allocator@V?$Point2@M@vcg@@@std@@@0@AEAV10@@Z
	??$addressof@V?$vector@V?$Point3@M@vcg@@V?$allocator@V?$Point3@M@vcg@@@std@@@std@@@std@@YAPEAV?$vector@V?$Point3@M@vcg@@V?$allocator@V?$Point3@M@vcg@@@std@@@0@AEAV10@@Z
	??$addressof@V?$vector@V?$TetraSimp@V?$UsedTypes@UAsVertexType@?$Use@VCVertexO@@@vcg@@UAsEdgeType@?$Use@VCEdgeO@@@3@UAsFaceType@?$Use@VCFaceO@@@3@VDefaultDeriver@3@V83@V83@V83@V83@@vcg@@VDefaultDeriver@2@V32@V32@V32@V32@V32@V32@V32@V32@V32@V32@V32@@vcg@@V?$allocator@V?$TetraSimp@V?$UsedTypes@UAsVertexType@?$Use@VCVertexO@@@vcg@@UAsEdgeType@?$Use@VCEdgeO@@@3@UAsFaceType@?$Use@VCFaceO@@@3@VDefaultDeriver@3@V83@V83@V83@V83@@vcg@@VDefaultDeriver@2@V32@V32@V32@V32@V32@V32@V32@V32@V32@V32@V32@@vcg@@@std@@@std@@@std@@YAPEAV?$vector@V?$TetraSimp@V?$UsedTypes@UAsVertexType@?$Use@VCVertexO@@@vcg@@UAsEdgeType@?$Use@VCEdgeO@@@3@UAsFaceType@?$Use@VCFaceO@@@3@VDefaultDeriver@3@V83@V83@V83@V83@@vcg@@VDefaultDeriver@2@V32@V32@V32@V32@V32@V32@V32@V32@V32@V32@V32@@vcg@@V?$allocator@V?$TetraSimp@V?$UsedTypes@UAsVertexType@?$Use@VCVertexO@@@vcg@@UAsEdgeType@?$Use@VCEdgeO@@@3@UAsFaceType@?$Use@VCFaceO@@@3@VDefaultDeriver@3@V83@V83@V83@V83@@vcg@@VDefaultDeriver@2@V32@V32@V32@V32@V32@V32@V32@V32@V32@V32@V32@@vcg@@@std@@@0@AEAV10@@Z
	??$addressof@V?$vector@V?$TexCoord2@M$00@vcg@@V?$allocator@V?$TexCoord2@M$00@vcg@@@std@@@std@@@std@@YAPEAV?$vector@V?$TexCoord2@M$00@vcg@@V?$allocator@V?$TexCoord2@M$00@vcg@@@std@@@0@AEAV10@@Z
	??$addressof@V?$vector@V?$basic_string@DU?$char_traits@D@std@@V?$allocator@D@2@@std@@V?$allocator@V?$basic_string@DU?$char_traits@D@std@@V?$allocator@D@2@@std@@@2@@std@@@std@@YAPEAV?$vector@V?$basic_string@DU?$char_traits@D@std@@V?$allocator@D@2@@std@@V?$allocator@V?$basic_string@DU?$char_traits@D@std@@V?$allocator@D@2@@std@@@2@@0@AEAV10@@Z
	??$addressof@V?$vector@VCEdgeO@@V?$allocator@VCEdgeO@@@std@@@std@@@std@@YAPEAV?$vector@VCEdgeO@@V?$allocator@VCEdgeO@@@std@@@0@AEAV10@@Z
	??$addressof@V?$vector@VCFaceO@@V?$allocator@VCFaceO@@@std@@@std@@@std@@YAPEAV?$vector@VCFaceO@@V?$allocator@VCFaceO@@@std@@@0@AEAV10@@Z
	??$addressof@V?$vector@VCVertexO@@V?$allocator@VCVertexO@@@std@@@std@@@std@@YAPEAV?$vector@VCVertexO@@V?$allocator@VCVertexO@@@std@@@0@AEAV10@@Z
	??$addressof@V?$vector@VWedgeColorTypePack@?$vector_ocf@VCFaceO@@@face@vcg@@V?$allocator@VWedgeColorTypePack@?$vector_ocf@VCFaceO@@@face@vcg@@@std@@@std@@@std@@YAPEAV?$vector@VWedgeColorTypePack@?$vector_ocf@VCFaceO@@@face@vcg@@V?$allocator@VWedgeColorTypePack@?$vector_ocf@VCFaceO@@@face@vcg@@@std@@@0@AEAV10@@Z
	??$addressof@V?$vector@VWedgeNormalTypePack@?$vector_ocf@VCFaceO@@@face@vcg@@V?$allocator@VWedgeNormalTypePack@?$vector_ocf@VCFaceO@@@face@vcg@@@std@@@std@@@std@@YAPEAV?$vector@VWedgeNormalTypePack@?$vector_ocf@VCFaceO@@@face@vcg@@V?$allocator@VWedgeNormalTypePack@?$vector_ocf@VCFaceO@@@face@vcg@@@std@@@0@AEAV10@@Z
	??$addressof@V?$vector@VWedgeTexTypePack@?$vector_ocf@VCFaceO@@@face@vcg@@V?$allocator@VWedgeTexTypePack@?$vector_ocf@VCFaceO@@@face@vcg@@@std@@@std@@@std@@YAPEAV?$vector@VWedgeTexTypePack@?$vector_ocf@VCFaceO@@@face@vcg@@V?$allocator@VWedgeTexTypePack@?$vector_ocf@VCFaceO@@@face@vcg@@@std@@@0@AEAV10@@Z
	??$addressof@VFileFormat@@@std@@YAPEAVFileFormat@@AEAV1@@Z
	??$addressof@VFunction@pymeshlab@@@std@@YAPEAVFunction@pymeshlab@@AEAV12@@Z
	??$addressof@VFunctionParameter@pymeshlab@@@std@@YAPEAVFunctionParameter@pymeshlab@@AEAV12@@Z
	??$addressof@VMeshModel@@@std@@YAPEAVMeshModel@@AEAV1@@Z
	??$addressof@VPointerToAttribute@vcg@@@std@@YAPEAVPointerToAttribute@vcg@@AEAV12@@Z
	??$addressof@VQString@@@std@@YAPEAVQString@@AEAV1@@Z
	??$addressof@VRasterModel@@@std@@YAPEAVRasterModel@@AEAV1@@Z
	??$addressof@_N@std@@YAPEA_NAEA_N@Z
	??$advance@PEAV?$basic_string@DU?$char_traits@D@std@@V?$allocator@D@2@@std@@_J@std@@YAXAEAPEAV?$basic_string@DU?$char_traits@D@std@@V?$allocator@D@2@@0@_J@Z
	??$advance@PEAVInternalRendAtts@GLMeshAttributesInfo@vcg@@_J@std@@YAXAEAPEAVInternalRendAtts@GLMeshAttributesInfo@vcg@@_J@Z
	??$advance@V?$_List_const_iterator@V?$_List_val@U?$_List_simple_types@PEAVRichParameter@@@std@@@std@@@std@@I@std@@YAXAEAV?$_List_const_iterator@V?$_List_val@U?$_List_simple_types@PEAVRichParameter@@@std@@@std@@@0@I@Z
	??$advance@V?$_List_iterator@V?$_List_val@U?$_List_simple_types@PEAVRichParameter@@@std@@@std@@@std@@I@std@@YAXAEAV?$_List_iterator@V?$_List_val@U?$_List_simple_types@PEAVRichParameter@@@std@@@std@@@0@I@Z
	??$advance@V?$_Vector_iterator@V?$_Vector_val@U?$_Simple_types@V?$HEdge@V?$UsedTypes@UAsVertexType@?$Use@VCVertexO@@@vcg@@UAsEdgeType@?$Use@VCEdgeO@@@3@UAsFaceType@?$Use@VCFaceO@@@3@VDefaultDeriver@3@V83@V83@V83@V83@@vcg@@VDefaultDeriver@2@V32@V32@V32@V32@V32@V32@V32@V32@V32@V32@@vcg@@@std@@@std@@@std@@_K@std@@YAXAEAV?$_Vector_iterator@V?$_Vector_val@U?$_Simple_types@V?$HEdge@V?$UsedTypes@UAsVertexType@?$Use@VCVertexO@@@vcg@@UAsEdgeType@?$Use@VCEdgeO@@@3@UAsFaceType@?$Use@VCFaceO@@@3@VDefaultDeriver@3@V83@V83@V83@V83@@vcg@@VDefaultDeriver@2@V32@V32@V32@V32@V32@V32@V32@V32@V32@V32@@vcg@@@std@@@std@@@0@_K@Z
	??$advance@V?$_Vector_iterator@V?$_Vector_val@U?$_Simple_types@V?$TetraSimp@V?$UsedTypes@UAsVertexType@?$Use@VCVertexO@@@vcg@@UAsEdgeType@?$Use@VCEdgeO@@@3@UAsFaceType@?$Use@VCFaceO@@@3@VDefaultDeriver@3@V83@V83@V83@V83@@vcg@@VDefaultDeriver@2@V32@V32@V32@V32@V32@V32@V32@V32@V32@V32@V32@@vcg@@@std@@@std@@@std@@_K@std@@YAXAEAV?$_Vector_iterator@V?$_Vector_val@U?$_Simple_types@V?$TetraSimp@V?$UsedTypes@UAsVertexType@?$Use@VCVertexO@@@vcg@@UAsEdgeType@?$Use@VCEdgeO@@@3@UAsFaceType@?$Use@VCFaceO@@@3@VDefaultDeriver@3@V83@V83@V83@V83@@vcg@@VDefaultDeriver@2@V32@V32@V32@V32@V32@V32@V32@V32@V32@V32@V32@@vcg@@@std@@@std@@@0@_K@Z
	??$advance@V?$_Vector_iterator@V?$_Vector_val@U?$_Simple_types@VCEdgeO@@@std@@@std@@@std@@_K@std@@YAXAEAV?$_Vector_iterator@V?$_Vector_val@U?$_Simple_types@VCEdgeO@@@std@@@std@@@0@_K@Z
	??$advance@V?$_Vector_iterator@V?$_Vector_val@U?$_Simple_types@VCFaceO@@@std@@@std@@@std@@_K@std@@YAXAEAV?$_Vector_iterator@V?$_Vector_val@U?$_Simple_types@VCFaceO@@@std@@@std@@@0@_K@Z
	??$advance@V?$_Vector_iterator@V?$_Vector_val@U?$_Simple_types@VCVertexO@@@std@@@std@@@std@@_K@std@@YAXAEAV?$_Vector_iterator@V?$_Vector_val@U?$_Simple_types@VCVertexO@@@std@@@std@@@0@_K@Z
	??$advance@V?$_Vector_iterator@V?$_Vector_val@U?$_Simple_types@VPFace@vcg@@@std@@@std@@@std@@_K@std@@YAXAEAV?$_Vector_iterator@V?$_Vector_val@U?$_Simple_types@VPFace@vcg@@@std@@@std@@@0@_K@Z
	??$advance@V?$_Vector_iterator@V?$_Vector_val@U?$_Simple_types@VPVertex@vcg@@@std@@@std@@@std@@_K@std@@YAXAEAV?$_Vector_iterator@V?$_Vector_val@U?$_Simple_types@VPVertex@vcg@@@std@@@std@@@0@_K@Z
	??$assign@PEAV?$basic_string@DU?$char_traits@D@std@@V?$allocator@D@2@@std@@$0A@@?$vector@V?$basic_string@DU?$char_traits@D@std@@V?$allocator@D@2@@std@@V?$allocator@V?$basic_string@DU?$char_traits@D@std@@V?$allocator@D@2@@std@@@2@@std@@QEAAXPEAV?$basic_string@DU?$char_traits@D@std@@V?$allocator@D@2@@1@0@Z
	??$assign@PEAVInternalRendAtts@GLMeshAttributesInfo@vcg@@$0A@@?$vector@VInternalRendAtts@GLMeshAttributesInfo@vcg@@V?$allocator@VInternalRendAtts@GLMeshAttributesInfo@vcg@@@std@@@std@@QEAAXPEAVInternalRendAtts@GLMeshAttributesInfo@vcg@@0@Z
	??$assignPacket@$0BA@$0BA@T__m128i@@@?$generic_dense_assignment_kernel@U?$evaluator@V?$Matrix@H$0?0$01$0A@$0?0$01@Eigen@@@internal@Eigen@@U?$evaluator@V?$Matrix@H$0?0$0?0$0A@$0?0$0?0@Eigen@@@23@U?$assign_op@HH@23@$0A@@internal@Eigen@@QEAAX_J@Z
	??$assignPacket@$0BA@$0BA@T__m128i@@@?$generic_dense_assignment_kernel@U?$evaluator@V?$Matrix@H$0?0$02$0A@$0?0$02@Eigen@@@internal@Eigen@@U?$evaluator@V?$Matrix@H$0?0$0?0$0A@$0?0$0?0@Eigen@@@23@U?$assign_op@HH@23@$0A@@internal@Eigen@@QEAAX_J@Z
	??$assignPacket@$0BA@T__m128i@@@?$assign_op@HH@internal@Eigen@@QEBAXPEAHAEBT__m128i@@@Z
	??$back_inserter@V?$QList@VQString@@@@@std@@YA?AV?$back_insert_iterator@V?$QList@VQString@@@@@0@AEAV?$QList@VQString@@@@@Z
	??$callDestructorIfNecessary@H@QMapNodeBase@@SAXAEAH@Z
	??$callDestructorIfNecessary@PEAVIOPlugin@@@QMapNodeBase@@SAXAEAPEAVIOPlugin@@@Z
	??$callDestructorIfNecessary@PEAVQAction@@@QMapNodeBase@@SAXAEAPEAVQAction@@@Z
	??$callDestructorIfNecessary@U?$QPair@VQString@@V1@@@@QMapNodeBase@@SAXAEAU?$QPair@VQString@@V1@@@@Z
	??$callDestructorIfNecessary@UMeshModelStateData@@@QMapNodeBase@@SAXAEAUMeshModelStateData@@@Z
	??$callDestructorIfNecessary@VMLRenderingData@@@QMapNodeBase@@SAXAEAVMLRenderingData@@@Z
	??$callDestructorIfNecessary@VQString@@@QMapNodeBase@@SAXAEAVQString@@@Z
	??$call_assignment_no_alias@V?$Matrix@H$0?0$01$0A@$0?0$01@Eigen@@V?$Matrix@H$0?0$0?0$0A@$0?0$0?0@2@U?$assign_op@HH@internal@2@@internal@Eigen@@YAXAEAV?$Matrix@H$0?0$01$0A@$0?0$01@1@AEBV?$Matrix@H$0?0$0?0$0A@$0?0$0?0@1@AEBU?$assign_op@HH@01@@Z
	??$call_assignment_no_alias@V?$Matrix@H$0?0$02$0A@$0?0$02@Eigen@@V?$Matrix@H$0?0$0?0$0A@$0?0$0?0@2@U?$assign_op@HH@internal@2@@internal@Eigen@@YAXAEAV?$Matrix@H$0?0$02$0A@$0?0$02@1@AEBV?$Matrix@H$0?0$0?0$0A@$0?0$0?0@1@AEBU?$assign_op@HH@01@@Z
	??$call_dense_assignment_loop@V?$Matrix@H$0?0$01$0A@$0?0$01@Eigen@@V?$Matrix@H$0?0$0?0$0A@$0?0$0?0@2@U?$assign_op@HH@internal@2@@internal@Eigen@@YAXAEAV?$Matrix@H$0?0$01$0A@$0?0$01@1@AEBV?$Matrix@H$0?0$0?0$0A@$0?0$0?0@1@AEBU?$assign_op@HH@01@@Z
	??$call_dense_assignment_loop@V?$Matrix@H$0?0$02$0A@$0?0$02@Eigen@@V?$Matrix@H$0?0$0?0$0A@$0?0$0?0@2@U?$assign_op@HH@internal@2@@internal@Eigen@@YAXAEAV?$Matrix@H$0?0$02$0A@$0?0$02@1@AEBV?$Matrix@H$0?0$0?0$0A@$0?0$0?0@1@AEBU?$assign_op@HH@01@@Z
	??$check_for_aliasing@V?$Matrix@H$0?0$01$0A@$0?0$01@Eigen@@V?$Matrix@H$0?0$0?0$0A@$0?0$0?0@2@@internal@Eigen@@YAXAEBV?$Matrix@H$0?0$01$0A@$0?0$01@1@AEBV?$Matrix@H$0?0$0?0$0A@$0?0$0?0@1@@Z
	??$check_for_aliasing@V?$Matrix@H$0?0$02$0A@$0?0$02@Eigen@@V?$Matrix@H$0?0$0?0$0A@$0?0$0?0@2@@internal@Eigen@@YAXAEBV?$Matrix@H$0?0$02$0A@$0?0$02@1@AEBV?$Matrix@H$0?0$0?0$0A@$0?0$0?0@1@@Z
	??$check_size_for_overflow@H@internal@Eigen@@YAX_K@Z
	??$check_size_for_overflow@I@internal@Eigen@@YAX_K@Z
	??$check_size_for_overflow@M@internal@Eigen@@YAX_K@Z
	??$check_size_for_overflow@_N@internal@Eigen@@YAX_K@Z
	??$conditional_aligned_delete_auto@H$00@internal@Eigen@@YAXPEAH_K@Z
	??$conditional_aligned_delete_auto@I$00@internal@Eigen@@YAXPEAI_K@Z
	??$conditional_aligned_delete_auto@M$00@internal@Eigen@@YAXPEAM_K@Z
	??$conditional_aligned_delete_auto@_N$00@internal@Eigen@@YAXPEA_N_K@Z
	??$conditional_aligned_free@$00@internal@Eigen@@YAXPEAX@Z
	??$conditional_aligned_free@$0A@@internal@Eigen@@YAXPEAX@Z
	??$conditional_aligned_malloc@$00@internal@Eigen@@YAPEAX_K@Z
	??$conditional_aligned_new_auto@H$00@internal@Eigen@@YAPEAH_K@Z
	??$conditional_aligned_new_auto@I$00@internal@Eigen@@YAPEAI_K@Z
	??$conditional_aligned_new_auto@M$00@internal@Eigen@@YAPEAM_K@Z
	??$conditional_aligned_new_auto@_N$00@internal@Eigen@@YAPEA_N_K@Z
	??$construct@H$$V@?$_Default_allocator_traits@V?$allocator@H@std@@@std@@SAXAEAV?$allocator@H@1@QEAH@Z
	??$construct@HAEBH@?$_Default_allocator_traits@V?$allocator@H@std@@@std@@SAXAEAV?$allocator@H@1@QEAHAEBH@Z
	??$construct@HAEBH@?$_Default_allocator_traits@V?$allocator@U?$_List_node@HPEAX@std@@@std@@@std@@SAXAEAV?$allocator@U?$_List_node@HPEAX@std@@@1@QEAHAEBH@Z
	??$construct@HH@?$_Default_allocator_traits@V?$allocator@H@std@@@std@@SAXAEAV?$allocator@H@1@QEAH$$QEAH@Z
	??$construct@I$$V@?$_Default_allocator_traits@V?$allocator@I@std@@@std@@SAXAEAV?$allocator@I@1@QEAI@Z
	??$construct@IAEBI@?$_Default_allocator_traits@V?$allocator@I@std@@@std@@SAXAEAV?$allocator@I@1@QEAIAEBI@Z
	??$construct@II@?$_Default_allocator_traits@V?$allocator@I@std@@@std@@SAXAEAV?$allocator@I@1@QEAI$$QEAI@Z
	??$construct@M$$V@?$_Default_allocator_traits@V?$allocator@M@std@@@std@@SAXAEAV?$allocator@M@1@QEAM@Z
	??$construct@MAEBM@?$_Default_allocator_traits@V?$allocator@M@std@@@std@@SAXAEAV?$allocator@M@1@QEAMAEBM@Z
	??$construct@MM@?$_Default_allocator_traits@V?$allocator@M@std@@@std@@SAXAEAV?$allocator@M@1@QEAM$$QEAM@Z
	??$construct@PEAUGLBufferObject@?$NotThreadSafeGLMeshAttributesMultiViewerBOManager@VCMeshO@@PEAVQGLContext@@UMLPerViewGLOptions@@@vcg@@AEBQEAU123@@?$_Default_allocator_traits@V?$allocator@PEAUGLBufferObject@?$NotThreadSafeGLMeshAttributesMultiViewerBOManager@VCMeshO@@PEAVQGLContext@@UMLPerViewGLOptions@@@vcg@@@std@@@std@@SAXAEAV?$allocator@PEAUGLBufferObject@?$NotThreadSafeGLMeshAttributesMultiViewerBOManager@VCMeshO@@PEAVQGLContext@@UMLPerViewGLOptions@@@vcg@@@1@QEAPEAUGLBufferObject@?$NotThreadSafeGLMeshAttributesMultiViewerBOManager@VCMeshO@@PEAVQGLContext@@UMLPerViewGLOptions@@@vcg@@AEBQEAU345@@Z
	??$construct@PEAVCFaceO@@AEBQEAV1@@?$_Default_allocator_traits@V?$allocator@PEAVCFaceO@@@std@@@std@@SAXAEAV?$allocator@PEAVCFaceO@@@1@QEAPEAVCFaceO@@AEBQEAV3@@Z
	??$construct@PEAVCFaceO@@PEAV1@@?$_Default_allocator_traits@V?$allocator@PEAVCFaceO@@@std@@@std@@SAXAEAV?$allocator@PEAVCFaceO@@@1@QEAPEAVCFaceO@@$$QEAPEAV3@@Z
	??$construct@PEAVCVertexO@@$$V@?$_Default_allocator_traits@V?$allocator@PEAVCVertexO@@@std@@@std@@SAXAEAV?$allocator@PEAVCVertexO@@@1@QEAPEAVCVertexO@@@Z
	??$construct@PEAVCVertexO@@AEBQEAV1@@?$_Default_allocator_traits@V?$allocator@PEAVCVertexO@@@std@@@std@@SAXAEAV?$allocator@PEAVCVertexO@@@1@QEAPEAVCVertexO@@AEBQEAV3@@Z
	??$construct@PEAVCVertexO@@PEAV1@@?$_Default_allocator_traits@V?$allocator@PEAVCVertexO@@@std@@@std@@SAXAEAV?$allocator@PEAVCVertexO@@@1@QEAPEAVCVertexO@@$$QEAPEAV3@@Z
	??$construct@PEAVDecoratePlugin@@AEBQEAV1@@?$_Default_allocator_traits@V?$allocator@PEAVDecoratePlugin@@@std@@@std@@SAXAEAV?$allocator@PEAVDecoratePlugin@@@1@QEAPEAVDecoratePlugin@@AEBQEAV3@@Z
	??$construct@PEAVDecoratePlugin@@PEAV1@@?$_Default_allocator_traits@V?$allocator@PEAVDecoratePlugin@@@std@@@std@@SAXAEAV?$allocator@PEAVDecoratePlugin@@@1@QEAPEAVDecoratePlugin@@$$QEAPEAV3@@Z
	??$construct@PEAVEditPlugin@@AEBQEAV1@@?$_Default_allocator_traits@V?$allocator@PEAVEditPlugin@@@std@@@std@@SAXAEAV?$allocator@PEAVEditPlugin@@@1@QEAPEAVEditPlugin@@AEBQEAV3@@Z
	??$construct@PEAVEditPlugin@@PEAV1@@?$_Default_allocator_traits@V?$allocator@PEAVEditPlugin@@@std@@@std@@SAXAEAV?$allocator@PEAVEditPlugin@@@1@QEAPEAVEditPlugin@@$$QEAPEAV3@@Z
	??$construct@PEAVFilterPlugin@@AEBQEAV1@@?$_Default_allocator_traits@V?$allocator@PEAVFilterPlugin@@@std@@@std@@SAXAEAV?$allocator@PEAVFilterPlugin@@@1@QEAPEAVFilterPlugin@@AEBQEAV3@@Z
	??$construct@PEAVFilterPlugin@@PEAV1@@?$_Default_allocator_traits@V?$allocator@PEAVFilterPlugin@@@std@@@std@@SAXAEAV?$allocator@PEAVFilterPlugin@@@1@QEAPEAVFilterPlugin@@$$QEAPEAV3@@Z
	??$construct@PEAVIOPlugin@@AEBQEAV1@@?$_Default_allocator_traits@V?$allocator@PEAVIOPlugin@@@std@@@std@@SAXAEAV?$allocator@PEAVIOPlugin@@@1@QEAPEAVIOPlugin@@AEBQEAV3@@Z
	??$construct@PEAVIOPlugin@@PEAV1@@?$_Default_allocator_traits@V?$allocator@PEAVIOPlugin@@@std@@@std@@SAXAEAV?$allocator@PEAVIOPlugin@@@1@QEAPEAVIOPlugin@@$$QEAPEAV3@@Z
	??$construct@PEAVMeshLabPlugin@@AEBQEAV1@@?$_Default_allocator_traits@V?$allocator@PEAVMeshLabPlugin@@@std@@@std@@SAXAEAV?$allocator@PEAVMeshLabPlugin@@@1@QEAPEAVMeshLabPlugin@@AEBQEAV3@@Z
	??$construct@PEAVMeshLabPlugin@@PEAV1@@?$_Default_allocator_traits@V?$allocator@PEAVMeshLabPlugin@@@std@@@std@@SAXAEAV?$allocator@PEAVMeshLabPlugin@@@1@QEAPEAVMeshLabPlugin@@$$QEAPEAV3@@Z
	??$construct@PEAVMeshModel@@AEBQEAV1@@?$_Default_allocator_traits@V?$allocator@U?$_List_node@PEAVMeshModel@@PEAX@std@@@std@@@std@@SAXAEAV?$allocator@U?$_List_node@PEAVMeshModel@@PEAX@std@@@1@QEAPEAVMeshModel@@AEBQEAV3@@Z
	??$construct@PEAVMeshModel@@PEAV1@@?$_Default_allocator_traits@V?$allocator@U?$_List_node@PEAVMeshModel@@PEAX@std@@@std@@@std@@SAXAEAV?$allocator@U?$_List_node@PEAVMeshModel@@PEAX@std@@@1@QEAPEAVMeshModel@@$$QEAPEAV3@@Z
	??$construct@PEAVPVertex@vcg@@$$V@?$_Default_allocator_traits@V?$allocator@PEAVPVertex@vcg@@@std@@@std@@SAXAEAV?$allocator@PEAVPVertex@vcg@@@1@QEAPEAVPVertex@vcg@@@Z
	??$construct@PEAVQAction@@$$V@?$_Default_allocator_traits@V?$allocator@PEAVQAction@@@std@@@std@@SAXAEAV?$allocator@PEAVQAction@@@1@QEAPEAVQAction@@@Z
	??$construct@PEAVQAction@@AEAPEAV1@@?$_Default_allocator_traits@V?$allocator@PEAVQAction@@@std@@@std@@SAXAEAV?$allocator@PEAVQAction@@@1@QEAPEAVQAction@@AEAPEAV3@@Z
	??$construct@PEAVQAction@@AEBQEAV1@@?$_Default_allocator_traits@V?$allocator@PEAVQAction@@@std@@@std@@SAXAEAV?$allocator@PEAVQAction@@@1@QEAPEAVQAction@@AEBQEAV3@@Z
	??$construct@PEAVQAction@@PEAV1@@?$_Default_allocator_traits@V?$allocator@PEAVQAction@@@std@@@std@@SAXAEAV?$allocator@PEAVQAction@@@1@QEAPEAVQAction@@$$QEAPEAV3@@Z
	??$construct@PEAVQPluginLoader@@AEBQEAV1@@?$_Default_allocator_traits@V?$allocator@PEAVQPluginLoader@@@std@@@std@@SAXAEAV?$allocator@PEAVQPluginLoader@@@1@QEAPEAVQPluginLoader@@AEBQEAV3@@Z
	??$construct@PEAVQPluginLoader@@PEAV1@@?$_Default_allocator_traits@V?$allocator@PEAVQPluginLoader@@@std@@@std@@SAXAEAV?$allocator@PEAVQPluginLoader@@@1@QEAPEAVQPluginLoader@@$$QEAPEAV3@@Z
	??$construct@PEAVRenderPlugin@@AEBQEAV1@@?$_Default_allocator_traits@V?$allocator@PEAVRenderPlugin@@@std@@@std@@SAXAEAV?$allocator@PEAVRenderPlugin@@@1@QEAPEAVRenderPlugin@@AEBQEAV3@@Z
	??$construct@PEAVRenderPlugin@@PEAV1@@?$_Default_allocator_traits@V?$allocator@PEAVRenderPlugin@@@std@@@std@@SAXAEAV?$allocator@PEAVRenderPlugin@@@1@QEAPEAVRenderPlugin@@$$QEAPEAV3@@Z
	??$construct@PEAVRichParameter@@AEBQEAV1@@?$_Default_allocator_traits@V?$allocator@U?$_List_node@PEAVRichParameter@@PEAX@std@@@std@@@std@@SAXAEAV?$allocator@U?$_List_node@PEAVRichParameter@@PEAX@std@@@1@QEAPEAVRichParameter@@AEBQEAV3@@Z
	??$construct@PEAVRichParameter@@PEAV1@@?$_Default_allocator_traits@V?$allocator@U?$_List_node@PEAVRichParameter@@PEAX@std@@@std@@@std@@SAXAEAV?$allocator@U?$_List_node@PEAVRichParameter@@PEAX@std@@@1@QEAPEAVRichParameter@@$$QEAPEAV3@@Z
	??$construct@U?$CurvatureDirOcfBaseType@M@face@vcg@@$$V@?$_Default_allocator_traits@V?$allocator@U?$CurvatureDirOcfBaseType@M@face@vcg@@@std@@@std@@SAXAEAV?$allocator@U?$CurvatureDirOcfBaseType@M@face@vcg@@@1@QEAU?$CurvatureDirOcfBaseType@M@face@vcg@@@Z
	??$construct@U?$CurvatureDirOcfBaseType@M@face@vcg@@U123@@?$_Default_allocator_traits@V?$allocator@U?$CurvatureDirOcfBaseType@M@face@vcg@@@std@@@std@@SAXAEAV?$allocator@U?$CurvatureDirOcfBaseType@M@face@vcg@@@1@QEAU?$CurvatureDirOcfBaseType@M@face@vcg@@$$QEAU345@@Z
	??$construct@U?$CurvatureDirTypeOcf@M@vertex@vcg@@$$V@?$_Default_allocator_traits@V?$allocator@U?$CurvatureDirTypeOcf@M@vertex@vcg@@@std@@@std@@SAXAEAV?$allocator@U?$CurvatureDirTypeOcf@M@vertex@vcg@@@1@QEAU?$CurvatureDirTypeOcf@M@vertex@vcg@@@Z
	??$construct@U?$CurvatureDirTypeOcf@M@vertex@vcg@@U123@@?$_Default_allocator_traits@V?$allocator@U?$CurvatureDirTypeOcf@M@vertex@vcg@@@std@@@std@@SAXAEAV?$allocator@U?$CurvatureDirTypeOcf@M@vertex@vcg@@@1@QEAU?$CurvatureDirTypeOcf@M@vertex@vcg@@$$QEAU345@@Z
	??$construct@U?$pair@$$CBFV?$vector@U?$pair@II@std@@V?$allocator@U?$pair@II@std@@@2@@std@@@std@@AEBUpiecewise_construct_t@2@V?$tuple@$$QEAF@2@V?$tuple@$$V@2@@?$_Default_allocator_traits@V?$allocator@U?$_Tree_node@U?$pair@$$CBFV?$vector@U?$pair@II@std@@V?$allocator@U?$pair@II@std@@@2@@std@@@std@@PEAX@std@@@std@@@std@@SAXAEAV?$allocator@U?$_Tree_node@U?$pair@$$CBFV?$vector@U?$pair@II@std@@V?$allocator@U?$pair@II@std@@@2@@std@@@std@@PEAX@std@@@1@QEAU?$pair@$$CBFV?$vector@U?$pair@II@std@@V?$allocator@U?$pair@II@std@@@2@@std@@@1@AEBUpiecewise_construct_t@1@$$QEAV?$tuple@$$QEAF@1@$$QEAV?$tuple@$$V@1@@Z
	??$construct@U?$pair@$$CBFV?$vector@U?$pair@II@std@@V?$allocator@U?$pair@II@std@@@2@@std@@@std@@AEBUpiecewise_construct_t@2@V?$tuple@AEBF@2@V?$tuple@$$V@2@@?$_Default_allocator_traits@V?$allocator@U?$_Tree_node@U?$pair@$$CBFV?$vector@U?$pair@II@std@@V?$allocator@U?$pair@II@std@@@2@@std@@@std@@PEAX@std@@@std@@@std@@SAXAEAV?$allocator@U?$_Tree_node@U?$pair@$$CBFV?$vector@U?$pair@II@std@@V?$allocator@U?$pair@II@std@@@2@@std@@@std@@PEAX@std@@@1@QEAU?$pair@$$CBFV?$vector@U?$pair@II@std@@V?$allocator@U?$pair@II@std@@@2@@std@@@1@AEBUpiecewise_construct_t@1@$$QEAV?$tuple@AEBF@1@$$QEAV?$tuple@$$V@1@@Z
	??$construct@U?$pair@$$CBHPEAV?$QtThreadSafeGLMeshAttributesMultiViewerBOManager@VCMeshO@@PEAVQGLContext@@UMLPerViewGLOptions@@@vcg@@@std@@AEBUpiecewise_construct_t@2@V?$tuple@AEBH@2@V?$tuple@$$V@2@@?$_Default_allocator_traits@V?$allocator@U?$_Tree_node@U?$pair@$$CBHPEAV?$QtThreadSafeGLMeshAttributesMultiViewerBOManager@VCMeshO@@PEAVQGLContext@@UMLPerViewGLOptions@@@vcg@@@std@@PEAX@std@@@std@@@std@@SAXAEAV?$allocator@U?$_Tree_node@U?$pair@$$CBHPEAV?$QtThreadSafeGLMeshAttributesMultiViewerBOManager@VCMeshO@@PEAVQGLContext@@UMLPerViewGLOptions@@@vcg@@@std@@PEAX@std@@@1@QEAU?$pair@$$CBHPEAV?$QtThreadSafeGLMeshAttributesMultiViewerBOManager@VCMeshO@@PEAVQGLContext@@UMLPerViewGLOptions@@@vcg@@@1@AEBUpiecewise_construct_t@1@$$QEAV?$tuple@AEBH@1@$$QEAV?$tuple@$$V@1@@Z
	??$construct@U?$pair@$$CBMV?$vector@PEAVQAction@@V?$allocator@PEAVQAction@@@std@@@std@@@std@@AEBUpiecewise_construct_t@2@V?$tuple@AEBM@2@V?$tuple@$$V@2@@?$_Default_allocator_traits@V?$allocator@U?$_Tree_node@U?$pair@$$CBMV?$vector@PEAVQAction@@V?$allocator@PEAVQAction@@@std@@@std@@@std@@PEAX@std@@@std@@@std@@SAXAEAV?$allocator@U?$_Tree_node@U?$pair@$$CBMV?$vector@PEAVQAction@@V?$allocator@PEAVQAction@@@std@@@std@@@std@@PEAX@std@@@1@QEAU?$pair@$$CBMV?$vector@PEAVQAction@@V?$allocator@PEAVQAction@@@std@@@std@@@1@AEBUpiecewise_construct_t@1@$$QEAV?$tuple@AEBM@1@$$QEAV?$tuple@$$V@1@@Z
	??$construct@U?$pair@$$CBV?$basic_string@DU?$char_traits@D@std@@V?$allocator@D@2@@std@@VQImage@@@std@@AEAU12@@?$_Default_allocator_traits@V?$allocator@U?$_Tree_node@U?$pair@$$CBV?$basic_string@DU?$char_traits@D@std@@V?$allocator@D@2@@std@@VQImage@@@std@@PEAX@std@@@std@@@std@@SAXAEAV?$allocator@U?$_Tree_node@U?$pair@$$CBV?$basic_string@DU?$char_traits@D@std@@V?$allocator@D@2@@std@@VQImage@@@std@@PEAX@std@@@1@QEAU?$pair@$$CBV?$basic_string@DU?$char_traits@D@std@@V?$allocator@D@2@@std@@VQImage@@@1@AEAU31@@Z
	??$construct@U?$pair@$$CBV?$basic_string@DU?$char_traits@D@std@@V?$allocator@D@2@@std@@VQImage@@@std@@AEBUpiecewise_construct_t@2@V?$tuple@AEBV?$basic_string@DU?$char_traits@D@std@@V?$allocator@D@2@@std@@@2@V?$tuple@$$V@2@@?$_Default_allocator_traits@V?$allocator@U?$_Tree_node@U?$pair@$$CBV?$basic_string@DU?$char_traits@D@std@@V?$allocator@D@2@@std@@VQImage@@@std@@PEAX@std@@@std@@@std@@SAXAEAV?$allocator@U?$_Tree_node@U?$pair@$$CBV?$basic_string@DU?$char_traits@D@std@@V?$allocator@D@2@@std@@VQImage@@@std@@PEAX@std@@@1@QEAU?$pair@$$CBV?$basic_string@DU?$char_traits@D@std@@V?$allocator@D@2@@std@@VQImage@@@1@AEBUpiecewise_construct_t@1@$$QEAV?$tuple@AEBV?$basic_string@DU?$char_traits@D@std@@V?$allocator@D@2@@std@@@1@$$QEAV?$tuple@$$V@1@@Z
	??$construct@U?$pair@$$CBVQString@@V?$vector@PEAVQAction@@V?$allocator@PEAVQAction@@@std@@@std@@@std@@AEBUpiecewise_construct_t@2@V?$tuple@AEBVQString@@@2@V?$tuple@$$V@2@@?$_Default_allocator_traits@V?$allocator@U?$_Tree_node@U?$pair@$$CBVQString@@V?$vector@PEAVQAction@@V?$allocator@PEAVQAction@@@std@@@std@@@std@@PEAX@std@@@std@@@std@@SAXAEAV?$allocator@U?$_Tree_node@U?$pair@$$CBVQString@@V?$vector@PEAVQAction@@V?$allocator@PEAVQAction@@@std@@@std@@@std@@PEAX@std@@@1@QEAU?$pair@$$CBVQString@@V?$vector@PEAVQAction@@V?$allocator@PEAVQAction@@@std@@@std@@@1@AEBUpiecewise_construct_t@1@$$QEAV?$tuple@AEBVQString@@@1@$$QEAV?$tuple@$$V@1@@Z
	??$construct@U?$pair@FI@std@@$$V@?$_Default_allocator_traits@V?$allocator@U?$pair@FI@std@@@std@@@std@@SAXAEAV?$allocator@U?$pair@FI@std@@@1@QEAU?$pair@FI@1@@Z
	??$construct@U?$pair@FI@std@@U12@@?$_Default_allocator_traits@V?$allocator@U?$pair@FI@std@@@std@@@std@@SAXAEAV?$allocator@U?$pair@FI@std@@@1@QEAU?$pair@FI@1@$$QEAU31@@Z
	??$construct@U?$pair@II@std@@U12@@?$_Default_allocator_traits@V?$allocator@U?$pair@II@std@@@std@@@std@@SAXAEAV?$allocator@U?$pair@II@std@@@1@QEAU?$pair@II@1@$$QEAU31@@Z
	??$construct@U?$pair@QEAVQAction@@M@std@@AEBUpiecewise_construct_t@2@V?$tuple@AEBQEAVQAction@@@2@V?$tuple@$$V@2@@?$_Default_allocator_traits@V?$allocator@U?$_Tree_node@U?$pair@QEAVQAction@@M@std@@PEAX@std@@@std@@@std@@SAXAEAV?$allocator@U?$_Tree_node@U?$pair@QEAVQAction@@M@std@@PEAX@std@@@1@QEAU?$pair@QEAVQAction@@M@1@AEBUpiecewise_construct_t@1@$$QEAV?$tuple@AEBQEAVQAction@@@1@$$QEAV?$tuple@$$V@1@@Z
	??$construct@U?$pair@QEAVQGLContext@@V?$PerViewData@UMLPerViewGLOptions@@@vcg@@@std@@AEBUpiecewise_construct_t@2@V?$tuple@AEBQEAVQGLContext@@@2@V?$tuple@$$V@2@@?$_Default_allocator_traits@V?$allocator@U?$_Tree_node@U?$pair@QEAVQGLContext@@V?$PerViewData@UMLPerViewGLOptions@@@vcg@@@std@@PEAX@std@@@std@@@std@@SAXAEAV?$allocator@U?$_Tree_node@U?$pair@QEAVQGLContext@@V?$PerViewData@UMLPerViewGLOptions@@@vcg@@@std@@PEAX@std@@@1@QEAU?$pair@QEAVQGLContext@@V?$PerViewData@UMLPerViewGLOptions@@@vcg@@@1@AEBUpiecewise_construct_t@1@$$QEAV?$tuple@AEBQEAVQGLContext@@@1@$$QEAV?$tuple@$$V@1@@Z
	??$construct@U?$pair@VQString@@V1@@std@@U12@@?$_Default_allocator_traits@V?$allocator@U?$_List_node@U?$pair@VQString@@V1@@std@@PEAX@std@@@std@@@std@@SAXAEAV?$allocator@U?$_List_node@U?$pair@VQString@@V1@@std@@PEAX@std@@@1@QEAU?$pair@VQString@@V1@@1@$$QEAU31@@Z
	??$construct@UAdjTypePack@?$vector_ocf@VCFaceO@@@face@vcg@@$$V@?$_Default_allocator_traits@V?$allocator@UAdjTypePack@?$vector_ocf@VCFaceO@@@face@vcg@@@std@@@std@@SAXAEAV?$allocator@UAdjTypePack@?$vector_ocf@VCFaceO@@@face@vcg@@@1@QEAUAdjTypePack@?$vector_ocf@VCFaceO@@@face@vcg@@@Z
	??$construct@UAdjTypePack@?$vector_ocf@VCFaceO@@@face@vcg@@U1234@@?$_Default_allocator_traits@V?$allocator@UAdjTypePack@?$vector_ocf@VCFaceO@@@face@vcg@@@std@@@std@@SAXAEAV?$allocator@UAdjTypePack@?$vector_ocf@VCFaceO@@@face@vcg@@@1@QEAUAdjTypePack@?$vector_ocf@VCFaceO@@@face@vcg@@$$QEAU3456@@Z
	??$construct@UVFAdjType@?$vector_ocf@VCVertexO@@@vertex@vcg@@AEBU1234@@?$_Default_allocator_traits@V?$allocator@UVFAdjType@?$vector_ocf@VCVertexO@@@vertex@vcg@@@std@@@std@@SAXAEAV?$allocator@UVFAdjType@?$vector_ocf@VCVertexO@@@vertex@vcg@@@1@QEAUVFAdjType@?$vector_ocf@VCVertexO@@@vertex@vcg@@AEBU3456@@Z
	??$construct@UVFAdjType@?$vector_ocf@VCVertexO@@@vertex@vcg@@U1234@@?$_Default_allocator_traits@V?$allocator@UVFAdjType@?$vector_ocf@VCVertexO@@@vertex@vcg@@@std@@@std@@SAXAEAV?$allocator@UVFAdjType@?$vector_ocf@VCVertexO@@@vertex@vcg@@@1@QEAUVFAdjType@?$vector_ocf@VCVertexO@@@vertex@vcg@@$$QEAU3456@@Z
	??$construct@V?$Color4@E@vcg@@$$V@?$_Default_allocator_traits@V?$allocator@V?$Color4@E@vcg@@@std@@@std@@SAXAEAV?$allocator@V?$Color4@E@vcg@@@1@QEAV?$Color4@E@vcg@@@Z
	??$construct@V?$Color4@E@vcg@@AEBV12@@?$_Default_allocator_traits@V?$allocator@V?$Color4@E@vcg@@@std@@@std@@SAXAEAV?$allocator@V?$Color4@E@vcg@@@1@QEAV?$Color4@E@vcg@@AEBV34@@Z
	??$construct@V?$Color4@E@vcg@@V12@@?$_Default_allocator_traits@V?$allocator@V?$Color4@E@vcg@@@std@@@std@@SAXAEAV?$allocator@V?$Color4@E@vcg@@@1@QEAV?$Color4@E@vcg@@$$QEAV34@@Z
	??$construct@V?$HEdge@V?$UsedTypes@UAsVertexType@?$Use@VCVertexO@@@vcg@@UAsEdgeType@?$Use@VCEdgeO@@@3@UAsFaceType@?$Use@VCFaceO@@@3@VDefaultDeriver@3@V83@V83@V83@V83@@vcg@@VDefaultDeriver@2@V32@V32@V32@V32@V32@V32@V32@V32@V32@V32@@vcg@@$$V@?$_Default_allocator_traits@V?$allocator@V?$HEdge@V?$UsedTypes@UAsVertexType@?$Use@VCVertexO@@@vcg@@UAsEdgeType@?$Use@VCEdgeO@@@3@UAsFaceType@?$Use@VCFaceO@@@3@VDefaultDeriver@3@V83@V83@V83@V83@@vcg@@VDefaultDeriver@2@V32@V32@V32@V32@V32@V32@V32@V32@V32@V32@@vcg@@@std@@@std@@SAXAEAV?$allocator@V?$HEdge@V?$UsedTypes@UAsVertexType@?$Use@VCVertexO@@@vcg@@UAsEdgeType@?$Use@VCEdgeO@@@3@UAsFaceType@?$Use@VCFaceO@@@3@VDefaultDeriver@3@V83@V83@V83@V83@@vcg@@VDefaultDeriver@2@V32@V32@V32@V32@V32@V32@V32@V32@V32@V32@@vcg@@@1@QEAV?$HEdge@V?$UsedTypes@UAsVertexType@?$Use@VCVertexO@@@vcg@@UAsEdgeType@?$Use@VCEdgeO@@@3@UAsFaceType@?$Use@VCFaceO@@@3@VDefaultDeriver@3@V83@V83@V83@V83@@vcg@@VDefaultDeriver@2@V32@V32@V32@V32@V32@V32@V32@V32@V32@V32@@vcg@@@Z
	??$construct@V?$HEdge@V?$UsedTypes@UAsVertexType@?$Use@VCVertexO@@@vcg@@UAsEdgeType@?$Use@VCEdgeO@@@3@UAsFaceType@?$Use@VCFaceO@@@3@VDefaultDeriver@3@V83@V83@V83@V83@@vcg@@VDefaultDeriver@2@V32@V32@V32@V32@V32@V32@V32@V32@V32@V32@@vcg@@V12@@?$_Default_allocator_traits@V?$allocator@V?$HEdge@V?$UsedTypes@UAsVertexType@?$Use@VCVertexO@@@vcg@@UAsEdgeType@?$Use@VCEdgeO@@@3@UAsFaceType@?$Use@VCFaceO@@@3@VDefaultDeriver@3@V83@V83@V83@V83@@vcg@@VDefaultDeriver@2@V32@V32@V32@V32@V32@V32@V32@V32@V32@V32@@vcg@@@std@@@std@@SAXAEAV?$allocator@V?$HEdge@V?$UsedTypes@UAsVertexType@?$Use@VCVertexO@@@vcg@@UAsEdgeType@?$Use@VCEdgeO@@@3@UAsFaceType@?$Use@VCFaceO@@@3@VDefaultDeriver@3@V83@V83@V83@V83@@vcg@@VDefaultDeriver@2@V32@V32@V32@V32@V32@V32@V32@V32@V32@V32@@vcg@@@1@QEAV?$HEdge@V?$UsedTypes@UAsVertexType@?$Use@VCVertexO@@@vcg@@UAsEdgeType@?$Use@VCEdgeO@@@3@UAsFaceType@?$Use@VCFaceO@@@3@VDefaultDeriver@3@V83@V83@V83@V83@@vcg@@VDefaultDeriver@2@V32@V32@V32@V32@V32@V32@V32@V32@V32@V32@@vcg@@$$QEAV34@@Z
	??$construct@V?$Matrix@I$0?0$00$0A@$0?0$00@Eigen@@AEBV12@@?$_Default_allocator_traits@V?$allocator@U?$_List_node@V?$Matrix@I$0?0$00$0A@$0?0$00@Eigen@@PEAX@std@@@std@@@std@@SAXAEAV?$allocator@U?$_List_node@V?$Matrix@I$0?0$00$0A@$0?0$00@Eigen@@PEAX@std@@@1@QEAV?$Matrix@I$0?0$00$0A@$0?0$00@Eigen@@AEBV34@@Z
	??$construct@V?$Point2@M@vcg@@$$V@?$_Default_allocator_traits@V?$allocator@V?$Point2@M@vcg@@@std@@@std@@SAXAEAV?$allocator@V?$Point2@M@vcg@@@1@QEAV?$Point2@M@vcg@@@Z
	??$construct@V?$Point2@M@vcg@@V12@@?$_Default_allocator_traits@V?$allocator@V?$Point2@M@vcg@@@std@@@std@@SAXAEAV?$allocator@V?$Point2@M@vcg@@@1@QEAV?$Point2@M@vcg@@$$QEAV34@@Z
	??$construct@V?$Point3@M@vcg@@$$V@?$_Default_allocator_traits@V?$allocator@V?$Point3@M@vcg@@@std@@@std@@SAXAEAV?$allocator@V?$Point3@M@vcg@@@1@QEAV?$Point3@M@vcg@@@Z
	??$construct@V?$Point3@M@vcg@@AEBV12@@?$_Default_allocator_traits@V?$allocator@V?$Point3@M@vcg@@@std@@@std@@SAXAEAV?$allocator@V?$Point3@M@vcg@@@1@QEAV?$Point3@M@vcg@@AEBV34@@Z
	??$construct@V?$Point3@M@vcg@@V12@@?$_Default_allocator_traits@V?$allocator@V?$Point3@M@vcg@@@std@@@std@@SAXAEAV?$allocator@V?$Point3@M@vcg@@@1@QEAV?$Point3@M@vcg@@$$QEAV34@@Z
	??$construct@V?$TetraSimp@V?$UsedTypes@UAsVertexType@?$Use@VCVertexO@@@vcg@@UAsEdgeType@?$Use@VCEdgeO@@@3@UAsFaceType@?$Use@VCFaceO@@@3@VDefaultDeriver@3@V83@V83@V83@V83@@vcg@@VDefaultDeriver@2@V32@V32@V32@V32@V32@V32@V32@V32@V32@V32@V32@@vcg@@$$V@?$_Default_allocator_traits@V?$allocator@V?$TetraSimp@V?$UsedTypes@UAsVertexType@?$Use@VCVertexO@@@vcg@@UAsEdgeType@?$Use@VCEdgeO@@@3@UAsFaceType@?$Use@VCFaceO@@@3@VDefaultDeriver@3@V83@V83@V83@V83@@vcg@@VDefaultDeriver@2@V32@V32@V32@V32@V32@V32@V32@V32@V32@V32@V32@@vcg@@@std@@@std@@SAXAEAV?$allocator@V?$TetraSimp@V?$UsedTypes@UAsVertexType@?$Use@VCVertexO@@@vcg@@UAsEdgeType@?$Use@VCEdgeO@@@3@UAsFaceType@?$Use@VCFaceO@@@3@VDefaultDeriver@3@V83@V83@V83@V83@@vcg@@VDefaultDeriver@2@V32@V32@V32@V32@V32@V32@V32@V32@V32@V32@V32@@vcg@@@1@QEAV?$TetraSimp@V?$UsedTypes@UAsVertexType@?$Use@VCVertexO@@@vcg@@UAsEdgeType@?$Use@VCEdgeO@@@3@UAsFaceType@?$Use@VCFaceO@@@3@VDefaultDeriver@3@V83@V83@V83@V83@@vcg@@VDefaultDeriver@2@V32@V32@V32@V32@V32@V32@V32@V32@V32@V32@V32@@vcg@@@Z
	??$construct@V?$TetraSimp@V?$UsedTypes@UAsVertexType@?$Use@VCVertexO@@@vcg@@UAsEdgeType@?$Use@VCEdgeO@@@3@UAsFaceType@?$Use@VCFaceO@@@3@VDefaultDeriver@3@V83@V83@V83@V83@@vcg@@VDefaultDeriver@2@V32@V32@V32@V32@V32@V32@V32@V32@V32@V32@V32@@vcg@@V12@@?$_Default_allocator_traits@V?$allocator@V?$TetraSimp@V?$UsedTypes@UAsVertexType@?$Use@VCVertexO@@@vcg@@UAsEdgeType@?$Use@VCEdgeO@@@3@UAsFaceType@?$Use@VCFaceO@@@3@VDefaultDeriver@3@V83@V83@V83@V83@@vcg@@VDefaultDeriver@2@V32@V32@V32@V32@V32@V32@V32@V32@V32@V32@V32@@vcg@@@std@@@std@@SAXAEAV?$allocator@V?$TetraSimp@V?$UsedTypes@UAsVertexType@?$Use@VCVertexO@@@vcg@@UAsEdgeType@?$Use@VCEdgeO@@@3@UAsFaceType@?$Use@VCFaceO@@@3@VDefaultDeriver@3@V83@V83@V83@V83@@vcg@@VDefaultDeriver@2@V32@V32@V32@V32@V32@V32@V32@V32@V32@V32@V32@@vcg@@@1@QEAV?$TetraSimp@V?$UsedTypes@UAsVertexType@?$Use@VCVertexO@@@vcg@@UAsEdgeType@?$Use@VCEdgeO@@@3@UAsFaceType@?$Use@VCFaceO@@@3@VDefaultDeriver@3@V83@V83@V83@V83@@vcg@@VDefaultDeriver@2@V32@V32@V32@V32@V32@V32@V32@V32@V32@V32@V32@@vcg@@$$QEAV34@@Z
	??$construct@V?$TexCoord2@M$00@vcg@@$$V@?$_Default_allocator_traits@V?$allocator@V?$TexCoord2@M$00@vcg@@@std@@@std@@SAXAEAV?$allocator@V?$TexCoord2@M$00@vcg@@@1@QEAV?$TexCoord2@M$00@vcg@@@Z
	??$construct@V?$TexCoord2@M$00@vcg@@V12@@?$_Default_allocator_traits@V?$allocator@V?$TexCoord2@M$00@vcg@@@std@@@std@@SAXAEAV?$allocator@V?$TexCoord2@M$00@vcg@@@1@QEAV?$TexCoord2@M$00@vcg@@$$QEAV34@@Z
	??$construct@V?$basic_string@DU?$char_traits@D@std@@V?$allocator@D@2@@std@@AEAV12@@?$_Default_allocator_traits@V?$allocator@U?$_List_node@V?$basic_string@DU?$char_traits@D@std@@V?$allocator@D@2@@std@@PEAX@std@@@std@@@std@@SAXAEAV?$allocator@U?$_List_node@V?$basic_string@DU?$char_traits@D@std@@V?$allocator@D@2@@std@@PEAX@std@@@1@QEAV?$basic_string@DU?$char_traits@D@std@@V?$allocator@D@2@@1@AEAV31@@Z
	??$construct@V?$basic_string@DU?$char_traits@D@std@@V?$allocator@D@2@@std@@AEAV12@@?$_Default_allocator_traits@V?$allocator@V?$basic_string@DU?$char_traits@D@std@@V?$allocator@D@2@@std@@@std@@@std@@SAXAEAV?$allocator@V?$basic_string@DU?$char_traits@D@std@@V?$allocator@D@2@@std@@@1@QEAV?$basic_string@DU?$char_traits@D@std@@V?$allocator@D@2@@1@AEAV31@@Z
	??$construct@V?$basic_string@DU?$char_traits@D@std@@V?$allocator@D@2@@std@@AEBV12@@?$_Default_allocator_traits@V?$allocator@U?$_List_node@V?$basic_string@DU?$char_traits@D@std@@V?$allocator@D@2@@std@@PEAX@std@@@std@@@std@@SAXAEAV?$allocator@U?$_List_node@V?$basic_string@DU?$char_traits@D@std@@V?$allocator@D@2@@std@@PEAX@std@@@1@QEAV?$basic_string@DU?$char_traits@D@std@@V?$allocator@D@2@@1@AEBV31@@Z
	??$construct@V?$basic_string@DU?$char_traits@D@std@@V?$allocator@D@2@@std@@AEBV12@@?$_Default_allocator_traits@V?$allocator@V?$basic_string@DU?$char_traits@D@std@@V?$allocator@D@2@@std@@@std@@@std@@SAXAEAV?$allocator@V?$basic_string@DU?$char_traits@D@std@@V?$allocator@D@2@@std@@@1@QEAV?$basic_string@DU?$char_traits@D@std@@V?$allocator@D@2@@1@AEBV31@@Z
	??$construct@V?$basic_string@DU?$char_traits@D@std@@V?$allocator@D@2@@std@@V12@@?$_Default_allocator_traits@V?$allocator@U?$_List_node@V?$basic_string@DU?$char_traits@D@std@@V?$allocator@D@2@@std@@PEAX@std@@@std@@@std@@SAXAEAV?$allocator@U?$_List_node@V?$basic_string@DU?$char_traits@D@std@@V?$allocator@D@2@@std@@PEAX@std@@@1@QEAV?$basic_string@DU?$char_traits@D@std@@V?$allocator@D@2@@1@$$QEAV31@@Z
	??$construct@V?$basic_string@DU?$char_traits@D@std@@V?$allocator@D@2@@std@@V12@@?$_Default_allocator_traits@V?$allocator@V?$basic_string@DU?$char_traits@D@std@@V?$allocator@D@2@@std@@@std@@@std@@SAXAEAV?$allocator@V?$basic_string@DU?$char_traits@D@std@@V?$allocator@D@2@@std@@@1@QEAV?$basic_string@DU?$char_traits@D@std@@V?$allocator@D@2@@1@$$QEAV31@@Z
	??$construct@V?$vector@IV?$allocator@I@std@@@std@@$$V@?$_Default_allocator_traits@V?$allocator@V?$vector@IV?$allocator@I@std@@@std@@@std@@@std@@SAXAEAV?$allocator@V?$vector@IV?$allocator@I@std@@@std@@@1@QEAV?$vector@IV?$allocator@I@std@@@1@@Z
	??$construct@VCEdgeO@@$$V@?$_Default_allocator_traits@V?$allocator@VCEdgeO@@@std@@@std@@SAXAEAV?$allocator@VCEdgeO@@@1@QEAVCEdgeO@@@Z
	??$construct@VCEdgeO@@V1@@?$_Default_allocator_traits@V?$allocator@VCEdgeO@@@std@@@std@@SAXAEAV?$allocator@VCEdgeO@@@1@QEAVCEdgeO@@$$QEAV3@@Z
	??$construct@VCFaceO@@$$V@?$_Default_allocator_traits@V?$allocator@VCFaceO@@@std@@@std@@SAXAEAV?$allocator@VCFaceO@@@1@QEAVCFaceO@@@Z
	??$construct@VCFaceO@@V1@@?$_Default_allocator_traits@V?$allocator@VCFaceO@@@std@@@std@@SAXAEAV?$allocator@VCFaceO@@@1@QEAVCFaceO@@$$QEAV3@@Z
	??$construct@VCVertexO@@$$V@?$_Default_allocator_traits@V?$allocator@VCVertexO@@@std@@@std@@SAXAEAV?$allocator@VCVertexO@@@1@QEAVCVertexO@@@Z
	??$construct@VCVertexO@@V1@@?$_Default_allocator_traits@V?$allocator@VCVertexO@@@std@@@std@@SAXAEAV?$allocator@VCVertexO@@@1@QEAVCVertexO@@$$QEAV3@@Z
	??$construct@VEdgeVertInd@?$NotThreadSafeGLMeshAttributesMultiViewerBOManager@VCMeshO@@PEAVQGLContext@@UMLPerViewGLOptions@@@vcg@@$$V@?$_Default_allocator_traits@V?$allocator@VEdgeVertInd@?$NotThreadSafeGLMeshAttributesMultiViewerBOManager@VCMeshO@@PEAVQGLContext@@UMLPerViewGLOptions@@@vcg@@@std@@@std@@SAXAEAV?$allocator@VEdgeVertInd@?$NotThreadSafeGLMeshAttributesMultiViewerBOManager@VCMeshO@@PEAVQGLContext@@UMLPerViewGLOptions@@@vcg@@@1@QEAVEdgeVertInd@?$NotThreadSafeGLMeshAttributesMultiViewerBOManager@VCMeshO@@PEAVQGLContext@@UMLPerViewGLOptions@@@vcg@@@Z
	??$construct@VEdgeVertInd@?$NotThreadSafeGLMeshAttributesMultiViewerBOManager@VCMeshO@@PEAVQGLContext@@UMLPerViewGLOptions@@@vcg@@V123@@?$_Default_allocator_traits@V?$allocator@VEdgeVertInd@?$NotThreadSafeGLMeshAttributesMultiViewerBOManager@VCMeshO@@PEAVQGLContext@@UMLPerViewGLOptions@@@vcg@@@std@@@std@@SAXAEAV?$allocator@VEdgeVertInd@?$NotThreadSafeGLMeshAttributesMultiViewerBOManager@VCMeshO@@PEAVQGLContext@@UMLPerViewGLOptions@@@vcg@@@1@QEAVEdgeVertInd@?$NotThreadSafeGLMeshAttributesMultiViewerBOManager@VCMeshO@@PEAVQGLContext@@UMLPerViewGLOptions@@@vcg@@$$QEAV345@@Z
	??$construct@VFunction@pymeshlab@@AEBV12@@?$_Default_allocator_traits@V?$allocator@U?$_Tree_node@VFunction@pymeshlab@@PEAX@std@@@std@@@std@@SAXAEAV?$allocator@U?$_Tree_node@VFunction@pymeshlab@@PEAX@std@@@1@QEAVFunction@pymeshlab@@AEBV34@@Z
	??$construct@VFunctionParameter@pymeshlab@@AEBV12@@?$_Default_allocator_traits@V?$allocator@U?$_List_node@VFunctionParameter@pymeshlab@@PEAX@std@@@std@@@std@@SAXAEAV?$allocator@U?$_List_node@VFunctionParameter@pymeshlab@@PEAX@std@@@1@QEAVFunctionParameter@pymeshlab@@AEBV34@@Z
	??$construct@VInternalRendAtts@GLMeshAttributesInfo@vcg@@$$V@?$_Default_allocator_traits@V?$allocator@VInternalRendAtts@GLMeshAttributesInfo@vcg@@@std@@@std@@SAXAEAV?$allocator@VInternalRendAtts@GLMeshAttributesInfo@vcg@@@1@QEAVInternalRendAtts@GLMeshAttributesInfo@vcg@@@Z
	??$construct@VInternalRendAtts@GLMeshAttributesInfo@vcg@@AEAV123@@?$_Default_allocator_traits@V?$allocator@VInternalRendAtts@GLMeshAttributesInfo@vcg@@@std@@@std@@SAXAEAV?$allocator@VInternalRendAtts@GLMeshAttributesInfo@vcg@@@1@QEAVInternalRendAtts@GLMeshAttributesInfo@vcg@@AEAV345@@Z
	??$construct@VInternalRendAtts@GLMeshAttributesInfo@vcg@@AEBV123@@?$_Default_allocator_traits@V?$allocator@VInternalRendAtts@GLMeshAttributesInfo@vcg@@@std@@@std@@SAXAEAV?$allocator@VInternalRendAtts@GLMeshAttributesInfo@vcg@@@1@QEAVInternalRendAtts@GLMeshAttributesInfo@vcg@@AEBV345@@Z
	??$construct@VMeshModel@@V1@@?$_Default_allocator_traits@V?$allocator@U?$_List_node@VMeshModel@@PEAX@std@@@std@@@std@@SAXAEAV?$allocator@U?$_List_node@VMeshModel@@PEAX@std@@@1@QEAVMeshModel@@$$QEAV3@@Z
	??$construct@VPEdge@?$UpdateTopology@VCMeshO@@@tri@vcg@@V1234@@?$_Default_allocator_traits@V?$allocator@VPEdge@?$UpdateTopology@VCMeshO@@@tri@vcg@@@std@@@std@@SAXAEAV?$allocator@VPEdge@?$UpdateTopology@VCMeshO@@@tri@vcg@@@1@QEAVPEdge@?$UpdateTopology@VCMeshO@@@tri@vcg@@$$QEAV3456@@Z
	??$construct@VPFace@vcg@@$$V@?$_Default_allocator_traits@V?$allocator@VPFace@vcg@@@std@@@std@@SAXAEAV?$allocator@VPFace@vcg@@@1@QEAVPFace@vcg@@@Z
	??$construct@VPFace@vcg@@V12@@?$_Default_allocator_traits@V?$allocator@VPFace@vcg@@@std@@@std@@SAXAEAV?$allocator@VPFace@vcg@@@1@QEAVPFace@vcg@@$$QEAV34@@Z
	??$construct@VPVertex@vcg@@$$V@?$_Default_allocator_traits@V?$allocator@VPVertex@vcg@@@std@@@std@@SAXAEAV?$allocator@VPVertex@vcg@@@1@QEAVPVertex@vcg@@@Z
	??$construct@VPVertex@vcg@@V12@@?$_Default_allocator_traits@V?$allocator@VPVertex@vcg@@@std@@@std@@SAXAEAV?$allocator@VPVertex@vcg@@@1@QEAVPVertex@vcg@@$$QEAV34@@Z
	??$construct@VPointerToAttribute@vcg@@AEBV12@@?$_Default_allocator_traits@V?$allocator@U?$_Tree_node@VPointerToAttribute@vcg@@PEAX@std@@@std@@@std@@SAXAEAV?$allocator@U?$_Tree_node@VPointerToAttribute@vcg@@PEAX@std@@@1@QEAVPointerToAttribute@vcg@@AEBV34@@Z
	??$construct@VQString@@V1@@?$_Default_allocator_traits@V?$allocator@U?$_Tree_node@VQString@@PEAX@std@@@std@@@std@@SAXAEAV?$allocator@U?$_Tree_node@VQString@@PEAX@std@@@1@QEAVQString@@$$QEAV3@@Z
	??$construct@VRasterModel@@V1@@?$_Default_allocator_traits@V?$allocator@U?$_List_node@VRasterModel@@PEAX@std@@@std@@@std@@SAXAEAV?$allocator@U?$_List_node@VRasterModel@@PEAX@std@@@1@QEAVRasterModel@@$$QEAV3@@Z
	??$construct@VWedgeColorTypePack@?$vector_ocf@VCFaceO@@@face@vcg@@$$V@?$_Default_allocator_traits@V?$allocator@VWedgeColorTypePack@?$vector_ocf@VCFaceO@@@face@vcg@@@std@@@std@@SAXAEAV?$allocator@VWedgeColorTypePack@?$vector_ocf@VCFaceO@@@face@vcg@@@1@QEAVWedgeColorTypePack@?$vector_ocf@VCFaceO@@@face@vcg@@@Z
	??$construct@VWedgeColorTypePack@?$vector_ocf@VCFaceO@@@face@vcg@@V1234@@?$_Default_allocator_traits@V?$allocator@VWedgeColorTypePack@?$vector_ocf@VCFaceO@@@face@vcg@@@std@@@std@@SAXAEAV?$allocator@VWedgeColorTypePack@?$vector_ocf@VCFaceO@@@face@vcg@@@1@QEAVWedgeColorTypePack@?$vector_ocf@VCFaceO@@@face@vcg@@$$QEAV3456@@Z
	??$construct@VWedgeNormalTypePack@?$vector_ocf@VCFaceO@@@face@vcg@@$$V@?$_Default_allocator_traits@V?$allocator@VWedgeNormalTypePack@?$vector_ocf@VCFaceO@@@face@vcg@@@std@@@std@@SAXAEAV?$allocator@VWedgeNormalTypePack@?$vector_ocf@VCFaceO@@@face@vcg@@@1@QEAVWedgeNormalTypePack@?$vector_ocf@VCFaceO@@@face@vcg@@@Z
	??$construct@VWedgeNormalTypePack@?$vector_ocf@VCFaceO@@@face@vcg@@V1234@@?$_Default_allocator_traits@V?$allocator@VWedgeNormalTypePack@?$vector_ocf@VCFaceO@@@face@vcg@@@std@@@std@@SAXAEAV?$allocator@VWedgeNormalTypePack@?$vector_ocf@VCFaceO@@@face@vcg@@@1@QEAVWedgeNormalTypePack@?$vector_ocf@VCFaceO@@@face@vcg@@$$QEAV3456@@Z
	??$construct@VWedgeTexTypePack@?$vector_ocf@VCFaceO@@@face@vcg@@AEBV1234@@?$_Default_allocator_traits@V?$allocator@VWedgeTexTypePack@?$vector_ocf@VCFaceO@@@face@vcg@@@std@@@std@@SAXAEAV?$allocator@VWedgeTexTypePack@?$vector_ocf@VCFaceO@@@face@vcg@@@1@QEAVWedgeTexTypePack@?$vector_ocf@VCFaceO@@@face@vcg@@AEBV3456@@Z
	??$construct@VWedgeTexTypePack@?$vector_ocf@VCFaceO@@@face@vcg@@V1234@@?$_Default_allocator_traits@V?$allocator@VWedgeTexTypePack@?$vector_ocf@VCFaceO@@@face@vcg@@@std@@@std@@SAXAEAV?$allocator@VWedgeTexTypePack@?$vector_ocf@VCFaceO@@@face@vcg@@@1@QEAVWedgeTexTypePack@?$vector_ocf@VCFaceO@@@face@vcg@@$$QEAV3456@@Z
	??$construct@_KAEB_K@?$_Default_allocator_traits@V?$allocator@_K@std@@@std@@SAXAEAV?$allocator@_K@1@QEA_KAEB_K@Z
	??$construct@_K_K@?$_Default_allocator_traits@V?$allocator@_K@std@@@std@@SAXAEAV?$allocator@_K@1@QEA_K$$QEA_K@Z
	??$construct_elements_of_array@H@internal@Eigen@@YAPEAHPEAH_K@Z
	??$construct_elements_of_array@I@internal@Eigen@@YAPEAIPEAI_K@Z
	??$construct_elements_of_array@M@internal@Eigen@@YAPEAMPEAM_K@Z
	??$construct_elements_of_array@_N@internal@Eigen@@YAPEA_NPEA_N_K@Z
	??$copy@PEBVQString@@V?$back_insert_iterator@V?$QList@VQString@@@@@std@@@std@@YA?AV?$back_insert_iterator@V?$QList@VQString@@@@@0@PEBVQString@@0V10@@Z
	??$copy@V?$_Vb_iterator@U?$_Wrap_alloc@V?$allocator@I@std@@@std@@@std@@V12@@std@@YA?AV?$_Vb_iterator@U?$_Wrap_alloc@V?$allocator@I@std@@@std@@@0@V10@00@Z
	??$copy_backward@V?$_Vb_iterator@U?$_Wrap_alloc@V?$allocator@I@std@@@std@@@std@@V12@@std@@YA?AV?$_Vb_iterator@U?$_Wrap_alloc@V?$allocator@I@std@@@std@@@0@V10@00@Z
	??$deref@H@?$QAtomicOps@H@@SA_NAEAU?$atomic@H@std@@@Z
	??$destroy@H@?$_Default_allocator_traits@V?$allocator@U?$_List_node@HPEAX@std@@@std@@@std@@SAXAEAV?$allocator@U?$_List_node@HPEAX@std@@@1@QEAH@Z
	??$destroy@I@?$_Default_allocator_traits@V?$allocator@I@std@@@std@@SAXAEAV?$allocator@I@1@QEAI@Z
	??$destroy@PEAVDecoratePlugin@@@?$_Default_allocator_traits@V?$allocator@PEAVDecoratePlugin@@@std@@@std@@SAXAEAV?$allocator@PEAVDecoratePlugin@@@1@QEAPEAVDecoratePlugin@@@Z
	??$destroy@PEAVEditPlugin@@@?$_Default_allocator_traits@V?$allocator@PEAVEditPlugin@@@std@@@std@@SAXAEAV?$allocator@PEAVEditPlugin@@@1@QEAPEAVEditPlugin@@@Z
	??$destroy@PEAVFilterPlugin@@@?$_Default_allocator_traits@V?$allocator@PEAVFilterPlugin@@@std@@@std@@SAXAEAV?$allocator@PEAVFilterPlugin@@@1@QEAPEAVFilterPlugin@@@Z
	??$destroy@PEAVIOPlugin@@@?$_Default_allocator_traits@V?$allocator@PEAVIOPlugin@@@std@@@std@@SAXAEAV?$allocator@PEAVIOPlugin@@@1@QEAPEAVIOPlugin@@@Z
	??$destroy@PEAVMeshLabPlugin@@@?$_Default_allocator_traits@V?$allocator@PEAVMeshLabPlugin@@@std@@@std@@SAXAEAV?$allocator@PEAVMeshLabPlugin@@@1@QEAPEAVMeshLabPlugin@@@Z
	??$destroy@PEAVMeshModel@@@?$_Default_allocator_traits@V?$allocator@U?$_List_node@PEAVMeshModel@@PEAX@std@@@std@@@std@@SAXAEAV?$allocator@U?$_List_node@PEAVMeshModel@@PEAX@std@@@1@QEAPEAVMeshModel@@@Z
	??$destroy@PEAVQAction@@@?$_Default_allocator_traits@V?$allocator@U?$_List_node@PEAVQAction@@PEAX@std@@@std@@@std@@SAXAEAV?$allocator@U?$_List_node@PEAVQAction@@PEAX@std@@@1@QEAPEAVQAction@@@Z
	??$destroy@PEAVQPluginLoader@@@?$_Default_allocator_traits@V?$allocator@PEAVQPluginLoader@@@std@@@std@@SAXAEAV?$allocator@PEAVQPluginLoader@@@1@QEAPEAVQPluginLoader@@@Z
	??$destroy@PEAVRenderPlugin@@@?$_Default_allocator_traits@V?$allocator@PEAVRenderPlugin@@@std@@@std@@SAXAEAV?$allocator@PEAVRenderPlugin@@@1@QEAPEAVRenderPlugin@@@Z
	??$destroy@PEAVRichParameter@@@?$_Default_allocator_traits@V?$allocator@U?$_List_node@PEAVRichParameter@@PEAX@std@@@std@@@std@@SAXAEAV?$allocator@U?$_List_node@PEAVRichParameter@@PEAX@std@@@1@QEAPEAVRichParameter@@@Z
	??$destroy@U?$pair@$$CBFV?$vector@U?$pair@II@std@@V?$allocator@U?$pair@II@std@@@2@@std@@@std@@@?$_Default_allocator_traits@V?$allocator@U?$_Tree_node@U?$pair@$$CBFV?$vector@U?$pair@II@std@@V?$allocator@U?$pair@II@std@@@2@@std@@@std@@PEAX@std@@@std@@@std@@SAXAEAV?$allocator@U?$_Tree_node@U?$pair@$$CBFV?$vector@U?$pair@II@std@@V?$allocator@U?$pair@II@std@@@2@@std@@@std@@PEAX@std@@@1@QEAU?$pair@$$CBFV?$vector@U?$pair@II@std@@V?$allocator@U?$pair@II@std@@@2@@std@@@1@@Z
	??$destroy@U?$pair@$$CBHPEAV?$QtThreadSafeGLMeshAttributesMultiViewerBOManager@VCMeshO@@PEAVQGLContext@@UMLPerViewGLOptions@@@vcg@@@std@@@?$_Default_allocator_traits@V?$allocator@U?$_Tree_node@U?$pair@$$CBHPEAV?$QtThreadSafeGLMeshAttributesMultiViewerBOManager@VCMeshO@@PEAVQGLContext@@UMLPerViewGLOptions@@@vcg@@@std@@PEAX@std@@@std@@@std@@SAXAEAV?$allocator@U?$_Tree_node@U?$pair@$$CBHPEAV?$QtThreadSafeGLMeshAttributesMultiViewerBOManager@VCMeshO@@PEAVQGLContext@@UMLPerViewGLOptions@@@vcg@@@std@@PEAX@std@@@1@QEAU?$pair@$$CBHPEAV?$QtThreadSafeGLMeshAttributesMultiViewerBOManager@VCMeshO@@PEAVQGLContext@@UMLPerViewGLOptions@@@vcg@@@1@@Z
	??$destroy@U?$pair@$$CBMV?$vector@PEAVQAction@@V?$allocator@PEAVQAction@@@std@@@std@@@std@@@?$_Default_allocator_traits@V?$allocator@U?$_Tree_node@U?$pair@$$CBMV?$vector@PEAVQAction@@V?$allocator@PEAVQAction@@@std@@@std@@@std@@PEAX@std@@@std@@@std@@SAXAEAV?$allocator@U?$_Tree_node@U?$pair@$$CBMV?$vector@PEAVQAction@@V?$allocator@PEAVQAction@@@std@@@std@@@std@@PEAX@std@@@1@QEAU?$pair@$$CBMV?$vector@PEAVQAction@@V?$allocator@PEAVQAction@@@std@@@std@@@1@@Z
	??$destroy@U?$pair@$$CBV?$basic_string@DU?$char_traits@D@std@@V?$allocator@D@2@@std@@VQImage@@@std@@@?$_Default_allocator_traits@V?$allocator@U?$_Tree_node@U?$pair@$$CBV?$basic_string@DU?$char_traits@D@std@@V?$allocator@D@2@@std@@VQImage@@@std@@PEAX@std@@@std@@@std@@SAXAEAV?$allocator@U?$_Tree_node@U?$pair@$$CBV?$basic_string@DU?$char_traits@D@std@@V?$allocator@D@2@@std@@VQImage@@@std@@PEAX@std@@@1@QEAU?$pair@$$CBV?$basic_string@DU?$char_traits@D@std@@V?$allocator@D@2@@std@@VQImage@@@1@@Z
	??$destroy@U?$pair@$$CBVQString@@V?$vector@PEAVQAction@@V?$allocator@PEAVQAction@@@std@@@std@@@std@@@?$_Default_allocator_traits@V?$allocator@U?$_Tree_node@U?$pair@$$CBVQString@@V?$vector@PEAVQAction@@V?$allocator@PEAVQAction@@@std@@@std@@@std@@PEAX@std@@@std@@@std@@SAXAEAV?$allocator@U?$_Tree_node@U?$pair@$$CBVQString@@V?$vector@PEAVQAction@@V?$allocator@PEAVQAction@@@std@@@std@@@std@@PEAX@std@@@1@QEAU?$pair@$$CBVQString@@V?$vector@PEAVQAction@@V?$allocator@PEAVQAction@@@std@@@std@@@1@@Z
	??$destroy@U?$pair@QEAVQAction@@M@std@@@?$_Default_allocator_traits@V?$allocator@U?$_Tree_node@U?$pair@QEAVQAction@@M@std@@PEAX@std@@@std@@@std@@SAXAEAV?$allocator@U?$_Tree_node@U?$pair@QEAVQAction@@M@std@@PEAX@std@@@1@QEAU?$pair@QEAVQAction@@M@1@@Z
	??$destroy@U?$pair@QEAVQGLContext@@V?$PerViewData@UMLPerViewGLOptions@@@vcg@@@std@@@?$_Default_allocator_traits@V?$allocator@U?$_Tree_node@U?$pair@QEAVQGLContext@@V?$PerViewData@UMLPerViewGLOptions@@@vcg@@@std@@PEAX@std@@@std@@@std@@SAXAEAV?$allocator@U?$_Tree_node@U?$pair@QEAVQGLContext@@V?$PerViewData@UMLPerViewGLOptions@@@vcg@@@std@@PEAX@std@@@1@QEAU?$pair@QEAVQGLContext@@V?$PerViewData@UMLPerViewGLOptions@@@vcg@@@1@@Z
	??$destroy@U?$pair@VQString@@V1@@std@@@?$_Default_allocator_traits@V?$allocator@U?$_List_node@U?$pair@VQString@@V1@@std@@PEAX@std@@@std@@@std@@SAXAEAV?$allocator@U?$_List_node@U?$pair@VQString@@V1@@std@@PEAX@std@@@1@QEAU?$pair@VQString@@V1@@1@@Z
	??$destroy@V?$Matrix@I$0?0$00$0A@$0?0$00@Eigen@@@?$_Default_allocator_traits@V?$allocator@U?$_List_node@V?$Matrix@I$0?0$00$0A@$0?0$00@Eigen@@PEAX@std@@@std@@@std@@SAXAEAV?$allocator@U?$_List_node@V?$Matrix@I$0?0$00$0A@$0?0$00@Eigen@@PEAX@std@@@1@QEAV?$Matrix@I$0?0$00$0A@$0?0$00@Eigen@@@Z
	??$destroy@V?$basic_string@DU?$char_traits@D@std@@V?$allocator@D@2@@std@@@?$_Default_allocator_traits@V?$allocator@U?$_List_node@V?$basic_string@DU?$char_traits@D@std@@V?$allocator@D@2@@std@@PEAX@std@@@std@@@std@@SAXAEAV?$allocator@U?$_List_node@V?$basic_string@DU?$char_traits@D@std@@V?$allocator@D@2@@std@@PEAX@std@@@1@QEAV?$basic_string@DU?$char_traits@D@std@@V?$allocator@D@2@@1@@Z
	??$destroy@V?$basic_string@DU?$char_traits@D@std@@V?$allocator@D@2@@std@@@?$_Default_allocator_traits@V?$allocator@V?$basic_string@DU?$char_traits@D@std@@V?$allocator@D@2@@std@@@std@@@std@@SAXAEAV?$allocator@V?$basic_string@DU?$char_traits@D@std@@V?$allocator@D@2@@std@@@1@QEAV?$basic_string@DU?$char_traits@D@std@@V?$allocator@D@2@@1@@Z
	??$destroy@V?$vector@IV?$allocator@I@std@@@std@@@?$_Default_allocator_traits@V?$allocator@V?$vector@IV?$allocator@I@std@@@std@@@std@@@std@@SAXAEAV?$allocator@V?$vector@IV?$allocator@I@std@@@std@@@1@QEAV?$vector@IV?$allocator@I@std@@@1@@Z
	??$destroy@VFileFormat@@@?$_Default_allocator_traits@V?$allocator@U?$_List_node@VFileFormat@@PEAX@std@@@std@@@std@@SAXAEAV?$allocator@U?$_List_node@VFileFormat@@PEAX@std@@@1@QEAVFileFormat@@@Z
	??$destroy@VFunction@pymeshlab@@@?$_Default_allocator_traits@V?$allocator@U?$_Tree_node@VFunction@pymeshlab@@PEAX@std@@@std@@@std@@SAXAEAV?$allocator@U?$_Tree_node@VFunction@pymeshlab@@PEAX@std@@@1@QEAVFunction@pymeshlab@@@Z
	??$destroy@VFunctionParameter@pymeshlab@@@?$_Default_allocator_traits@V?$allocator@U?$_List_node@VFunctionParameter@pymeshlab@@PEAX@std@@@std@@@std@@SAXAEAV?$allocator@U?$_List_node@VFunctionParameter@pymeshlab@@PEAX@std@@@1@QEAVFunctionParameter@pymeshlab@@@Z
	??$destroy@VInternalRendAtts@GLMeshAttributesInfo@vcg@@@?$_Default_allocator_traits@V?$allocator@VInternalRendAtts@GLMeshAttributesInfo@vcg@@@std@@@std@@SAXAEAV?$allocator@VInternalRendAtts@GLMeshAttributesInfo@vcg@@@1@QEAVInternalRendAtts@GLMeshAttributesInfo@vcg@@@Z
	??$destroy@VMLRenderingData@@@?$_Default_allocator_traits@V?$allocator@VMLRenderingData@@@std@@@std@@SAXAEAV?$allocator@VMLRenderingData@@@1@QEAVMLRenderingData@@@Z
	??$destroy@VMeshModel@@@?$_Default_allocator_traits@V?$allocator@U?$_List_node@VMeshModel@@PEAX@std@@@std@@@std@@SAXAEAV?$allocator@U?$_List_node@VMeshModel@@PEAX@std@@@1@QEAVMeshModel@@@Z
	??$destroy@VPointerToAttribute@vcg@@@?$_Default_allocator_traits@V?$allocator@U?$_Tree_node@VPointerToAttribute@vcg@@PEAX@std@@@std@@@std@@SAXAEAV?$allocator@U?$_Tree_node@VPointerToAttribute@vcg@@PEAX@std@@@1@QEAVPointerToAttribute@vcg@@@Z
	??$destroy@VQString@@@?$_Default_allocator_traits@V?$allocator@U?$_Tree_node@VQString@@PEAX@std@@@std@@@std@@SAXAEAV?$allocator@U?$_Tree_node@VQString@@PEAX@std@@@1@QEAVQString@@@Z
	??$destroy@VRasterModel@@@?$_Default_allocator_traits@V?$allocator@U?$_List_node@VRasterModel@@PEAX@std@@@std@@@std@@SAXAEAV?$allocator@U?$_List_node@VRasterModel@@PEAX@std@@@1@QEAVRasterModel@@@Z
	??$destruct_elements_of_array@H@internal@Eigen@@YAXPEAH_K@Z
	??$destruct_elements_of_array@I@internal@Eigen@@YAXPEAI_K@Z
	??$destruct_elements_of_array@M@internal@Eigen@@YAXPEAM_K@Z
	??$destruct_elements_of_array@_N@internal@Eigen@@YAXPEA_N_K@Z
	??$distance@PEAPEAVQAction@@@std@@YA_JPEAPEAVQAction@@0@Z
	??$distance@PEAV?$basic_string@DU?$char_traits@D@std@@V?$allocator@D@2@@std@@@std@@YA_JPEAV?$basic_string@DU?$char_traits@D@std@@V?$allocator@D@2@@0@0@Z
	??$distance@PEAVInternalRendAtts@GLMeshAttributesInfo@vcg@@@std@@YA_JPEAVInternalRendAtts@GLMeshAttributesInfo@vcg@@0@Z
	??$distance@PEBVQString@@@std@@YA_JPEBVQString@@0@Z
	??$distance@V?$_Tree_unchecked_const_iterator@V?$_Tree_val@U?$_Tree_simple_types@U?$pair@QEAVQGLContext@@V?$PerViewData@UMLPerViewGLOptions@@@vcg@@@std@@@std@@@std@@U_Iterator_base0@2@@std@@@std@@YA_JV?$_Tree_unchecked_const_iterator@V?$_Tree_val@U?$_Tree_simple_types@U?$pair@QEAVQGLContext@@V?$PerViewData@UMLPerViewGLOptions@@@vcg@@@std@@@std@@@std@@U_Iterator_base0@2@@0@0@Z
	??$distance@V?$_Vector_iterator@V?$_Vector_val@U?$_Simple_types@VCFaceO@@@std@@@std@@@std@@@std@@YA_JV?$_Vector_iterator@V?$_Vector_val@U?$_Simple_types@VCFaceO@@@std@@@std@@@0@0@Z
	??$emplace_back@AEBH@?$vector@HV?$allocator@H@std@@@std@@QEAA?A_TAEBH@Z
	??$emplace_back@AEBI@?$vector@IV?$allocator@I@std@@@std@@QEAA?A_TAEBI@Z
	??$emplace_back@AEBQEAVCFaceO@@@?$vector@PEAVCFaceO@@V?$allocator@PEAVCFaceO@@@std@@@std@@QEAA?A_TAEBQEAVCFaceO@@@Z
	??$emplace_back@AEBQEAVCVertexO@@@?$vector@PEAVCVertexO@@V?$allocator@PEAVCVertexO@@@std@@@std@@QEAA?A_TAEBQEAVCVertexO@@@Z
	??$emplace_back@AEBQEAVDecoratePlugin@@@?$vector@PEAVDecoratePlugin@@V?$allocator@PEAVDecoratePlugin@@@std@@@std@@QEAA?A_TAEBQEAVDecoratePlugin@@@Z
	??$emplace_back@AEBQEAVEditPlugin@@@?$vector@PEAVEditPlugin@@V?$allocator@PEAVEditPlugin@@@std@@@std@@QEAA?A_TAEBQEAVEditPlugin@@@Z
	??$emplace_back@AEBQEAVFilterPlugin@@@?$vector@PEAVFilterPlugin@@V?$allocator@PEAVFilterPlugin@@@std@@@std@@QEAA?A_TAEBQEAVFilterPlugin@@@Z
	??$emplace_back@AEBQEAVIOPlugin@@@?$vector@PEAVIOPlugin@@V?$allocator@PEAVIOPlugin@@@std@@@std@@QEAA?A_TAEBQEAVIOPlugin@@@Z
	??$emplace_back@AEBQEAVMeshLabPlugin@@@?$vector@PEAVMeshLabPlugin@@V?$allocator@PEAVMeshLabPlugin@@@std@@@std@@QEAA?A_TAEBQEAVMeshLabPlugin@@@Z
	??$emplace_back@AEBQEAVQAction@@@?$vector@PEAVQAction@@V?$allocator@PEAVQAction@@@std@@@std@@QEAA?A_TAEBQEAVQAction@@@Z
	??$emplace_back@AEBQEAVQPluginLoader@@@?$vector@PEAVQPluginLoader@@V?$allocator@PEAVQPluginLoader@@@std@@@std@@QEAA?A_TAEBQEAVQPluginLoader@@@Z
	??$emplace_back@AEBQEAVRenderPlugin@@@?$vector@PEAVRenderPlugin@@V?$allocator@PEAVRenderPlugin@@@std@@@std@@QEAA?A_TAEBQEAVRenderPlugin@@@Z
	??$emplace_back@AEBV?$Point3@M@vcg@@@?$vector@V?$Point3@M@vcg@@V?$allocator@V?$Point3@M@vcg@@@std@@@std@@QEAA?A_TAEBV?$Point3@M@vcg@@@Z
	??$emplace_back@AEBV?$basic_string@DU?$char_traits@D@std@@V?$allocator@D@2@@std@@@?$vector@V?$basic_string@DU?$char_traits@D@std@@V?$allocator@D@2@@std@@V?$allocator@V?$basic_string@DU?$char_traits@D@std@@V?$allocator@D@2@@std@@@2@@std@@QEAA?A_TAEBV?$basic_string@DU?$char_traits@D@std@@V?$allocator@D@2@@1@@Z
	??$emplace_back@H@?$vector@HV?$allocator@H@std@@@std@@QEAA?A_T$$QEAH@Z
	??$emplace_back@I@?$vector@IV?$allocator@I@std@@@std@@QEAA?A_T$$QEAI@Z
	??$emplace_back@U?$pair@II@std@@@?$vector@U?$pair@II@std@@V?$allocator@U?$pair@II@std@@@2@@std@@QEAA?A_T$$QEAU?$pair@II@1@@Z
	??$emplace_back@V?$Point2@M@vcg@@@?$vector@V?$Point2@M@vcg@@V?$allocator@V?$Point2@M@vcg@@@std@@@std@@QEAA?A_T$$QEAV?$Point2@M@vcg@@@Z
	??$emplace_back@V?$basic_string@DU?$char_traits@D@std@@V?$allocator@D@2@@std@@@?$vector@V?$basic_string@DU?$char_traits@D@std@@V?$allocator@D@2@@std@@V?$allocator@V?$basic_string@DU?$char_traits@D@std@@V?$allocator@D@2@@std@@@2@@std@@QEAA?A_T$$QEAV?$basic_string@DU?$char_traits@D@std@@V?$allocator@D@2@@1@@Z
	??$emplace_back@VEdgeVertInd@?$NotThreadSafeGLMeshAttributesMultiViewerBOManager@VCMeshO@@PEAVQGLContext@@UMLPerViewGLOptions@@@vcg@@@?$vector@VEdgeVertInd@?$NotThreadSafeGLMeshAttributesMultiViewerBOManager@VCMeshO@@PEAVQGLContext@@UMLPerViewGLOptions@@@vcg@@V?$allocator@VEdgeVertInd@?$NotThreadSafeGLMeshAttributesMultiViewerBOManager@VCMeshO@@PEAVQGLContext@@UMLPerViewGLOptions@@@vcg@@@std@@@std@@QEAA?A_T$$QEAVEdgeVertInd@?$NotThreadSafeGLMeshAttributesMultiViewerBOManager@VCMeshO@@PEAVQGLContext@@UMLPerViewGLOptions@@@vcg@@@Z
	??$emplace_back@VPEdge@?$UpdateTopology@VCMeshO@@@tri@vcg@@@?$vector@VPEdge@?$UpdateTopology@VCMeshO@@@tri@vcg@@V?$allocator@VPEdge@?$UpdateTopology@VCMeshO@@@tri@vcg@@@std@@@std@@QEAA?A_T$$QEAVPEdge@?$UpdateTopology@VCMeshO@@@tri@vcg@@@Z
	??$end@D$0BF@@std@@YAPEADAEAY0BF@D@Z
	??$endl@DU?$char_traits@D@std@@@std@@YAAEAV?$basic_ostream@DU?$char_traits@D@std@@@0@AEAV10@@Z
	??$equal@PEBMPEBM@std@@YA_NQEBM00@Z
	??$equal@PEBMPEBMU?$equal_to@X@std@@@std@@YA_NQEBM00U?$equal_to@X@0@@Z
	??$erase@V?$_Tree_iterator@V?$_Tree_val@U?$_Tree_simple_types@U?$pair@$$CBHPEAV?$QtThreadSafeGLMeshAttributesMultiViewerBOManager@VCMeshO@@PEAVQGLContext@@UMLPerViewGLOptions@@@vcg@@@std@@@std@@@std@@@std@@$0A@@?$_Tree@V?$_Tmap_traits@HPEAV?$QtThreadSafeGLMeshAttributesMultiViewerBOManager@VCMeshO@@PEAVQGLContext@@UMLPerViewGLOptions@@@vcg@@U?$less@H@std@@V?$allocator@U?$pair@$$CBHPEAV?$QtThreadSafeGLMeshAttributesMultiViewerBOManager@VCMeshO@@PEAVQGLContext@@UMLPerViewGLOptions@@@vcg@@@std@@@4@$0A@@std@@@std@@QEAA?AV?$_Tree_iterator@V?$_Tree_val@U?$_Tree_simple_types@U?$pair@$$CBHPEAV?$QtThreadSafeGLMeshAttributesMultiViewerBOManager@VCMeshO@@PEAVQGLContext@@UMLPerViewGLOptions@@@vcg@@@std@@@std@@@std@@@1@V21@@Z
	??$erase@V?$_Tree_iterator@V?$_Tree_val@U?$_Tree_simple_types@U?$pair@$$CBV?$basic_string@DU?$char_traits@D@std@@V?$allocator@D@2@@std@@VQImage@@@std@@@std@@@std@@@std@@$0A@@?$_Tree@V?$_Tmap_traits@V?$basic_string@DU?$char_traits@D@std@@V?$allocator@D@2@@std@@VQImage@@U?$less@V?$basic_string@DU?$char_traits@D@std@@V?$allocator@D@2@@std@@@2@V?$allocator@U?$pair@$$CBV?$basic_string@DU?$char_traits@D@std@@V?$allocator@D@2@@std@@VQImage@@@std@@@2@$0A@@std@@@std@@QEAA?AV?$_Tree_iterator@V?$_Tree_val@U?$_Tree_simple_types@U?$pair@$$CBV?$basic_string@DU?$char_traits@D@std@@V?$allocator@D@2@@std@@VQImage@@@std@@@std@@@std@@@1@V21@@Z
	??$exchange@PEAH$$T@std@@YAPEAHAEAPEAH$$QEA$$T@Z
	??$exchange@PEAM$$T@std@@YAPEAMAEAPEAM$$QEA$$T@Z
	??$exchange@PEAPEAVQAction@@$$T@std@@YAPEAPEAVQAction@@AEAPEAPEAV1@$$QEA$$T@Z
	??$exchange@PEAU?$CurvatureDirOcfBaseType@M@face@vcg@@$$T@std@@YAPEAU?$CurvatureDirOcfBaseType@M@face@vcg@@AEAPEAU123@$$QEA$$T@Z
	??$exchange@PEAU?$CurvatureDirTypeOcf@M@vertex@vcg@@$$T@std@@YAPEAU?$CurvatureDirTypeOcf@M@vertex@vcg@@AEAPEAU123@$$QEA$$T@Z
	??$exchange@PEAU?$_List_node@V?$basic_string@DU?$char_traits@D@std@@V?$allocator@D@2@@std@@PEAX@std@@AEAPEAU12@@std@@YAPEAU?$_List_node@V?$basic_string@DU?$char_traits@D@std@@V?$allocator@D@2@@std@@PEAX@0@AEAPEAU10@0@Z
	??$exchange@PEAU?$_List_node@V?$basic_string@DU?$char_traits@D@std@@V?$allocator@D@2@@std@@PEAX@std@@PEAU12@@std@@YAPEAU?$_List_node@V?$basic_string@DU?$char_traits@D@std@@V?$allocator@D@2@@std@@PEAX@0@AEAPEAU10@$$QEAPEAU10@@Z
	??$exchange@PEAU?$_List_node@VFunctionParameter@pymeshlab@@PEAX@std@@$$T@std@@YAPEAU?$_List_node@VFunctionParameter@pymeshlab@@PEAX@0@AEAPEAU10@$$QEA$$T@Z
	??$exchange@PEAU?$_List_node@VFunctionParameter@pymeshlab@@PEAX@std@@AEAPEAU12@@std@@YAPEAU?$_List_node@VFunctionParameter@pymeshlab@@PEAX@0@AEAPEAU10@0@Z
	??$exchange@PEAU?$_List_node@VFunctionParameter@pymeshlab@@PEAX@std@@PEAU12@@std@@YAPEAU?$_List_node@VFunctionParameter@pymeshlab@@PEAX@0@AEAPEAU10@$$QEAPEAU10@@Z
	??$exchange@PEAU?$_Tree_node@U?$pair@$$CBFV?$vector@U?$pair@II@std@@V?$allocator@U?$pair@II@std@@@2@@std@@@std@@PEAX@std@@$$T@std@@YAPEAU?$_Tree_node@U?$pair@$$CBFV?$vector@U?$pair@II@std@@V?$allocator@U?$pair@II@std@@@2@@std@@@std@@PEAX@0@AEAPEAU10@$$QEA$$T@Z
	??$exchange@PEAU?$_Tree_node@U?$pair@$$CBFV?$vector@U?$pair@II@std@@V?$allocator@U?$pair@II@std@@@2@@std@@@std@@PEAX@std@@AEAPEAU12@@std@@YAPEAU?$_Tree_node@U?$pair@$$CBFV?$vector@U?$pair@II@std@@V?$allocator@U?$pair@II@std@@@2@@std@@@std@@PEAX@0@AEAPEAU10@0@Z
	??$exchange@PEAU?$_Tree_node@U?$pair@$$CBHPEAV?$QtThreadSafeGLMeshAttributesMultiViewerBOManager@VCMeshO@@PEAVQGLContext@@UMLPerViewGLOptions@@@vcg@@@std@@PEAX@std@@$$T@std@@YAPEAU?$_Tree_node@U?$pair@$$CBHPEAV?$QtThreadSafeGLMeshAttributesMultiViewerBOManager@VCMeshO@@PEAVQGLContext@@UMLPerViewGLOptions@@@vcg@@@std@@PEAX@0@AEAPEAU10@$$QEA$$T@Z
	??$exchange@PEAU?$_Tree_node@U?$pair@$$CBHPEAV?$QtThreadSafeGLMeshAttributesMultiViewerBOManager@VCMeshO@@PEAVQGLContext@@UMLPerViewGLOptions@@@vcg@@@std@@PEAX@std@@AEAPEAU12@@std@@YAPEAU?$_Tree_node@U?$pair@$$CBHPEAV?$QtThreadSafeGLMeshAttributesMultiViewerBOManager@VCMeshO@@PEAVQGLContext@@UMLPerViewGLOptions@@@vcg@@@std@@PEAX@0@AEAPEAU10@0@Z
	??$exchange@PEAU?$_Tree_node@U?$pair@$$CBMV?$vector@PEAVQAction@@V?$allocator@PEAVQAction@@@std@@@std@@@std@@PEAX@std@@$$T@std@@YAPEAU?$_Tree_node@U?$pair@$$CBMV?$vector@PEAVQAction@@V?$allocator@PEAVQAction@@@std@@@std@@@std@@PEAX@0@AEAPEAU10@$$QEA$$T@Z
	??$exchange@PEAU?$_Tree_node@U?$pair@$$CBMV?$vector@PEAVQAction@@V?$allocator@PEAVQAction@@@std@@@std@@@std@@PEAX@std@@AEAPEAU12@@std@@YAPEAU?$_Tree_node@U?$pair@$$CBMV?$vector@PEAVQAction@@V?$allocator@PEAVQAction@@@std@@@std@@@std@@PEAX@0@AEAPEAU10@0@Z
	??$exchange@PEAU?$_Tree_node@U?$pair@$$CBV?$basic_string@DU?$char_traits@D@std@@V?$allocator@D@2@@std@@VQImage@@@std@@PEAX@std@@$$T@std@@YAPEAU?$_Tree_node@U?$pair@$$CBV?$basic_string@DU?$char_traits@D@std@@V?$allocator@D@2@@std@@VQImage@@@std@@PEAX@0@AEAPEAU10@$$QEA$$T@Z
	??$exchange@PEAU?$_Tree_node@U?$pair@$$CBV?$basic_string@DU?$char_traits@D@std@@V?$allocator@D@2@@std@@VQImage@@@std@@PEAX@std@@AEAPEAU12@@std@@YAPEAU?$_Tree_node@U?$pair@$$CBV?$basic_string@DU?$char_traits@D@std@@V?$allocator@D@2@@std@@VQImage@@@std@@PEAX@0@AEAPEAU10@0@Z
	??$exchange@PEAU?$_Tree_node@U?$pair@$$CBVQString@@V?$vector@PEAVQAction@@V?$allocator@PEAVQAction@@@std@@@std@@@std@@PEAX@std@@$$T@std@@YAPEAU?$_Tree_node@U?$pair@$$CBVQString@@V?$vector@PEAVQAction@@V?$allocator@PEAVQAction@@@std@@@std@@@std@@PEAX@0@AEAPEAU10@$$QEA$$T@Z
	??$exchange@PEAU?$_Tree_node@U?$pair@$$CBVQString@@V?$vector@PEAVQAction@@V?$allocator@PEAVQAction@@@std@@@std@@@std@@PEAX@std@@AEAPEAU12@@std@@YAPEAU?$_Tree_node@U?$pair@$$CBVQString@@V?$vector@PEAVQAction@@V?$allocator@PEAVQAction@@@std@@@std@@@std@@PEAX@0@AEAPEAU10@0@Z
	??$exchange@PEAU?$_Tree_node@U?$pair@QEAVQAction@@M@std@@PEAX@std@@$$T@std@@YAPEAU?$_Tree_node@U?$pair@QEAVQAction@@M@std@@PEAX@0@AEAPEAU10@$$QEA$$T@Z
	??$exchange@PEAU?$_Tree_node@U?$pair@QEAVQAction@@M@std@@PEAX@std@@AEAPEAU12@@std@@YAPEAU?$_Tree_node@U?$pair@QEAVQAction@@M@std@@PEAX@0@AEAPEAU10@0@Z
	??$exchange@PEAU?$_Tree_node@U?$pair@QEAVQGLContext@@V?$PerViewData@UMLPerViewGLOptions@@@vcg@@@std@@PEAX@std@@$$T@std@@YAPEAU?$_Tree_node@U?$pair@QEAVQGLContext@@V?$PerViewData@UMLPerViewGLOptions@@@vcg@@@std@@PEAX@0@AEAPEAU10@$$QEA$$T@Z
	??$exchange@PEAU?$_Tree_node@U?$pair@QEAVQGLContext@@V?$PerViewData@UMLPerViewGLOptions@@@vcg@@@std@@PEAX@std@@AEAPEAU12@@std@@YAPEAU?$_Tree_node@U?$pair@QEAVQGLContext@@V?$PerViewData@UMLPerViewGLOptions@@@vcg@@@std@@PEAX@0@AEAPEAU10@0@Z
	??$exchange@PEAU?$_Tree_node@VFunction@pymeshlab@@PEAX@std@@$$T@std@@YAPEAU?$_Tree_node@VFunction@pymeshlab@@PEAX@0@AEAPEAU10@$$QEA$$T@Z
	??$exchange@PEAU?$_Tree_node@VFunction@pymeshlab@@PEAX@std@@AEAPEAU12@@std@@YAPEAU?$_Tree_node@VFunction@pymeshlab@@PEAX@0@AEAPEAU10@0@Z
	??$exchange@PEAU?$_Tree_node@VPointerToAttribute@vcg@@PEAX@std@@$$T@std@@YAPEAU?$_Tree_node@VPointerToAttribute@vcg@@PEAX@0@AEAPEAU10@$$QEA$$T@Z
	??$exchange@PEAU?$_Tree_node@VPointerToAttribute@vcg@@PEAX@std@@AEAPEAU12@@std@@YAPEAU?$_Tree_node@VPointerToAttribute@vcg@@PEAX@0@AEAPEAU10@0@Z
	??$exchange@PEAU?$_Tree_node@VQString@@PEAX@std@@$$T@std@@YAPEAU?$_Tree_node@VQString@@PEAX@0@AEAPEAU10@$$QEA$$T@Z
	??$exchange@PEAU?$_Tree_node@VQString@@PEAX@std@@AEAPEAU12@@std@@YAPEAU?$_Tree_node@VQString@@PEAX@0@AEAPEAU10@0@Z
	??$exchange@PEAUAdjTypePack@?$vector_ocf@VCFaceO@@@face@vcg@@$$T@std@@YAPEAUAdjTypePack@?$vector_ocf@VCFaceO@@@face@vcg@@AEAPEAU1234@$$QEA$$T@Z
	??$exchange@PEAUVFAdjType@?$vector_ocf@VCVertexO@@@vertex@vcg@@$$T@std@@YAPEAUVFAdjType@?$vector_ocf@VCVertexO@@@vertex@vcg@@AEAPEAU1234@$$QEA$$T@Z
	??$exchange@PEAU_Container_proxy@std@@$$T@std@@YAPEAU_Container_proxy@0@AEAPEAU10@$$QEA$$T@Z
	??$exchange@PEAV?$Color4@E@vcg@@$$T@std@@YAPEAV?$Color4@E@vcg@@AEAPEAV12@$$QEA$$T@Z
	??$exchange@PEAV?$Point2@M@vcg@@$$T@std@@YAPEAV?$Point2@M@vcg@@AEAPEAV12@$$QEA$$T@Z
	??$exchange@PEAV?$Point3@M@vcg@@$$T@std@@YAPEAV?$Point3@M@vcg@@AEAPEAV12@$$QEA$$T@Z
	??$exchange@PEAV?$TexCoord2@M$00@vcg@@$$T@std@@YAPEAV?$TexCoord2@M$00@vcg@@AEAPEAV12@$$QEA$$T@Z
	??$exchange@PEAVCFaceO@@$$T@std@@YAPEAVCFaceO@@AEAPEAV1@$$QEA$$T@Z
	??$exchange@PEAVCVertexO@@$$T@std@@YAPEAVCVertexO@@AEAPEAV1@$$QEA$$T@Z
	??$exchange@PEAVWedgeColorTypePack@?$vector_ocf@VCFaceO@@@face@vcg@@$$T@std@@YAPEAVWedgeColorTypePack@?$vector_ocf@VCFaceO@@@face@vcg@@AEAPEAV1234@$$QEA$$T@Z
	??$exchange@PEAVWedgeNormalTypePack@?$vector_ocf@VCFaceO@@@face@vcg@@$$T@std@@YAPEAVWedgeNormalTypePack@?$vector_ocf@VCFaceO@@@face@vcg@@AEAPEAV1234@$$QEA$$T@Z
	??$exchange@PEAVWedgeTexTypePack@?$vector_ocf@VCFaceO@@@face@vcg@@$$T@std@@YAPEAVWedgeTexTypePack@?$vector_ocf@VCFaceO@@@face@vcg@@AEAPEAV1234@$$QEA$$T@Z
	??$exchange@_K_K@std@@YA_KAEA_K$$QEA_K@Z
	??$fill@PEAII@std@@YAXQEAI0AEBI@Z
	??$fill@V?$_Vb_iterator@U?$_Wrap_alloc@V?$allocator@I@std@@@std@@@std@@_N@std@@YAXV?$_Vb_iterator@U?$_Wrap_alloc@V?$allocator@I@std@@@std@@@0@0AEB_N@Z
	??$fill_n@PEAM_KM@std@@YAPEAMPEAM_KAEBM@Z
	??$find@V?$_List_iterator@V?$_List_val@U?$_List_simple_types@PEAVQAction@@@std@@@std@@@std@@PEBVQAction@@@std@@YA?AV?$_List_iterator@V?$_List_val@U?$_List_simple_types@PEAVQAction@@@std@@@std@@@0@V10@V10@AEBQEBVQAction@@@Z
	??$find@V?$_Vector_iterator@V?$_Vector_val@U?$_Simple_types@I@std@@@std@@@std@@I@std@@YA?AV?$_Vector_iterator@V?$_Vector_val@U?$_Simple_types@I@std@@@std@@@0@V10@V10@AEBI@Z
	??$find@V?$_Vector_iterator@V?$_Vector_val@U?$_Simple_types@PEAVDecoratePlugin@@@std@@@std@@@std@@PEAVDecoratePlugin@@@std@@YA?AV?$_Vector_iterator@V?$_Vector_val@U?$_Simple_types@PEAVDecoratePlugin@@@std@@@std@@@0@V10@V10@AEBQEAVDecoratePlugin@@@Z
	??$find@V?$_Vector_iterator@V?$_Vector_val@U?$_Simple_types@PEAVEditPlugin@@@std@@@std@@@std@@PEAVEditPlugin@@@std@@YA?AV?$_Vector_iterator@V?$_Vector_val@U?$_Simple_types@PEAVEditPlugin@@@std@@@std@@@0@V10@V10@AEBQEAVEditPlugin@@@Z
	??$find@V?$_Vector_iterator@V?$_Vector_val@U?$_Simple_types@PEAVFilterPlugin@@@std@@@std@@@std@@PEAVFilterPlugin@@@std@@YA?AV?$_Vector_iterator@V?$_Vector_val@U?$_Simple_types@PEAVFilterPlugin@@@std@@@std@@@0@V10@V10@AEBQEAVFilterPlugin@@@Z
	??$find@V?$_Vector_iterator@V?$_Vector_val@U?$_Simple_types@PEAVIOPlugin@@@std@@@std@@@std@@PEAVIOPlugin@@@std@@YA?AV?$_Vector_iterator@V?$_Vector_val@U?$_Simple_types@PEAVIOPlugin@@@std@@@std@@@0@V10@V10@AEBQEAVIOPlugin@@@Z
	??$find@V?$_Vector_iterator@V?$_Vector_val@U?$_Simple_types@PEAVMeshLabPlugin@@@std@@@std@@@std@@PEAVMeshLabPlugin@@@std@@YA?AV?$_Vector_iterator@V?$_Vector_val@U?$_Simple_types@PEAVMeshLabPlugin@@@std@@@std@@@0@V10@V10@AEBQEAVMeshLabPlugin@@@Z
	??$find@V?$_Vector_iterator@V?$_Vector_val@U?$_Simple_types@PEAVRenderPlugin@@@std@@@std@@@std@@PEAVRenderPlugin@@@std@@YA?AV?$_Vector_iterator@V?$_Vector_val@U?$_Simple_types@PEAVRenderPlugin@@@std@@@std@@@0@V10@V10@AEBQEAVRenderPlugin@@@Z
	??$find@V?$_Vector_iterator@V?$_Vector_val@U?$_Simple_types@V?$basic_string@DU?$char_traits@D@std@@V?$allocator@D@2@@std@@@std@@@std@@@std@@V?$basic_string@DU?$char_traits@D@std@@V?$allocator@D@2@@2@@std@@YA?AV?$_Vector_iterator@V?$_Vector_val@U?$_Simple_types@V?$basic_string@DU?$char_traits@D@std@@V?$allocator@D@2@@std@@@std@@@std@@@0@V10@V10@AEBV?$basic_string@DU?$char_traits@D@std@@V?$allocator@D@2@@0@@Z
	??$first_aligned@$0BA@H_J@internal@Eigen@@YA_JPEBH_J@Z
	??$forward@AEAH@std@@YAAEAHAEAH@Z
	??$forward@AEAI@std@@YAAEAIAEAI@Z
	??$forward@AEAPEAD@std@@YAAEAPEADAEAPEAD@Z
	??$forward@AEAPEAM@std@@YAAEAPEAMAEAPEAM@Z
	??$forward@AEAPEAPEAVQAction@@@std@@YAAEAPEAPEAVQAction@@AEAPEAPEAV1@@Z
	??$forward@AEAPEAU?$_List_node@HPEAX@std@@@std@@YAAEAPEAU?$_List_node@HPEAX@0@AEAPEAU10@@Z
	??$forward@AEAPEAU?$_List_node@PEAVMeshModel@@PEAX@std@@@std@@YAAEAPEAU?$_List_node@PEAVMeshModel@@PEAX@0@AEAPEAU10@@Z
	??$forward@AEAPEAU?$_List_node@PEAVRichParameter@@PEAX@std@@@std@@YAAEAPEAU?$_List_node@PEAVRichParameter@@PEAX@0@AEAPEAU10@@Z
	??$forward@AEAPEAU?$_List_node@U?$pair@VQString@@V1@@std@@PEAX@std@@@std@@YAAEAPEAU?$_List_node@U?$pair@VQString@@V1@@std@@PEAX@0@AEAPEAU10@@Z
	??$forward@AEAPEAU?$_List_node@V?$Matrix@I$0?0$00$0A@$0?0$00@Eigen@@PEAX@std@@@std@@YAAEAPEAU?$_List_node@V?$Matrix@I$0?0$00$0A@$0?0$00@Eigen@@PEAX@0@AEAPEAU10@@Z
	??$forward@AEAPEAU?$_List_node@V?$basic_string@DU?$char_traits@D@std@@V?$allocator@D@2@@std@@PEAX@std@@@std@@YAAEAPEAU?$_List_node@V?$basic_string@DU?$char_traits@D@std@@V?$allocator@D@2@@std@@PEAX@0@AEAPEAU10@@Z
	??$forward@AEAPEAU?$_List_node@VFunctionParameter@pymeshlab@@PEAX@std@@@std@@YAAEAPEAU?$_List_node@VFunctionParameter@pymeshlab@@PEAX@0@AEAPEAU10@@Z
	??$forward@AEAPEAU?$_List_node@VMeshModel@@PEAX@std@@@std@@YAAEAPEAU?$_List_node@VMeshModel@@PEAX@0@AEAPEAU10@@Z
	??$forward@AEAPEAU?$_List_node@VRasterModel@@PEAX@std@@@std@@YAAEAPEAU?$_List_node@VRasterModel@@PEAX@0@AEAPEAU10@@Z
	??$forward@AEAPEAU?$_Tree_node@U?$pair@$$CBFV?$vector@U?$pair@II@std@@V?$allocator@U?$pair@II@std@@@2@@std@@@std@@PEAX@std@@@std@@YAAEAPEAU?$_Tree_node@U?$pair@$$CBFV?$vector@U?$pair@II@std@@V?$allocator@U?$pair@II@std@@@2@@std@@@std@@PEAX@0@AEAPEAU10@@Z
	??$forward@AEAPEAU?$_Tree_node@U?$pair@$$CBHPEAV?$QtThreadSafeGLMeshAttributesMultiViewerBOManager@VCMeshO@@PEAVQGLContext@@UMLPerViewGLOptions@@@vcg@@@std@@PEAX@std@@@std@@YAAEAPEAU?$_Tree_node@U?$pair@$$CBHPEAV?$QtThreadSafeGLMeshAttributesMultiViewerBOManager@VCMeshO@@PEAVQGLContext@@UMLPerViewGLOptions@@@vcg@@@std@@PEAX@0@AEAPEAU10@@Z
	??$forward@AEAPEAU?$_Tree_node@U?$pair@$$CBMV?$vector@PEAVQAction@@V?$allocator@PEAVQAction@@@std@@@std@@@std@@PEAX@std@@@std@@YAAEAPEAU?$_Tree_node@U?$pair@$$CBMV?$vector@PEAVQAction@@V?$allocator@PEAVQAction@@@std@@@std@@@std@@PEAX@0@AEAPEAU10@@Z
	??$forward@AEAPEAU?$_Tree_node@U?$pair@$$CBV?$basic_string@DU?$char_traits@D@std@@V?$allocator@D@2@@std@@VQImage@@@std@@PEAX@std@@@std@@YAAEAPEAU?$_Tree_node@U?$pair@$$CBV?$basic_string@DU?$char_traits@D@std@@V?$allocator@D@2@@std@@VQImage@@@std@@PEAX@0@AEAPEAU10@@Z
	??$forward@AEAPEAU?$_Tree_node@U?$pair@$$CBVQString@@V?$vector@PEAVQAction@@V?$allocator@PEAVQAction@@@std@@@std@@@std@@PEAX@std@@@std@@YAAEAPEAU?$_Tree_node@U?$pair@$$CBVQString@@V?$vector@PEAVQAction@@V?$allocator@PEAVQAction@@@std@@@std@@@std@@PEAX@0@AEAPEAU10@@Z
	??$forward@AEAPEAU?$_Tree_node@U?$pair@QEAVQAction@@M@std@@PEAX@std@@@std@@YAAEAPEAU?$_Tree_node@U?$pair@QEAVQAction@@M@std@@PEAX@0@AEAPEAU10@@Z
	??$forward@AEAPEAU?$_Tree_node@U?$pair@QEAVQGLContext@@V?$PerViewData@UMLPerViewGLOptions@@@vcg@@@std@@PEAX@std@@@std@@YAAEAPEAU?$_Tree_node@U?$pair@QEAVQGLContext@@V?$PerViewData@UMLPerViewGLOptions@@@vcg@@@std@@PEAX@0@AEAPEAU10@@Z
	??$forward@AEAPEAU?$_Tree_node@VFunction@pymeshlab@@PEAX@std@@@std@@YAAEAPEAU?$_Tree_node@VFunction@pymeshlab@@PEAX@0@AEAPEAU10@@Z
	??$forward@AEAPEAU?$_Tree_node@VPointerToAttribute@vcg@@PEAX@std@@@std@@YAAEAPEAU?$_Tree_node@VPointerToAttribute@vcg@@PEAX@0@AEAPEAU10@@Z
	??$forward@AEAPEAU?$_Tree_node@VQString@@PEAX@std@@@std@@YAAEAPEAU?$_Tree_node@VQString@@PEAX@0@AEAPEAU10@@Z
	??$forward@AEAPEAVEdgeVertInd@?$NotThreadSafeGLMeshAttributesMultiViewerBOManager@VCMeshO@@PEAVQGLContext@@UMLPerViewGLOptions@@@vcg@@@std@@YAAEAPEAVEdgeVertInd@?$NotThreadSafeGLMeshAttributesMultiViewerBOManager@VCMeshO@@PEAVQGLContext@@UMLPerViewGLOptions@@@vcg@@AEAPEAV123@@Z
	??$forward@AEAPEAVPEdge@?$UpdateTopology@VCMeshO@@@tri@vcg@@@std@@YAAEAPEAVPEdge@?$UpdateTopology@VCMeshO@@@tri@vcg@@AEAPEAV1234@@Z
	??$forward@AEAPEAVQAction@@@std@@YAAEAPEAVQAction@@AEAPEAV1@@Z
	??$forward@AEAU?$pair@$$CBV?$basic_string@DU?$char_traits@D@std@@V?$allocator@D@2@@std@@VQImage@@@std@@@std@@YAAEAU?$pair@$$CBV?$basic_string@DU?$char_traits@D@std@@V?$allocator@D@2@@std@@VQImage@@@0@AEAU10@@Z
	??$forward@AEAV?$_List_unchecked_const_iterator@V?$_List_val@U?$_List_simple_types@VFunctionParameter@pymeshlab@@@std@@@std@@U_Iterator_base0@2@@std@@@std@@YAAEAV?$_List_unchecked_const_iterator@V?$_List_val@U?$_List_simple_types@VFunctionParameter@pymeshlab@@@std@@@std@@U_Iterator_base0@2@@0@AEAV10@@Z
	??$forward@AEAV?$allocator@D@std@@@std@@YAAEAV?$allocator@D@0@AEAV10@@Z
	??$forward@AEAV?$basic_string@DU?$char_traits@D@std@@V?$allocator@D@2@@std@@@std@@YAAEAV?$basic_string@DU?$char_traits@D@std@@V?$allocator@D@2@@0@AEAV10@@Z
	??$forward@AEAVInternalRendAtts@GLMeshAttributesInfo@vcg@@@std@@YAAEAVInternalRendAtts@GLMeshAttributesInfo@vcg@@AEAV123@@Z
	??$forward@AEAVQString@@@std@@YAAEAVQString@@AEAV1@@Z
	??$forward@AEAVQStringList@@@std@@YAAEAVQStringList@@AEAV1@@Z
	??$forward@AEBF@std@@YAAEBFAEBF@Z
	??$forward@AEBH@std@@YAAEBHAEBH@Z
	??$forward@AEBI@std@@YAAEBIAEBI@Z
	??$forward@AEBM@std@@YAAEBMAEBM@Z
	??$forward@AEBQEAD@std@@YAAEBQEADAEBQEAD@Z
	??$forward@AEBQEAU?$_List_node@HPEAX@std@@@std@@YAAEBQEAU?$_List_node@HPEAX@0@AEBQEAU10@@Z
	??$forward@AEBQEAU?$_List_node@PEAVMeshModel@@PEAX@std@@@std@@YAAEBQEAU?$_List_node@PEAVMeshModel@@PEAX@0@AEBQEAU10@@Z
	??$forward@AEBQEAU?$_List_node@PEAVRichParameter@@PEAX@std@@@std@@YAAEBQEAU?$_List_node@PEAVRichParameter@@PEAX@0@AEBQEAU10@@Z
	??$forward@AEBQEAU?$_List_node@U?$pair@VQString@@V1@@std@@PEAX@std@@@std@@YAAEBQEAU?$_List_node@U?$pair@VQString@@V1@@std@@PEAX@0@AEBQEAU10@@Z
	??$forward@AEBQEAU?$_List_node@V?$Matrix@I$0?0$00$0A@$0?0$00@Eigen@@PEAX@std@@@std@@YAAEBQEAU?$_List_node@V?$Matrix@I$0?0$00$0A@$0?0$00@Eigen@@PEAX@0@AEBQEAU10@@Z
	??$forward@AEBQEAU?$_List_node@V?$basic_string@DU?$char_traits@D@std@@V?$allocator@D@2@@std@@PEAX@std@@@std@@YAAEBQEAU?$_List_node@V?$basic_string@DU?$char_traits@D@std@@V?$allocator@D@2@@std@@PEAX@0@AEBQEAU10@@Z
	??$forward@AEBQEAU?$_List_node@VFunctionParameter@pymeshlab@@PEAX@std@@@std@@YAAEBQEAU?$_List_node@VFunctionParameter@pymeshlab@@PEAX@0@AEBQEAU10@@Z
	??$forward@AEBQEAU?$_List_node@VMeshModel@@PEAX@std@@@std@@YAAEBQEAU?$_List_node@VMeshModel@@PEAX@0@AEBQEAU10@@Z
	??$forward@AEBQEAU?$_List_node@VRasterModel@@PEAX@std@@@std@@YAAEBQEAU?$_List_node@VRasterModel@@PEAX@0@AEBQEAU10@@Z
	??$forward@AEBQEAU?$_Tree_node@U?$pair@$$CBFV?$vector@U?$pair@II@std@@V?$allocator@U?$pair@II@std@@@2@@std@@@std@@PEAX@std@@@std@@YAAEBQEAU?$_Tree_node@U?$pair@$$CBFV?$vector@U?$pair@II@std@@V?$allocator@U?$pair@II@std@@@2@@std@@@std@@PEAX@0@AEBQEAU10@@Z
	??$forward@AEBQEAU?$_Tree_node@U?$pair@$$CBHPEAV?$QtThreadSafeGLMeshAttributesMultiViewerBOManager@VCMeshO@@PEAVQGLContext@@UMLPerViewGLOptions@@@vcg@@@std@@PEAX@std@@@std@@YAAEBQEAU?$_Tree_node@U?$pair@$$CBHPEAV?$QtThreadSafeGLMeshAttributesMultiViewerBOManager@VCMeshO@@PEAVQGLContext@@UMLPerViewGLOptions@@@vcg@@@std@@PEAX@0@AEBQEAU10@@Z
	??$forward@AEBQEAU?$_Tree_node@U?$pair@$$CBMV?$vector@PEAVQAction@@V?$allocator@PEAVQAction@@@std@@@std@@@std@@PEAX@std@@@std@@YAAEBQEAU?$_Tree_node@U?$pair@$$CBMV?$vector@PEAVQAction@@V?$allocator@PEAVQAction@@@std@@@std@@@std@@PEAX@0@AEBQEAU10@@Z
	??$forward@AEBQEAU?$_Tree_node@U?$pair@$$CBV?$basic_string@DU?$char_traits@D@std@@V?$allocator@D@2@@std@@VQImage@@@std@@PEAX@std@@@std@@YAAEBQEAU?$_Tree_node@U?$pair@$$CBV?$basic_string@DU?$char_traits@D@std@@V?$allocator@D@2@@std@@VQImage@@@std@@PEAX@0@AEBQEAU10@@Z
	??$forward@AEBQEAU?$_Tree_node@U?$pair@$$CBVQString@@V?$vector@PEAVQAction@@V?$allocator@PEAVQAction@@@std@@@std@@@std@@PEAX@std@@@std@@YAAEBQEAU?$_Tree_node@U?$pair@$$CBVQString@@V?$vector@PEAVQAction@@V?$allocator@PEAVQAction@@@std@@@std@@@std@@PEAX@0@AEBQEAU10@@Z
	??$forward@AEBQEAU?$_Tree_node@U?$pair@QEAVQAction@@M@std@@PEAX@std@@@std@@YAAEBQEAU?$_Tree_node@U?$pair@QEAVQAction@@M@std@@PEAX@0@AEBQEAU10@@Z
	??$forward@AEBQEAU?$_Tree_node@U?$pair@QEAVQGLContext@@V?$PerViewData@UMLPerViewGLOptions@@@vcg@@@std@@PEAX@std@@@std@@YAAEBQEAU?$_Tree_node@U?$pair@QEAVQGLContext@@V?$PerViewData@UMLPerViewGLOptions@@@vcg@@@std@@PEAX@0@AEBQEAU10@@Z
	??$forward@AEBQEAU?$_Tree_node@VFunction@pymeshlab@@PEAX@std@@@std@@YAAEBQEAU?$_Tree_node@VFunction@pymeshlab@@PEAX@0@AEBQEAU10@@Z
	??$forward@AEBQEAU?$_Tree_node@VPointerToAttribute@vcg@@PEAX@std@@@std@@YAAEBQEAU?$_Tree_node@VPointerToAttribute@vcg@@PEAX@0@AEBQEAU10@@Z
	??$forward@AEBQEAU?$_Tree_node@VQString@@PEAX@std@@@std@@YAAEBQEAU?$_Tree_node@VQString@@PEAX@0@AEBQEAU10@@Z
	??$forward@AEBQEAUGLBufferObject@?$NotThreadSafeGLMeshAttributesMultiViewerBOManager@VCMeshO@@PEAVQGLContext@@UMLPerViewGLOptions@@@vcg@@@std@@YAAEBQEAUGLBufferObject@?$NotThreadSafeGLMeshAttributesMultiViewerBOManager@VCMeshO@@PEAVQGLContext@@UMLPerViewGLOptions@@@vcg@@AEBQEAU123@@Z
	??$forward@AEBQEAVCFaceO@@@std@@YAAEBQEAVCFaceO@@AEBQEAV1@@Z
	??$forward@AEBQEAVCVertexO@@@std@@YAAEBQEAVCVertexO@@AEBQEAV1@@Z
	??$forward@AEBQEAVDecoratePlugin@@@std@@YAAEBQEAVDecoratePlugin@@AEBQEAV1@@Z
	??$forward@AEBQEAVEdgeVertInd@?$NotThreadSafeGLMeshAttributesMultiViewerBOManager@VCMeshO@@PEAVQGLContext@@UMLPerViewGLOptions@@@vcg@@@std@@YAAEBQEAVEdgeVertInd@?$NotThreadSafeGLMeshAttributesMultiViewerBOManager@VCMeshO@@PEAVQGLContext@@UMLPerViewGLOptions@@@vcg@@AEBQEAV123@@Z
	??$forward@AEBQEAVEditPlugin@@@std@@YAAEBQEAVEditPlugin@@AEBQEAV1@@Z
	??$forward@AEBQEAVFilterPlugin@@@std@@YAAEBQEAVFilterPlugin@@AEBQEAV1@@Z
	??$forward@AEBQEAVIOPlugin@@@std@@YAAEBQEAVIOPlugin@@AEBQEAV1@@Z
	??$forward@AEBQEAVMeshLabPlugin@@@std@@YAAEBQEAVMeshLabPlugin@@AEBQEAV1@@Z
	??$forward@AEBQEAVMeshModel@@@std@@YAAEBQEAVMeshModel@@AEBQEAV1@@Z
	??$forward@AEBQEAVQAction@@@std@@YAAEBQEAVQAction@@AEBQEAV1@@Z
	??$forward@AEBQEAVQGLContext@@@std@@YAAEBQEAVQGLContext@@AEBQEAV1@@Z
	??$forward@AEBQEAVQPluginLoader@@@std@@YAAEBQEAVQPluginLoader@@AEBQEAV1@@Z
	??$forward@AEBQEAVRenderPlugin@@@std@@YAAEBQEAVRenderPlugin@@AEBQEAV1@@Z
	??$forward@AEBQEAVRichParameter@@@std@@YAAEBQEAVRichParameter@@AEBQEAV1@@Z
	??$forward@AEBU?$less@F@std@@@std@@YAAEBU?$less@F@0@AEBU10@@Z
	??$forward@AEBU?$less@H@std@@@std@@YAAEBU?$less@H@0@AEBU10@@Z
	??$forward@AEBU?$less@M@std@@@std@@YAAEBU?$less@M@0@AEBU10@@Z
	??$forward@AEBU?$less@PEAVQAction@@@std@@@std@@YAAEBU?$less@PEAVQAction@@@0@AEBU10@@Z
	??$forward@AEBU?$less@PEAVQGLContext@@@std@@@std@@YAAEBU?$less@PEAVQGLContext@@@0@AEBU10@@Z
	??$forward@AEBU?$less@V?$basic_string@DU?$char_traits@D@std@@V?$allocator@D@2@@std@@@std@@@std@@YAAEBU?$less@V?$basic_string@DU?$char_traits@D@std@@V?$allocator@D@2@@std@@@0@AEBU10@@Z
	??$forward@AEBU?$less@VFunction@pymeshlab@@@std@@@std@@YAAEBU?$less@VFunction@pymeshlab@@@0@AEBU10@@Z
	??$forward@AEBU?$less@VPointerToAttribute@vcg@@@std@@@std@@YAAEBU?$less@VPointerToAttribute@vcg@@@0@AEBU10@@Z
	??$forward@AEBU?$less@VQString@@@std@@@std@@YAAEBU?$less@VQString@@@0@AEBU10@@Z
	??$forward@AEBUVFAdjType@?$vector_ocf@VCVertexO@@@vertex@vcg@@@std@@YAAEBUVFAdjType@?$vector_ocf@VCVertexO@@@vertex@vcg@@AEBU1234@@Z
	??$forward@AEBUpiecewise_construct_t@std@@@std@@YAAEBUpiecewise_construct_t@0@AEBU10@@Z
	??$forward@AEBV?$Color4@E@vcg@@@std@@YAAEBV?$Color4@E@vcg@@AEBV12@@Z
	??$forward@AEBV?$Matrix@I$0?0$00$0A@$0?0$00@Eigen@@@std@@YAAEBV?$Matrix@I$0?0$00$0A@$0?0$00@Eigen@@AEBV12@@Z
	??$forward@AEBV?$Point3@M@vcg@@@std@@YAAEBV?$Point3@M@vcg@@AEBV12@@Z
	??$forward@AEBV?$allocator@D@std@@@std@@YAAEBV?$allocator@D@0@AEBV10@@Z
	??$forward@AEBV?$allocator@I@std@@@std@@YAAEBV?$allocator@I@0@AEBV10@@Z
	??$forward@AEBV?$allocator@PEAUGLBufferObject@?$NotThreadSafeGLMeshAttributesMultiViewerBOManager@VCMeshO@@PEAVQGLContext@@UMLPerViewGLOptions@@@vcg@@@std@@@std@@YAAEBV?$allocator@PEAUGLBufferObject@?$NotThreadSafeGLMeshAttributesMultiViewerBOManager@VCMeshO@@PEAVQGLContext@@UMLPerViewGLOptions@@@vcg@@@0@AEBV10@@Z
	??$forward@AEBV?$allocator@PEAVCVertexO@@@std@@@std@@YAAEBV?$allocator@PEAVCVertexO@@@0@AEBV10@@Z
	??$forward@AEBV?$allocator@PEAVPVertex@vcg@@@std@@@std@@YAAEBV?$allocator@PEAVPVertex@vcg@@@0@AEBV10@@Z
	??$forward@AEBV?$allocator@V?$Point3@M@vcg@@@std@@@std@@YAAEBV?$allocator@V?$Point3@M@vcg@@@0@AEBV10@@Z
	??$forward@AEBV?$allocator@V?$vector@IV?$allocator@I@std@@@std@@@std@@@std@@YAAEBV?$allocator@V?$vector@IV?$allocator@I@std@@@std@@@0@AEBV10@@Z
	??$forward@AEBV?$allocator@VInternalRendAtts@GLMeshAttributesInfo@vcg@@@std@@@std@@YAAEBV?$allocator@VInternalRendAtts@GLMeshAttributesInfo@vcg@@@0@AEBV10@@Z
	??$forward@AEBV?$basic_string@DU?$char_traits@D@std@@V?$allocator@D@2@@std@@@std@@YAAEBV?$basic_string@DU?$char_traits@D@std@@V?$allocator@D@2@@0@AEBV10@@Z
	??$forward@AEBVFunction@pymeshlab@@@std@@YAAEBVFunction@pymeshlab@@AEBV12@@Z
	??$forward@AEBVFunctionParameter@pymeshlab@@@std@@YAAEBVFunctionParameter@pymeshlab@@AEBV12@@Z
	??$forward@AEBVInternalRendAtts@GLMeshAttributesInfo@vcg@@@std@@YAAEBVInternalRendAtts@GLMeshAttributesInfo@vcg@@AEBV123@@Z
	??$forward@AEBVPointerToAttribute@vcg@@@std@@YAAEBVPointerToAttribute@vcg@@AEBV12@@Z
	??$forward@AEBVQString@@@std@@YAAEBVQString@@AEBV1@@Z
	??$forward@AEBVWedgeTexTypePack@?$vector_ocf@VCFaceO@@@face@vcg@@@std@@YAAEBVWedgeTexTypePack@?$vector_ocf@VCFaceO@@@face@vcg@@AEBV1234@@Z
	??$forward@AEB_K@std@@YAAEB_KAEB_K@Z
	??$forward@AEB_N@std@@YAAEB_NAEB_N@Z
	??$forward@F@std@@YA$$QEAFAEAF@Z
	??$forward@H@std@@YA$$QEAHAEAH@Z
	??$forward@I@std@@YA$$QEAIAEAI@Z
	??$forward@M@std@@YA$$QEAMAEAM@Z
	??$forward@PEAH@std@@YA$$QEAPEAHAEAPEAH@Z
	??$forward@PEAI@std@@YA$$QEAPEAIAEAPEAI@Z
	??$forward@PEAM@std@@YA$$QEAPEAMAEAPEAM@Z
	??$forward@PEAPEAVDecoratePlugin@@@std@@YA$$QEAPEAPEAVDecoratePlugin@@AEAPEAPEAV1@@Z
	??$forward@PEAPEAVEditPlugin@@@std@@YA$$QEAPEAPEAVEditPlugin@@AEAPEAPEAV1@@Z
	??$forward@PEAPEAVFilterPlugin@@@std@@YA$$QEAPEAPEAVFilterPlugin@@AEAPEAPEAV1@@Z
	??$forward@PEAPEAVIOPlugin@@@std@@YA$$QEAPEAPEAVIOPlugin@@AEAPEAPEAV1@@Z
	??$forward@PEAPEAVMeshLabPlugin@@@std@@YA$$QEAPEAPEAVMeshLabPlugin@@AEAPEAPEAV1@@Z
	??$forward@PEAPEAVQAction@@@std@@YA$$QEAPEAPEAVQAction@@AEAPEAPEAV1@@Z
	??$forward@PEAPEAVRenderPlugin@@@std@@YA$$QEAPEAPEAVRenderPlugin@@AEAPEAPEAV1@@Z
	??$forward@PEAU?$CurvatureDirOcfBaseType@M@face@vcg@@@std@@YA$$QEAPEAU?$CurvatureDirOcfBaseType@M@face@vcg@@AEAPEAU123@@Z
	??$forward@PEAU?$CurvatureDirTypeOcf@M@vertex@vcg@@@std@@YA$$QEAPEAU?$CurvatureDirTypeOcf@M@vertex@vcg@@AEAPEAU123@@Z
	??$forward@PEAU?$_List_node@V?$basic_string@DU?$char_traits@D@std@@V?$allocator@D@2@@std@@PEAX@std@@@std@@YA$$QEAPEAU?$_List_node@V?$basic_string@DU?$char_traits@D@std@@V?$allocator@D@2@@std@@PEAX@0@AEAPEAU10@@Z
	??$forward@PEAU?$_List_node@VFunctionParameter@pymeshlab@@PEAX@std@@@std@@YA$$QEAPEAU?$_List_node@VFunctionParameter@pymeshlab@@PEAX@0@AEAPEAU10@@Z
	??$forward@PEAU?$_Tree_node@U?$pair@$$CBFV?$vector@U?$pair@II@std@@V?$allocator@U?$pair@II@std@@@2@@std@@@std@@PEAX@std@@@std@@YA$$QEAPEAU?$_Tree_node@U?$pair@$$CBFV?$vector@U?$pair@II@std@@V?$allocator@U?$pair@II@std@@@2@@std@@@std@@PEAX@0@AEAPEAU10@@Z
	??$forward@PEAU?$_Tree_node@U?$pair@$$CBHPEAV?$QtThreadSafeGLMeshAttributesMultiViewerBOManager@VCMeshO@@PEAVQGLContext@@UMLPerViewGLOptions@@@vcg@@@std@@PEAX@std@@@std@@YA$$QEAPEAU?$_Tree_node@U?$pair@$$CBHPEAV?$QtThreadSafeGLMeshAttributesMultiViewerBOManager@VCMeshO@@PEAVQGLContext@@UMLPerViewGLOptions@@@vcg@@@std@@PEAX@0@AEAPEAU10@@Z
	??$forward@PEAU?$_Tree_node@U?$pair@$$CBMV?$vector@PEAVQAction@@V?$allocator@PEAVQAction@@@std@@@std@@@std@@PEAX@std@@@std@@YA$$QEAPEAU?$_Tree_node@U?$pair@$$CBMV?$vector@PEAVQAction@@V?$allocator@PEAVQAction@@@std@@@std@@@std@@PEAX@0@AEAPEAU10@@Z
	??$forward@PEAU?$_Tree_node@U?$pair@$$CBV?$basic_string@DU?$char_traits@D@std@@V?$allocator@D@2@@std@@VQImage@@@std@@PEAX@std@@@std@@YA$$QEAPEAU?$_Tree_node@U?$pair@$$CBV?$basic_string@DU?$char_traits@D@std@@V?$allocator@D@2@@std@@VQImage@@@std@@PEAX@0@AEAPEAU10@@Z
	??$forward@PEAU?$_Tree_node@U?$pair@$$CBVQString@@V?$vector@PEAVQAction@@V?$allocator@PEAVQAction@@@std@@@std@@@std@@PEAX@std@@@std@@YA$$QEAPEAU?$_Tree_node@U?$pair@$$CBVQString@@V?$vector@PEAVQAction@@V?$allocator@PEAVQAction@@@std@@@std@@@std@@PEAX@0@AEAPEAU10@@Z
	??$forward@PEAU?$_Tree_node@U?$pair@QEAVQAction@@M@std@@PEAX@std@@@std@@YA$$QEAPEAU?$_Tree_node@U?$pair@QEAVQAction@@M@std@@PEAX@0@AEAPEAU10@@Z
	??$forward@PEAU?$_Tree_node@U?$pair@QEAVQGLContext@@V?$PerViewData@UMLPerViewGLOptions@@@vcg@@@std@@PEAX@std@@@std@@YA$$QEAPEAU?$_Tree_node@U?$pair@QEAVQGLContext@@V?$PerViewData@UMLPerViewGLOptions@@@vcg@@@std@@PEAX@0@AEAPEAU10@@Z
	??$forward@PEAU?$_Tree_node@VFunction@pymeshlab@@PEAX@std@@@std@@YA$$QEAPEAU?$_Tree_node@VFunction@pymeshlab@@PEAX@0@AEAPEAU10@@Z
	??$forward@PEAU?$_Tree_node@VPointerToAttribute@vcg@@PEAX@std@@@std@@YA$$QEAPEAU?$_Tree_node@VPointerToAttribute@vcg@@PEAX@0@AEAPEAU10@@Z
	??$forward@PEAU?$_Tree_node@VQString@@PEAX@std@@@std@@YA$$QEAPEAU?$_Tree_node@VQString@@PEAX@0@AEAPEAU10@@Z
	??$forward@PEAUAdjTypePack@?$vector_ocf@VCFaceO@@@face@vcg@@@std@@YA$$QEAPEAUAdjTypePack@?$vector_ocf@VCFaceO@@@face@vcg@@AEAPEAU1234@@Z
	??$forward@PEAUVFAdjType@?$vector_ocf@VCVertexO@@@vertex@vcg@@@std@@YA$$QEAPEAUVFAdjType@?$vector_ocf@VCVertexO@@@vertex@vcg@@AEAPEAU1234@@Z
	??$forward@PEAU_Container_base12@std@@@std@@YA$$QEAPEAU_Container_base12@0@AEAPEAU10@@Z
	??$forward@PEAV?$Color4@E@vcg@@@std@@YA$$QEAPEAV?$Color4@E@vcg@@AEAPEAV12@@Z
	??$forward@PEAV?$Point2@M@vcg@@@std@@YA$$QEAPEAV?$Point2@M@vcg@@AEAPEAV12@@Z
	??$forward@PEAV?$Point3@M@vcg@@@std@@YA$$QEAPEAV?$Point3@M@vcg@@AEAPEAV12@@Z
	??$forward@PEAV?$TexCoord2@M$00@vcg@@@std@@YA$$QEAPEAV?$TexCoord2@M$00@vcg@@AEAPEAV12@@Z
	??$forward@PEAV?$basic_string@DU?$char_traits@D@std@@V?$allocator@D@2@@std@@@std@@YA$$QEAPEAV?$basic_string@DU?$char_traits@D@std@@V?$allocator@D@2@@0@AEAPEAV10@@Z
	??$forward@PEAVCFaceO@@@std@@YA$$QEAPEAVCFaceO@@AEAPEAV1@@Z
	??$forward@PEAVCVertexO@@@std@@YA$$QEAPEAVCVertexO@@AEAPEAV1@@Z
	??$forward@PEAVDecoratePlugin@@@std@@YA$$QEAPEAVDecoratePlugin@@AEAPEAV1@@Z
	??$forward@PEAVEditPlugin@@@std@@YA$$QEAPEAVEditPlugin@@AEAPEAV1@@Z
	??$forward@PEAVFilterPlugin@@@std@@YA$$QEAPEAVFilterPlugin@@AEAPEAV1@@Z
	??$forward@PEAVIOPlugin@@@std@@YA$$QEAPEAVIOPlugin@@AEAPEAV1@@Z
	??$forward@PEAVMeshLabPlugin@@@std@@YA$$QEAPEAVMeshLabPlugin@@AEAPEAV1@@Z
	??$forward@PEAVMeshModel@@@std@@YA$$QEAPEAVMeshModel@@AEAPEAV1@@Z
	??$forward@PEAVQAction@@@std@@YA$$QEAPEAVQAction@@AEAPEAV1@@Z
	??$forward@PEAVQPluginLoader@@@std@@YA$$QEAPEAVQPluginLoader@@AEAPEAV1@@Z
	??$forward@PEAVRenderPlugin@@@std@@YA$$QEAPEAVRenderPlugin@@AEAPEAV1@@Z
	??$forward@PEAVRichParameter@@@std@@YA$$QEAPEAVRichParameter@@AEAPEAV1@@Z
	??$forward@PEAVWedgeColorTypePack@?$vector_ocf@VCFaceO@@@face@vcg@@@std@@YA$$QEAPEAVWedgeColorTypePack@?$vector_ocf@VCFaceO@@@face@vcg@@AEAPEAV1234@@Z
	??$forward@PEAVWedgeNormalTypePack@?$vector_ocf@VCFaceO@@@face@vcg@@@std@@YA$$QEAPEAVWedgeNormalTypePack@?$vector_ocf@VCFaceO@@@face@vcg@@AEAPEAV1234@@Z
	??$forward@PEAVWedgeTexTypePack@?$vector_ocf@VCFaceO@@@face@vcg@@@std@@YA$$QEAPEAVWedgeTexTypePack@?$vector_ocf@VCFaceO@@@face@vcg@@AEAPEAV1234@@Z
	??$forward@PEBD@std@@YA$$QEAPEBDAEAPEBD@Z
	??$forward@U?$CurvatureDirOcfBaseType@M@face@vcg@@@std@@YA$$QEAU?$CurvatureDirOcfBaseType@M@face@vcg@@AEAU123@@Z
	??$forward@U?$CurvatureDirTypeOcf@M@vertex@vcg@@@std@@YA$$QEAU?$CurvatureDirTypeOcf@M@vertex@vcg@@AEAU123@@Z
	??$forward@U?$less@V?$basic_string@DU?$char_traits@D@std@@V?$allocator@D@2@@std@@@std@@@std@@YA$$QEAU?$less@V?$basic_string@DU?$char_traits@D@std@@V?$allocator@D@2@@std@@@0@AEAU10@@Z
	??$forward@U?$pair@FI@std@@@std@@YA$$QEAU?$pair@FI@0@AEAU10@@Z
	??$forward@U?$pair@II@std@@@std@@YA$$QEAU?$pair@II@0@AEAU10@@Z
	??$forward@U?$pair@VQString@@V1@@std@@@std@@YA$$QEAU?$pair@VQString@@V1@@0@AEAU10@@Z
	??$forward@UAdjTypePack@?$vector_ocf@VCFaceO@@@face@vcg@@@std@@YA$$QEAUAdjTypePack@?$vector_ocf@VCFaceO@@@face@vcg@@AEAU1234@@Z
	??$forward@UVFAdjType@?$vector_ocf@VCVertexO@@@vertex@vcg@@@std@@YA$$QEAUVFAdjType@?$vector_ocf@VCVertexO@@@vertex@vcg@@AEAU1234@@Z
	??$forward@U_One_then_variadic_args_t@std@@@std@@YA$$QEAU_One_then_variadic_args_t@0@AEAU10@@Z
	??$forward@U_Zero_then_variadic_args_t@std@@@std@@YA$$QEAU_Zero_then_variadic_args_t@0@AEAU10@@Z
	??$forward@V?$Color4@E@vcg@@@std@@YA$$QEAV?$Color4@E@vcg@@AEAV12@@Z
	??$forward@V?$HEdge@V?$UsedTypes@UAsVertexType@?$Use@VCVertexO@@@vcg@@UAsEdgeType@?$Use@VCEdgeO@@@3@UAsFaceType@?$Use@VCFaceO@@@3@VDefaultDeriver@3@V83@V83@V83@V83@@vcg@@VDefaultDeriver@2@V32@V32@V32@V32@V32@V32@V32@V32@V32@V32@@vcg@@@std@@YA$$QEAV?$HEdge@V?$UsedTypes@UAsVertexType@?$Use@VCVertexO@@@vcg@@UAsEdgeType@?$Use@VCEdgeO@@@3@UAsFaceType@?$Use@VCFaceO@@@3@VDefaultDeriver@3@V83@V83@V83@V83@@vcg@@VDefaultDeriver@2@V32@V32@V32@V32@V32@V32@V32@V32@V32@V32@@vcg@@AEAV12@@Z
	??$forward@V?$Point2@M@vcg@@@std@@YA$$QEAV?$Point2@M@vcg@@AEAV12@@Z
	??$forward@V?$Point3@M@vcg@@@std@@YA$$QEAV?$Point3@M@vcg@@AEAV12@@Z
	??$forward@V?$QList@H@@@std@@YA$$QEAV?$QList@H@@AEAV1@@Z
	??$forward@V?$TetraSimp@V?$UsedTypes@UAsVertexType@?$Use@VCVertexO@@@vcg@@UAsEdgeType@?$Use@VCEdgeO@@@3@UAsFaceType@?$Use@VCFaceO@@@3@VDefaultDeriver@3@V83@V83@V83@V83@@vcg@@VDefaultDeriver@2@V32@V32@V32@V32@V32@V32@V32@V32@V32@V32@V32@@vcg@@@std@@YA$$QEAV?$TetraSimp@V?$UsedTypes@UAsVertexType@?$Use@VCVertexO@@@vcg@@UAsEdgeType@?$Use@VCEdgeO@@@3@UAsFaceType@?$Use@VCFaceO@@@3@VDefaultDeriver@3@V83@V83@V83@V83@@vcg@@VDefaultDeriver@2@V32@V32@V32@V32@V32@V32@V32@V32@V32@V32@V32@@vcg@@AEAV12@@Z
	??$forward@V?$TexCoord2@M$00@vcg@@@std@@YA$$QEAV?$TexCoord2@M$00@vcg@@AEAV12@@Z
	??$forward@V?$_List_unchecked_iterator@V?$_List_val@U?$_List_simple_types@PEAVQAction@@@std@@@std@@@std@@@std@@YA$$QEAV?$_List_unchecked_iterator@V?$_List_val@U?$_List_simple_types@PEAVQAction@@@std@@@std@@@0@AEAV10@@Z
	??$forward@V?$_Tree_const_iterator@V?$_Tree_val@U?$_Tree_simple_types@VFunction@pymeshlab@@@std@@@std@@@std@@@std@@YA$$QEAV?$_Tree_const_iterator@V?$_Tree_val@U?$_Tree_simple_types@VFunction@pymeshlab@@@std@@@std@@@0@AEAV10@@Z
	??$forward@V?$_Tree_const_iterator@V?$_Tree_val@U?$_Tree_simple_types@VPointerToAttribute@vcg@@@std@@@std@@@std@@@std@@YA$$QEAV?$_Tree_const_iterator@V?$_Tree_val@U?$_Tree_simple_types@VPointerToAttribute@vcg@@@std@@@std@@@0@AEAV10@@Z
	??$forward@V?$_Tree_const_iterator@V?$_Tree_val@U?$_Tree_simple_types@VQString@@@std@@@std@@@std@@@std@@YA$$QEAV?$_Tree_const_iterator@V?$_Tree_val@U?$_Tree_simple_types@VQString@@@std@@@std@@@0@AEAV10@@Z
	??$forward@V?$_Vb_iterator@U?$_Wrap_alloc@V?$allocator@I@std@@@std@@@std@@@std@@YA$$QEAV?$_Vb_iterator@U?$_Wrap_alloc@V?$allocator@I@std@@@std@@@0@AEAV10@@Z
	??$forward@V?$allocator@D@std@@@std@@YA$$QEAV?$allocator@D@0@AEAV10@@Z
	??$forward@V?$allocator@H@std@@@std@@YA$$QEAV?$allocator@H@0@AEAV10@@Z
	??$forward@V?$allocator@M@std@@@std@@YA$$QEAV?$allocator@M@0@AEAV10@@Z
	??$forward@V?$allocator@PEAVQAction@@@std@@@std@@YA$$QEAV?$allocator@PEAVQAction@@@0@AEAV10@@Z
	??$forward@V?$allocator@U?$CurvatureDirOcfBaseType@M@face@vcg@@@std@@@std@@YA$$QEAV?$allocator@U?$CurvatureDirOcfBaseType@M@face@vcg@@@0@AEAV10@@Z
	??$forward@V?$allocator@U?$CurvatureDirTypeOcf@M@vertex@vcg@@@std@@@std@@YA$$QEAV?$allocator@U?$CurvatureDirTypeOcf@M@vertex@vcg@@@0@AEAV10@@Z
	??$forward@V?$allocator@U?$_List_node@PEAVMeshModel@@PEAX@std@@@std@@@std@@YA$$QEAV?$allocator@U?$_List_node@PEAVMeshModel@@PEAX@std@@@0@AEAV10@@Z
	??$forward@V?$allocator@U?$_List_node@V?$Matrix@I$0?0$00$0A@$0?0$00@Eigen@@PEAX@std@@@std@@@std@@YA$$QEAV?$allocator@U?$_List_node@V?$Matrix@I$0?0$00$0A@$0?0$00@Eigen@@PEAX@std@@@0@AEAV10@@Z
	??$forward@V?$allocator@U?$_List_node@V?$basic_string@DU?$char_traits@D@std@@V?$allocator@D@2@@std@@PEAX@std@@@std@@@std@@YA$$QEAV?$allocator@U?$_List_node@V?$basic_string@DU?$char_traits@D@std@@V?$allocator@D@2@@std@@PEAX@std@@@0@AEAV10@@Z
	??$forward@V?$allocator@U?$_List_node@VFunctionParameter@pymeshlab@@PEAX@std@@@std@@@std@@YA$$QEAV?$allocator@U?$_List_node@VFunctionParameter@pymeshlab@@PEAX@std@@@0@AEAV10@@Z
	??$forward@V?$allocator@U?$_Tree_node@U?$pair@$$CBV?$basic_string@DU?$char_traits@D@std@@V?$allocator@D@2@@std@@VQImage@@@std@@PEAX@std@@@std@@@std@@YA$$QEAV?$allocator@U?$_Tree_node@U?$pair@$$CBV?$basic_string@DU?$char_traits@D@std@@V?$allocator@D@2@@std@@VQImage@@@std@@PEAX@std@@@0@AEAV10@@Z
	??$forward@V?$allocator@UAdjTypePack@?$vector_ocf@VCFaceO@@@face@vcg@@@std@@@std@@YA$$QEAV?$allocator@UAdjTypePack@?$vector_ocf@VCFaceO@@@face@vcg@@@0@AEAV10@@Z
	??$forward@V?$allocator@UVFAdjType@?$vector_ocf@VCVertexO@@@vertex@vcg@@@std@@@std@@YA$$QEAV?$allocator@UVFAdjType@?$vector_ocf@VCVertexO@@@vertex@vcg@@@0@AEAV10@@Z
	??$forward@V?$allocator@V?$Color4@E@vcg@@@std@@@std@@YA$$QEAV?$allocator@V?$Color4@E@vcg@@@0@AEAV10@@Z
	??$forward@V?$allocator@V?$Point2@M@vcg@@@std@@@std@@YA$$QEAV?$allocator@V?$Point2@M@vcg@@@0@AEAV10@@Z
	??$forward@V?$allocator@V?$Point3@M@vcg@@@std@@@std@@YA$$QEAV?$allocator@V?$Point3@M@vcg@@@0@AEAV10@@Z
	??$forward@V?$allocator@V?$TexCoord2@M$00@vcg@@@std@@@std@@YA$$QEAV?$allocator@V?$TexCoord2@M$00@vcg@@@0@AEAV10@@Z
	??$forward@V?$allocator@VCFaceO@@@std@@@std@@YA$$QEAV?$allocator@VCFaceO@@@0@AEAV10@@Z
	??$forward@V?$allocator@VCVertexO@@@std@@@std@@YA$$QEAV?$allocator@VCVertexO@@@0@AEAV10@@Z
	??$forward@V?$allocator@VInternalRendAtts@GLMeshAttributesInfo@vcg@@@std@@@std@@YA$$QEAV?$allocator@VInternalRendAtts@GLMeshAttributesInfo@vcg@@@0@AEAV10@@Z
	??$forward@V?$allocator@VWedgeColorTypePack@?$vector_ocf@VCFaceO@@@face@vcg@@@std@@@std@@YA$$QEAV?$allocator@VWedgeColorTypePack@?$vector_ocf@VCFaceO@@@face@vcg@@@0@AEAV10@@Z
	??$forward@V?$allocator@VWedgeNormalTypePack@?$vector_ocf@VCFaceO@@@face@vcg@@@std@@@std@@YA$$QEAV?$allocator@VWedgeNormalTypePack@?$vector_ocf@VCFaceO@@@face@vcg@@@0@AEAV10@@Z
	??$forward@V?$allocator@VWedgeTexTypePack@?$vector_ocf@VCFaceO@@@face@vcg@@@std@@@std@@YA$$QEAV?$allocator@VWedgeTexTypePack@?$vector_ocf@VCFaceO@@@face@vcg@@@0@AEAV10@@Z
	??$forward@V?$back_insert_iterator@V?$QList@VQString@@@@@std@@@std@@YA$$QEAV?$back_insert_iterator@V?$QList@VQString@@@@@0@AEAV10@@Z
	??$forward@V?$basic_string@DU?$char_traits@D@std@@V?$allocator@D@2@@std@@@std@@YA$$QEAV?$basic_string@DU?$char_traits@D@std@@V?$allocator@D@2@@0@AEAV10@@Z
	??$forward@V?$tuple@$$QEAF@std@@@std@@YA$$QEAV?$tuple@$$QEAF@0@AEAV10@@Z
	??$forward@V?$tuple@$$V@std@@@std@@YA$$QEAV?$tuple@$$V@0@AEAV10@@Z
	??$forward@V?$tuple@AEBF@std@@@std@@YA$$QEAV?$tuple@AEBF@0@AEAV10@@Z
	??$forward@V?$tuple@AEBH@std@@@std@@YA$$QEAV?$tuple@AEBH@0@AEAV10@@Z
	??$forward@V?$tuple@AEBM@std@@@std@@YA$$QEAV?$tuple@AEBM@0@AEAV10@@Z
	??$forward@V?$tuple@AEBQEAVQAction@@@std@@@std@@YA$$QEAV?$tuple@AEBQEAVQAction@@@0@AEAV10@@Z
	??$forward@V?$tuple@AEBQEAVQGLContext@@@std@@@std@@YA$$QEAV?$tuple@AEBQEAVQGLContext@@@0@AEAV10@@Z
	??$forward@V?$tuple@AEBV?$basic_string@DU?$char_traits@D@std@@V?$allocator@D@2@@std@@@std@@@std@@YA$$QEAV?$tuple@AEBV?$basic_string@DU?$char_traits@D@std@@V?$allocator@D@2@@std@@@0@AEAV10@@Z
	??$forward@V?$tuple@AEBVQString@@@std@@@std@@YA$$QEAV?$tuple@AEBVQString@@@0@AEAV10@@Z
	??$forward@VCEdgeO@@@std@@YA$$QEAVCEdgeO@@AEAV1@@Z
	??$forward@VCFaceO@@@std@@YA$$QEAVCFaceO@@AEAV1@@Z
	??$forward@VCVertexO@@@std@@YA$$QEAVCVertexO@@AEAV1@@Z
	??$forward@VEdgeVertInd@?$NotThreadSafeGLMeshAttributesMultiViewerBOManager@VCMeshO@@PEAVQGLContext@@UMLPerViewGLOptions@@@vcg@@@std@@YA$$QEAVEdgeVertInd@?$NotThreadSafeGLMeshAttributesMultiViewerBOManager@VCMeshO@@PEAVQGLContext@@UMLPerViewGLOptions@@@vcg@@AEAV123@@Z
	??$forward@VMeshModel@@@std@@YA$$QEAVMeshModel@@AEAV1@@Z
	??$forward@VPEdge@?$UpdateTopology@VCMeshO@@@tri@vcg@@@std@@YA$$QEAVPEdge@?$UpdateTopology@VCMeshO@@@tri@vcg@@AEAV1234@@Z
	??$forward@VPFace@vcg@@@std@@YA$$QEAVPFace@vcg@@AEAV12@@Z
	??$forward@VPVertex@vcg@@@std@@YA$$QEAVPVertex@vcg@@AEAV12@@Z
	??$forward@VQString@@@std@@YA$$QEAVQString@@AEAV1@@Z
	??$forward@VRasterModel@@@std@@YA$$QEAVRasterModel@@AEAV1@@Z
	??$forward@VWedgeColorTypePack@?$vector_ocf@VCFaceO@@@face@vcg@@@std@@YA$$QEAVWedgeColorTypePack@?$vector_ocf@VCFaceO@@@face@vcg@@AEAV1234@@Z
	??$forward@VWedgeNormalTypePack@?$vector_ocf@VCFaceO@@@face@vcg@@@std@@YA$$QEAVWedgeNormalTypePack@?$vector_ocf@VCFaceO@@@face@vcg@@AEAV1234@@Z
	??$forward@VWedgeTexTypePack@?$vector_ocf@VCFaceO@@@face@vcg@@@std@@YA$$QEAVWedgeTexTypePack@?$vector_ocf@VCFaceO@@@face@vcg@@AEAV1234@@Z
	??$forward@_K@std@@YA$$QEA_KAEA_K@Z
	??$forward@_N@std@@YA$$QEA_NAEA_N@Z
	??$forward_as_tuple@$$V@std@@YA?AV?$tuple@$$V@0@XZ
	??$forward_as_tuple@AEBF@std@@YA?AV?$tuple@AEBF@0@AEBF@Z
	??$forward_as_tuple@AEBH@std@@YA?AV?$tuple@AEBH@0@AEBH@Z
	??$forward_as_tuple@AEBM@std@@YA?AV?$tuple@AEBM@0@AEBM@Z
	??$forward_as_tuple@AEBQEAVQAction@@@std@@YA?AV?$tuple@AEBQEAVQAction@@@0@AEBQEAVQAction@@@Z
	??$forward_as_tuple@AEBQEAVQGLContext@@@std@@YA?AV?$tuple@AEBQEAVQGLContext@@@0@AEBQEAVQGLContext@@@Z
	??$forward_as_tuple@AEBV?$basic_string@DU?$char_traits@D@std@@V?$allocator@D@2@@std@@@std@@YA?AV?$tuple@AEBV?$basic_string@DU?$char_traits@D@std@@V?$allocator@D@2@@std@@@0@AEBV?$basic_string@DU?$char_traits@D@std@@V?$allocator@D@2@@0@@Z
	??$forward_as_tuple@AEBVQString@@@std@@YA?AV?$tuple@AEBVQString@@@0@AEBVQString@@@Z
	??$forward_as_tuple@F@std@@YA?AV?$tuple@$$QEAF@0@$$QEAF@Z
	??$ignore_unused_variable@_N@internal@Eigen@@YAXAEB_N@Z
	??$inputFormatListDialog@VIOPluginRangeIterator@IOPluginContainer@@@PluginManager@@CA?AVQStringList@@VIOPluginRangeIterator@IOPluginContainer@@@Z
	??$inputImageFormatListDialog@VIOPluginRangeIterator@IOPluginContainer@@@PluginManager@@CA?AVQStringList@@VIOPluginRangeIterator@IOPluginContainer@@@Z
	??$inputProjectFormatListDialog@VIOPluginRangeIterator@IOPluginContainer@@@PluginManager@@CA?AVQStringList@@VIOPluginRangeIterator@IOPluginContainer@@@Z
	??$insert@$0A@$0A@@?$_Tree@V?$_Tset_traits@VFunction@pymeshlab@@U?$less@VFunction@pymeshlab@@@std@@V?$allocator@VFunction@pymeshlab@@@4@$0A@@std@@@std@@QEAA?AU?$pair@V?$_Tree_const_iterator@V?$_Tree_val@U?$_Tree_simple_types@VFunction@pymeshlab@@@std@@@std@@@std@@_N@1@AEBVFunction@pymeshlab@@@Z
	??$insert@$0A@$0A@@?$_Tree@V?$_Tset_traits@VPointerToAttribute@vcg@@U?$less@VPointerToAttribute@vcg@@@std@@V?$allocator@VPointerToAttribute@vcg@@@4@$0A@@std@@@std@@QEAA?AU?$pair@V?$_Tree_const_iterator@V?$_Tree_val@U?$_Tree_simple_types@VPointerToAttribute@vcg@@@std@@@std@@@std@@_N@1@AEBVPointerToAttribute@vcg@@@Z
	??$insert@$0A@$0A@@?$_Tree@V?$_Tset_traits@VQString@@U?$less@VQString@@@std@@V?$allocator@VQString@@@3@$0A@@std@@@std@@QEAA?AU?$pair@V?$_Tree_const_iterator@V?$_Tree_val@U?$_Tree_simple_types@VQString@@@std@@@std@@@std@@_N@1@$$QEAVQString@@@Z
	??$insert@V?$_List_iterator@V?$_List_val@U?$_List_simple_types@V?$basic_string@DU?$char_traits@D@std@@V?$allocator@D@2@@std@@@std@@@std@@@std@@$0A@@?$list@V?$basic_string@DU?$char_traits@D@std@@V?$allocator@D@2@@std@@V?$allocator@V?$basic_string@DU?$char_traits@D@std@@V?$allocator@D@2@@std@@@2@@std@@QEAA?AV?$_List_iterator@V?$_List_val@U?$_List_simple_types@V?$basic_string@DU?$char_traits@D@std@@V?$allocator@D@2@@std@@@std@@@std@@@1@V?$_List_const_iterator@V?$_List_val@U?$_List_simple_types@V?$basic_string@DU?$char_traits@D@std@@V?$allocator@D@2@@std@@@std@@@std@@@1@V21@1@Z
	??$insert@V?$_Vector_iterator@V?$_Vector_val@U?$_Simple_types@PEAVQAction@@@std@@@std@@@std@@$0A@@?$vector@PEAVQAction@@V?$allocator@PEAVQAction@@@std@@@std@@QEAA?AV?$_Vector_iterator@V?$_Vector_val@U?$_Simple_types@PEAVQAction@@@std@@@std@@@1@V?$_Vector_const_iterator@V?$_Vector_val@U?$_Simple_types@PEAVQAction@@@std@@@std@@@1@V21@1@Z
	??$isOfType@VRichBool@@@RichParameter@@QEBA_NXZ
	??$isOfType@VRichColor@@@RichParameter@@QEBA_NXZ
	??$isOfType@VRichDirection@@@RichParameter@@QEBA_NXZ
	??$isOfType@VRichDynamicFloat@@@RichParameter@@QEBA_NXZ
	??$isOfType@VRichEnum@@@RichParameter@@QEBA_NXZ
	??$isOfType@VRichFileOpen@@@RichParameter@@QEBA_NXZ
	??$isOfType@VRichFileSave@@@RichParameter@@QEBA_NXZ
	??$isOfType@VRichFloat@@@RichParameter@@QEBA_NXZ
	??$isOfType@VRichInt@@@RichParameter@@QEBA_NXZ
	??$isOfType@VRichMatrix44@@@RichParameter@@QEBA_NXZ
	??$isOfType@VRichMesh@@@RichParameter@@QEBA_NXZ
	??$isOfType@VRichPercentage@@@RichParameter@@QEBA_NXZ
	??$isOfType@VRichPosition@@@RichParameter@@QEBA_NXZ
	??$isOfType@VRichShot@@@RichParameter@@QEBA_NXZ
	??$isOfType@VRichString@@@RichParameter@@QEBA_NXZ
	??$iter_swap@PEAPEAVCVertexO@@PEAPEAV1@@std@@YAXPEAPEAVCVertexO@@0@Z
	??$iter_swap@PEAPEAVQAction@@PEAPEAV1@@std@@YAXPEAPEAVQAction@@0@Z
	??$iter_swap@PEAVEdgeVertInd@?$NotThreadSafeGLMeshAttributesMultiViewerBOManager@VCMeshO@@PEAVQGLContext@@UMLPerViewGLOptions@@@vcg@@PEAV123@@std@@YAXPEAVEdgeVertInd@?$NotThreadSafeGLMeshAttributesMultiViewerBOManager@VCMeshO@@PEAVQGLContext@@UMLPerViewGLOptions@@@vcg@@0@Z
	??$iter_swap@PEAVPEdge@?$UpdateTopology@VCMeshO@@@tri@vcg@@PEAV1234@@std@@YAXPEAVPEdge@?$UpdateTopology@VCMeshO@@@tri@vcg@@0@Z
	??$link@$1?staticMetaObject@QGLWidget@@2UQMetaObject@@B@SuperData@QMetaObject@@SA?AU01@XZ
	??$link@$1?staticMetaObject@QObject@@2UQMetaObject@@B@SuperData@QMetaObject@@SA?AU01@XZ
	??$loadRelaxed@H@?$QAtomicOps@H@@SAHAEBU?$atomic@H@std@@@Z
	??$make_pair@AEAHAEAVQString@@@std@@YA?AU?$pair@HVQString@@@0@AEAHAEAVQString@@@Z
	??$make_pair@AEAVQString@@PEBD@std@@YA?AU?$pair@VQString@@PEBD@0@AEAVQString@@$$QEAPEBD@Z
	??$make_pair@AEBFAEAI@std@@YA?AU?$pair@FI@0@AEBFAEAI@Z
	??$make_pair@H_K@std@@YA?AU?$pair@H_K@0@$$QEAH$$QEA_K@Z
	??$make_pair@II@std@@YA?AU?$pair@II@0@$$QEAI0@Z
	??$max@PEAD@std@@YAAEBQEADAEBQEAD0@Z
	??$max@_J@std@@YAAEB_JAEB_J0@Z
	??$max@_K@std@@YAAEB_KAEB_K0@Z
	??$min@_K@std@@YAAEB_KAEB_K0@Z
	??$move@AEAD@std@@YA$$QEADAEAD@Z
	??$move@AEAF@std@@YA$$QEAFAEAF@Z
	??$move@AEAH@std@@YA$$QEAHAEAH@Z
	??$move@AEAI@std@@YA$$QEAIAEAI@Z
	??$move@AEAM@std@@YA$$QEAMAEAM@Z
	??$move@AEAPEAH@std@@YA$$QEAPEAHAEAPEAH@Z
	??$move@AEAPEAI@std@@YA$$QEAPEAIAEAPEAI@Z
	??$move@AEAPEAM@std@@YA$$QEAPEAMAEAPEAM@Z
	??$move@AEAPEAU?$QMapData@HUMeshModelStateData@@@@@std@@YA$$QEAPEAU?$QMapData@HUMeshModelStateData@@@@AEAPEAU1@@Z
	??$move@AEAPEAU?$QMapData@HVMLRenderingData@@@@@std@@YA$$QEAPEAU?$QMapData@HVMLRenderingData@@@@AEAPEAU1@@Z
	??$move@AEAPEAU?$QMapData@VQString@@PEAVIOPlugin@@@@@std@@YA$$QEAPEAU?$QMapData@VQString@@PEAVIOPlugin@@@@AEAPEAU1@@Z
	??$move@AEAPEAU?$QMapData@VQString@@PEAVQAction@@@@@std@@YA$$QEAPEAU?$QMapData@VQString@@PEAVQAction@@@@AEAPEAU1@@Z
	??$move@AEAPEAU?$QMapData@VQString@@U?$QPair@VQString@@V1@@@@@@std@@YA$$QEAPEAU?$QMapData@VQString@@U?$QPair@VQString@@V1@@@@@AEAPEAU1@@Z
	??$move@AEAPEAU?$_List_node@PEAVMeshModel@@PEAX@std@@@std@@YA$$QEAPEAU?$_List_node@PEAVMeshModel@@PEAX@0@AEAPEAU10@@Z
	??$move@AEAPEAU?$_List_node@PEAVRichParameter@@PEAX@std@@@std@@YA$$QEAPEAU?$_List_node@PEAVRichParameter@@PEAX@0@AEAPEAU10@@Z
	??$move@AEAPEAU?$_List_node@V?$Matrix@I$0?0$00$0A@$0?0$00@Eigen@@PEAX@std@@@std@@YA$$QEAPEAU?$_List_node@V?$Matrix@I$0?0$00$0A@$0?0$00@Eigen@@PEAX@0@AEAPEAU10@@Z
	??$move@AEAPEAU?$_List_node@V?$basic_string@DU?$char_traits@D@std@@V?$allocator@D@2@@std@@PEAX@std@@@std@@YA$$QEAPEAU?$_List_node@V?$basic_string@DU?$char_traits@D@std@@V?$allocator@D@2@@std@@PEAX@0@AEAPEAU10@@Z
	??$move@AEAPEAU?$_Tree_node@VPointerToAttribute@vcg@@PEAX@std@@@std@@YA$$QEAPEAU?$_Tree_node@VPointerToAttribute@vcg@@PEAX@0@AEAPEAU10@@Z
	??$move@AEAPEAUData@QListData@@@std@@YA$$QEAPEAUData@QListData@@AEAPEAU12@@Z
	??$move@AEAPEAV?$HEdge@V?$UsedTypes@UAsVertexType@?$Use@VCVertexO@@@vcg@@UAsEdgeType@?$Use@VCEdgeO@@@3@UAsFaceType@?$Use@VCFaceO@@@3@VDefaultDeriver@3@V83@V83@V83@V83@@vcg@@VDefaultDeriver@2@V32@V32@V32@V32@V32@V32@V32@V32@V32@V32@@vcg@@@std@@YA$$QEAPEAV?$HEdge@V?$UsedTypes@UAsVertexType@?$Use@VCVertexO@@@vcg@@UAsEdgeType@?$Use@VCEdgeO@@@3@UAsFaceType@?$Use@VCFaceO@@@3@VDefaultDeriver@3@V83@V83@V83@V83@@vcg@@VDefaultDeriver@2@V32@V32@V32@V32@V32@V32@V32@V32@V32@V32@@vcg@@AEAPEAV12@@Z
	??$move@AEAPEAV?$TetraSimp@V?$UsedTypes@UAsVertexType@?$Use@VCVertexO@@@vcg@@UAsEdgeType@?$Use@VCEdgeO@@@3@UAsFaceType@?$Use@VCFaceO@@@3@VDefaultDeriver@3@V83@V83@V83@V83@@vcg@@VDefaultDeriver@2@V32@V32@V32@V32@V32@V32@V32@V32@V32@V32@V32@@vcg@@@std@@YA$$QEAPEAV?$TetraSimp@V?$UsedTypes@UAsVertexType@?$Use@VCVertexO@@@vcg@@UAsEdgeType@?$Use@VCEdgeO@@@3@UAsFaceType@?$Use@VCFaceO@@@3@VDefaultDeriver@3@V83@V83@V83@V83@@vcg@@VDefaultDeriver@2@V32@V32@V32@V32@V32@V32@V32@V32@V32@V32@V32@@vcg@@AEAPEAV12@@Z
	??$move@AEAPEAV?$basic_string@DU?$char_traits@D@std@@V?$allocator@D@2@@std@@@std@@YA$$QEAPEAV?$basic_string@DU?$char_traits@D@std@@V?$allocator@D@2@@0@AEAPEAV10@@Z
	??$move@AEAPEAVCEdgeO@@@std@@YA$$QEAPEAVCEdgeO@@AEAPEAV1@@Z
	??$move@AEAPEAVCFaceO@@@std@@YA$$QEAPEAVCFaceO@@AEAPEAV1@@Z
	??$move@AEAPEAVCVertexO@@@std@@YA$$QEAPEAVCVertexO@@AEAPEAV1@@Z
	??$move@AEAPEAVDecoratePlugin@@@std@@YA$$QEAPEAVDecoratePlugin@@AEAPEAV1@@Z
	??$move@AEAPEAVEditPlugin@@@std@@YA$$QEAPEAVEditPlugin@@AEAPEAV1@@Z
	??$move@AEAPEAVFilterPlugin@@@std@@YA$$QEAPEAVFilterPlugin@@AEAPEAV1@@Z
	??$move@AEAPEAVIOPlugin@@@std@@YA$$QEAPEAVIOPlugin@@AEAPEAV1@@Z
	??$move@AEAPEAVMeshLabPlugin@@@std@@YA$$QEAPEAVMeshLabPlugin@@AEAPEAV1@@Z
	??$move@AEAPEAVMeshModel@@@std@@YA$$QEAPEAVMeshModel@@AEAPEAV1@@Z
	??$move@AEAPEAVQAction@@@std@@YA$$QEAPEAVQAction@@AEAPEAV1@@Z
	??$move@AEAPEAVQPluginLoader@@@std@@YA$$QEAPEAVQPluginLoader@@AEAPEAV1@@Z
	??$move@AEAPEAVRenderPlugin@@@std@@YA$$QEAPEAVRenderPlugin@@AEAPEAV1@@Z
	??$move@AEAPEAVRichParameter@@@std@@YA$$QEAPEAVRichParameter@@AEAPEAV1@@Z
	??$move@AEAPEAVValue@@@std@@YA$$QEAPEAVValue@@AEAPEAV1@@Z
	??$move@AEAPEA_N@std@@YA$$QEAPEA_NAEAPEA_N@Z
	??$move@AEAU?$CurvatureDirOcfBaseType@M@face@vcg@@@std@@YA$$QEAU?$CurvatureDirOcfBaseType@M@face@vcg@@AEAU123@@Z
	??$move@AEAU?$CurvatureDirTypeOcf@M@vertex@vcg@@@std@@YA$$QEAU?$CurvatureDirTypeOcf@M@vertex@vcg@@AEAU123@@Z
	??$move@AEAU?$less@VPointerToAttribute@vcg@@@std@@@std@@YA$$QEAU?$less@VPointerToAttribute@vcg@@@0@AEAU10@@Z
	??$move@AEAU?$pair@FI@std@@@std@@YA$$QEAU?$pair@FI@0@AEAU10@@Z
	??$move@AEAU?$pair@II@std@@@std@@YA$$QEAU?$pair@II@0@AEAU10@@Z
	??$move@AEAU?$pair@VQString@@V1@@std@@@std@@YA$$QEAU?$pair@VQString@@V1@@0@AEAU10@@Z
	??$move@AEAUAdjTypePack@?$vector_ocf@VCFaceO@@@face@vcg@@@std@@YA$$QEAUAdjTypePack@?$vector_ocf@VCFaceO@@@face@vcg@@AEAU1234@@Z
	??$move@AEAUVFAdjType@?$vector_ocf@VCVertexO@@@vertex@vcg@@@std@@YA$$QEAUVFAdjType@?$vector_ocf@VCVertexO@@@vertex@vcg@@AEAU1234@@Z
	??$move@AEAV?$Box3@M@vcg@@@std@@YA$$QEAV?$Box3@M@vcg@@AEAV12@@Z
	??$move@AEAV?$Color4@E@vcg@@@std@@YA$$QEAV?$Color4@E@vcg@@AEAV12@@Z
	??$move@AEAV?$DenseStorage@H$0?0$0?0$02$0A@@Eigen@@@std@@YA$$QEAV?$DenseStorage@H$0?0$0?0$02$0A@@Eigen@@AEAV12@@Z
	??$move@AEAV?$DenseStorage@I$0?0$0?0$00$0A@@Eigen@@@std@@YA$$QEAV?$DenseStorage@I$0?0$0?0$00$0A@@Eigen@@AEAV12@@Z
	??$move@AEAV?$DenseStorage@M$0?0$0?0$00$0A@@Eigen@@@std@@YA$$QEAV?$DenseStorage@M$0?0$0?0$00$0A@@Eigen@@AEAV12@@Z
	??$move@AEAV?$DenseStorage@M$0?0$0?0$01$0A@@Eigen@@@std@@YA$$QEAV?$DenseStorage@M$0?0$0?0$01$0A@@Eigen@@AEAV12@@Z
	??$move@AEAV?$DenseStorage@M$0?0$0?0$02$0A@@Eigen@@@std@@YA$$QEAV?$DenseStorage@M$0?0$0?0$02$0A@@Eigen@@AEAV12@@Z
	??$move@AEAV?$DenseStorage@M$0?0$0?0$03$0A@@Eigen@@@std@@YA$$QEAV?$DenseStorage@M$0?0$0?0$03$0A@@Eigen@@AEAV12@@Z
	??$move@AEAV?$DenseStorage@_N$0?0$0?0$00$0A@@Eigen@@@std@@YA$$QEAV?$DenseStorage@_N$0?0$0?0$00$0A@@Eigen@@AEAV12@@Z
	??$move@AEAV?$HEdge@V?$UsedTypes@UAsVertexType@?$Use@VCVertexO@@@vcg@@UAsEdgeType@?$Use@VCEdgeO@@@3@UAsFaceType@?$Use@VCFaceO@@@3@VDefaultDeriver@3@V83@V83@V83@V83@@vcg@@VDefaultDeriver@2@V32@V32@V32@V32@V32@V32@V32@V32@V32@V32@@vcg@@@std@@YA$$QEAV?$HEdge@V?$UsedTypes@UAsVertexType@?$Use@VCVertexO@@@vcg@@UAsEdgeType@?$Use@VCEdgeO@@@3@UAsFaceType@?$Use@VCFaceO@@@3@VDefaultDeriver@3@V83@V83@V83@V83@@vcg@@VDefaultDeriver@2@V32@V32@V32@V32@V32@V32@V32@V32@V32@V32@@vcg@@AEAV12@@Z
	??$move@AEAV?$Matrix@H$0?0$02$0A@$0?0$02@Eigen@@@std@@YA$$QEAV?$Matrix@H$0?0$02$0A@$0?0$02@Eigen@@AEAV12@@Z
	??$move@AEAV?$Matrix@I$0?0$00$0A@$0?0$00@Eigen@@@std@@YA$$QEAV?$Matrix@I$0?0$00$0A@$0?0$00@Eigen@@AEAV12@@Z
	??$move@AEAV?$Matrix@M$0?0$00$0A@$0?0$00@Eigen@@@std@@YA$$QEAV?$Matrix@M$0?0$00$0A@$0?0$00@Eigen@@AEAV12@@Z
	??$move@AEAV?$Matrix@M$0?0$01$0A@$0?0$01@Eigen@@@std@@YA$$QEAV?$Matrix@M$0?0$01$0A@$0?0$01@Eigen@@AEAV12@@Z
	??$move@AEAV?$Matrix@M$0?0$02$0A@$0?0$02@Eigen@@@std@@YA$$QEAV?$Matrix@M$0?0$02$0A@$0?0$02@Eigen@@AEAV12@@Z
	??$move@AEAV?$Matrix@M$0?0$03$0A@$0?0$03@Eigen@@@std@@YA$$QEAV?$Matrix@M$0?0$03$0A@$0?0$03@Eigen@@AEAV12@@Z
	??$move@AEAV?$Matrix@_N$0?0$00$0A@$0?0$00@Eigen@@@std@@YA$$QEAV?$Matrix@_N$0?0$00$0A@$0?0$00@Eigen@@AEAV12@@Z
	??$move@AEAV?$Point2@M@vcg@@@std@@YA$$QEAV?$Point2@M@vcg@@AEAV12@@Z
	??$move@AEAV?$Point3@M@vcg@@@std@@YA$$QEAV?$Point3@M@vcg@@AEAV12@@Z
	??$move@AEAV?$QList@H@@@std@@YA$$QEAV?$QList@H@@AEAV1@@Z
	??$move@AEAV?$QList@U?$pair@HVQString@@@std@@@@@std@@YA$$QEAV?$QList@U?$pair@HVQString@@@std@@@@AEAV1@@Z
	??$move@AEAV?$QList@VFilterNameParameterValuesPair@@@@@std@@YA$$QEAV?$QList@VFilterNameParameterValuesPair@@@@AEAV1@@Z
	??$move@AEAV?$QList@VQString@@@@@std@@YA$$QEAV?$QList@VQString@@@@AEAV1@@Z
	??$move@AEAV?$QMap@HUMeshModelStateData@@@@@std@@YA$$QEAV?$QMap@HUMeshModelStateData@@@@AEAV1@@Z
	??$move@AEAV?$QMap@HVMLRenderingData@@@@@std@@YA$$QEAV?$QMap@HVMLRenderingData@@@@AEAV1@@Z
	??$move@AEAV?$QMap@VQString@@PEAVIOPlugin@@@@@std@@YA$$QEAV?$QMap@VQString@@PEAVIOPlugin@@@@AEAV1@@Z
	??$move@AEAV?$QMap@VQString@@PEAVQAction@@@@@std@@YA$$QEAV?$QMap@VQString@@PEAVQAction@@@@AEAV1@@Z
	??$move@AEAV?$QMap@VQString@@U?$QPair@VQString@@V1@@@@@@std@@YA$$QEAV?$QMap@VQString@@U?$QPair@VQString@@V1@@@@@AEAV1@@Z
	??$move@AEAV?$Shot@MV?$Matrix44@M@vcg@@@vcg@@@std@@YA$$QEAV?$Shot@MV?$Matrix44@M@vcg@@@vcg@@AEAV12@@Z
	??$move@AEAV?$TetraSimp@V?$UsedTypes@UAsVertexType@?$Use@VCVertexO@@@vcg@@UAsEdgeType@?$Use@VCEdgeO@@@3@UAsFaceType@?$Use@VCFaceO@@@3@VDefaultDeriver@3@V83@V83@V83@V83@@vcg@@VDefaultDeriver@2@V32@V32@V32@V32@V32@V32@V32@V32@V32@V32@V32@@vcg@@@std@@YA$$QEAV?$TetraSimp@V?$UsedTypes@UAsVertexType@?$Use@VCVertexO@@@vcg@@UAsEdgeType@?$Use@VCEdgeO@@@3@UAsFaceType@?$Use@VCFaceO@@@3@VDefaultDeriver@3@V83@V83@V83@V83@@vcg@@VDefaultDeriver@2@V32@V32@V32@V32@V32@V32@V32@V32@V32@V32@V32@@vcg@@AEAV12@@Z
	??$move@AEAV?$TexCoord2@M$00@vcg@@@std@@YA$$QEAV?$TexCoord2@M$00@vcg@@AEAV12@@Z
	??$move@AEAV?$_List_const_iterator@V?$_List_val@U?$_List_simple_types@PEAVRichParameter@@@std@@@std@@@std@@@std@@YA$$QEAV?$_List_const_iterator@V?$_List_val@U?$_List_simple_types@PEAVRichParameter@@@std@@@std@@@0@AEAV10@@Z
	??$move@AEAV?$_List_iterator@V?$_List_val@U?$_List_simple_types@PEAVRichParameter@@@std@@@std@@@std@@@std@@YA$$QEAV?$_List_iterator@V?$_List_val@U?$_List_simple_types@PEAVRichParameter@@@std@@@std@@@0@AEAV10@@Z
	??$move@AEAV?$_Tree_iterator@V?$_Tree_val@U?$_Tree_simple_types@U?$pair@$$CBMV?$vector@PEAVQAction@@V?$allocator@PEAVQAction@@@std@@@std@@@std@@@std@@@std@@@std@@@std@@YA$$QEAV?$_Tree_iterator@V?$_Tree_val@U?$_Tree_simple_types@U?$pair@$$CBMV?$vector@PEAVQAction@@V?$allocator@PEAVQAction@@@std@@@std@@@std@@@std@@@std@@@0@AEAV10@@Z
	??$move@AEAV?$allocator@D@std@@@std@@YA$$QEAV?$allocator@D@0@AEAV10@@Z
	??$move@AEAV?$allocator@H@std@@@std@@YA$$QEAV?$allocator@H@0@AEAV10@@Z
	??$move@AEAV?$allocator@M@std@@@std@@YA$$QEAV?$allocator@M@0@AEAV10@@Z
	??$move@AEAV?$allocator@PEAVQAction@@@std@@@std@@YA$$QEAV?$allocator@PEAVQAction@@@0@AEAV10@@Z
	??$move@AEAV?$allocator@U?$CurvatureDirOcfBaseType@M@face@vcg@@@std@@@std@@YA$$QEAV?$allocator@U?$CurvatureDirOcfBaseType@M@face@vcg@@@0@AEAV10@@Z
	??$move@AEAV?$allocator@U?$CurvatureDirTypeOcf@M@vertex@vcg@@@std@@@std@@YA$$QEAV?$allocator@U?$CurvatureDirTypeOcf@M@vertex@vcg@@@0@AEAV10@@Z
	??$move@AEAV?$allocator@U?$_List_node@PEAVMeshModel@@PEAX@std@@@std@@@std@@YA$$QEAV?$allocator@U?$_List_node@PEAVMeshModel@@PEAX@std@@@0@AEAV10@@Z
	??$move@AEAV?$allocator@U?$_List_node@V?$Matrix@I$0?0$00$0A@$0?0$00@Eigen@@PEAX@std@@@std@@@std@@YA$$QEAV?$allocator@U?$_List_node@V?$Matrix@I$0?0$00$0A@$0?0$00@Eigen@@PEAX@std@@@0@AEAV10@@Z
	??$move@AEAV?$allocator@U?$_List_node@V?$basic_string@DU?$char_traits@D@std@@V?$allocator@D@2@@std@@PEAX@std@@@std@@@std@@YA$$QEAV?$allocator@U?$_List_node@V?$basic_string@DU?$char_traits@D@std@@V?$allocator@D@2@@std@@PEAX@std@@@0@AEAV10@@Z
	??$move@AEAV?$allocator@UAdjTypePack@?$vector_ocf@VCFaceO@@@face@vcg@@@std@@@std@@YA$$QEAV?$allocator@UAdjTypePack@?$vector_ocf@VCFaceO@@@face@vcg@@@0@AEAV10@@Z
	??$move@AEAV?$allocator@UVFAdjType@?$vector_ocf@VCVertexO@@@vertex@vcg@@@std@@@std@@YA$$QEAV?$allocator@UVFAdjType@?$vector_ocf@VCVertexO@@@vertex@vcg@@@0@AEAV10@@Z
	??$move@AEAV?$allocator@V?$Color4@E@vcg@@@std@@@std@@YA$$QEAV?$allocator@V?$Color4@E@vcg@@@0@AEAV10@@Z
	??$move@AEAV?$allocator@V?$Point2@M@vcg@@@std@@@std@@YA$$QEAV?$allocator@V?$Point2@M@vcg@@@0@AEAV10@@Z
	??$move@AEAV?$allocator@V?$Point3@M@vcg@@@std@@@std@@YA$$QEAV?$allocator@V?$Point3@M@vcg@@@0@AEAV10@@Z
	??$move@AEAV?$allocator@V?$TexCoord2@M$00@vcg@@@std@@@std@@YA$$QEAV?$allocator@V?$TexCoord2@M$00@vcg@@@0@AEAV10@@Z
	??$move@AEAV?$allocator@VCFaceO@@@std@@@std@@YA$$QEAV?$allocator@VCFaceO@@@0@AEAV10@@Z
	??$move@AEAV?$allocator@VCVertexO@@@std@@@std@@YA$$QEAV?$allocator@VCVertexO@@@0@AEAV10@@Z
	??$move@AEAV?$allocator@VWedgeColorTypePack@?$vector_ocf@VCFaceO@@@face@vcg@@@std@@@std@@YA$$QEAV?$allocator@VWedgeColorTypePack@?$vector_ocf@VCFaceO@@@face@vcg@@@0@AEAV10@@Z
	??$move@AEAV?$allocator@VWedgeNormalTypePack@?$vector_ocf@VCFaceO@@@face@vcg@@@std@@@std@@YA$$QEAV?$allocator@VWedgeNormalTypePack@?$vector_ocf@VCFaceO@@@face@vcg@@@0@AEAV10@@Z
	??$move@AEAV?$allocator@VWedgeTexTypePack@?$vector_ocf@VCFaceO@@@face@vcg@@@std@@@std@@YA$$QEAV?$allocator@VWedgeTexTypePack@?$vector_ocf@VCFaceO@@@face@vcg@@@0@AEAV10@@Z
	??$move@AEAV?$basic_string@DU?$char_traits@D@std@@V?$allocator@D@2@@std@@@std@@YA$$QEAV?$basic_string@DU?$char_traits@D@std@@V?$allocator@D@2@@0@AEAV10@@Z
	??$move@AEAV?$tuple@$$QEAF@std@@@std@@YA$$QEAV?$tuple@$$QEAF@0@AEAV10@@Z
	??$move@AEAV?$tuple@AEBF@std@@@std@@YA$$QEAV?$tuple@AEBF@0@AEAV10@@Z
	??$move@AEAV?$tuple@AEBH@std@@@std@@YA$$QEAV?$tuple@AEBH@0@AEAV10@@Z
	??$move@AEAV?$tuple@AEBM@std@@@std@@YA$$QEAV?$tuple@AEBM@0@AEAV10@@Z
	??$move@AEAV?$tuple@AEBQEAVQAction@@@std@@@std@@YA$$QEAV?$tuple@AEBQEAVQAction@@@0@AEAV10@@Z
	??$move@AEAV?$tuple@AEBQEAVQGLContext@@@std@@@std@@YA$$QEAV?$tuple@AEBQEAVQGLContext@@@0@AEAV10@@Z
	??$move@AEAV?$tuple@AEBV?$basic_string@DU?$char_traits@D@std@@V?$allocator@D@2@@std@@@std@@@std@@YA$$QEAV?$tuple@AEBV?$basic_string@DU?$char_traits@D@std@@V?$allocator@D@2@@std@@@0@AEAV10@@Z
	??$move@AEAV?$tuple@AEBVQString@@@std@@@std@@YA$$QEAV?$tuple@AEBVQString@@@0@AEAV10@@Z
	??$move@AEAV?$vector_ocf@VCFaceO@@@face@vcg@@@std@@YA$$QEAV?$vector_ocf@VCFaceO@@@face@vcg@@AEAV123@@Z
	??$move@AEAV?$vector_ocf@VCVertexO@@@vertex@vcg@@@std@@YA$$QEAV?$vector_ocf@VCVertexO@@@vertex@vcg@@AEAV123@@Z
	??$move@AEAVCEdgeO@@@std@@YA$$QEAVCEdgeO@@AEAV1@@Z
	??$move@AEAVCFaceO@@@std@@YA$$QEAVCFaceO@@AEAV1@@Z
	??$move@AEAVCVertexO@@@std@@YA$$QEAVCVertexO@@AEAV1@@Z
	??$move@AEAVEdgeVertInd@?$NotThreadSafeGLMeshAttributesMultiViewerBOManager@VCMeshO@@PEAVQGLContext@@UMLPerViewGLOptions@@@vcg@@@std@@YA$$QEAVEdgeVertInd@?$NotThreadSafeGLMeshAttributesMultiViewerBOManager@VCMeshO@@PEAVQGLContext@@UMLPerViewGLOptions@@@vcg@@AEAV123@@Z
	??$move@AEAVMeshModel@@@std@@YA$$QEAVMeshModel@@AEAV1@@Z
	??$move@AEAVPEdge@?$UpdateTopology@VCMeshO@@@tri@vcg@@@std@@YA$$QEAVPEdge@?$UpdateTopology@VCMeshO@@@tri@vcg@@AEAV1234@@Z
	??$move@AEAVPFace@vcg@@@std@@YA$$QEAVPFace@vcg@@AEAV12@@Z
	??$move@AEAVPVertex@vcg@@@std@@YA$$QEAVPVertex@vcg@@AEAV12@@Z
	??$move@AEAVQString@@@std@@YA$$QEAVQString@@AEAV1@@Z
	??$move@AEAVRasterModel@@@std@@YA$$QEAVRasterModel@@AEAV1@@Z
	??$move@AEAVWedgeColorTypePack@?$vector_ocf@VCFaceO@@@face@vcg@@@std@@YA$$QEAVWedgeColorTypePack@?$vector_ocf@VCFaceO@@@face@vcg@@AEAV1234@@Z
	??$move@AEAVWedgeNormalTypePack@?$vector_ocf@VCFaceO@@@face@vcg@@@std@@YA$$QEAVWedgeNormalTypePack@?$vector_ocf@VCFaceO@@@face@vcg@@AEAV1234@@Z
	??$move@AEAVWedgeTexTypePack@?$vector_ocf@VCFaceO@@@face@vcg@@@std@@YA$$QEAVWedgeTexTypePack@?$vector_ocf@VCFaceO@@@face@vcg@@AEAV1234@@Z
	??$move@AEA_J@std@@YA$$QEA_JAEA_J@Z
	??$move@AEA_K@std@@YA$$QEA_KAEA_K@Z
	??$move@AEA_N@std@@YA$$QEA_NAEA_N@Z
	??$nameDisambiguator@VMeshModel@@@@YA?AVQString@@AEAV?$list@VMeshModel@@V?$allocator@VMeshModel@@@std@@@std@@V0@@Z
	??$next@PEAV?$basic_string@DU?$char_traits@D@std@@V?$allocator@D@2@@std@@@std@@YAPEAV?$basic_string@DU?$char_traits@D@std@@V?$allocator@D@2@@0@PEAV10@_J@Z
	??$next@PEAVInternalRendAtts@GLMeshAttributesInfo@vcg@@@std@@YAPEAVInternalRendAtts@GLMeshAttributesInfo@vcg@@PEAV123@_J@Z
	??$outputFormatListDialog@VIOPluginRangeIterator@IOPluginContainer@@@PluginManager@@CA?AVQStringList@@VIOPluginRangeIterator@IOPluginContainer@@@Z
	??$outputProjectFormatListDialog@VIOPluginRangeIterator@IOPluginContainer@@@PluginManager@@CA?AVQStringList@@VIOPluginRangeIterator@IOPluginContainer@@@Z
	??$packet@$0BA@T__m128i@@@?$evaluator@V?$PlainObjectBase@V?$Matrix@H$0?0$0?0$0A@$0?0$0?0@Eigen@@@Eigen@@@internal@Eigen@@QEBA?AT__m128i@@_J@Z
	??$pload@T__m128i@@@internal@Eigen@@YA?AT__m128i@@PEBH@Z
	??$ploadt@T__m128i@@$0BA@@internal@Eigen@@YA?AT__m128i@@PEBH@Z
	??$ploadu@T__m128i@@@internal@Eigen@@YA?AT__m128i@@PEBH@Z
	??$pow@HH$0A@@@YANHH@Z
	??$pstore@HT__m128i@@@internal@Eigen@@YAXPEAHAEBT__m128i@@@Z
	??$pstoret@HT__m128i@@$0BA@@internal@Eigen@@YAXPEAHAEBT__m128i@@@Z
	??$pstoreu@HT__m128i@@@internal@Eigen@@YAXPEAHAEBT__m128i@@@Z
	??$qAsConst@V?$QList@H@@@@YAAEBV?$QList@H@@AEAV0@@Z
	??$qAsConst@VQStringList@@@@YAAEBVQStringList@@AEAV0@@Z
	??$qMakeForeachContainer@AEAVQStringList@@@QtPrivate@@YA?AV?$QForeachContainer@VQStringList@@@0@AEAVQStringList@@@Z
	??$qMakeForeachContainer@V?$QList@H@@@QtPrivate@@YA?AV?$QForeachContainer@V?$QList@H@@@0@$$QEAV?$QList@H@@@Z
	??$qMakePair@VQString@@V1@@@YA?AU?$QPair@VQString@@V1@@@AEBVQString@@0@Z
	??$qMapLessThanKey@H@@YA_NAEBH0@Z
	??$qMapLessThanKey@VQString@@@@YA_NAEBVQString@@0@Z
	??$qSwap@PEAU?$QMapData@HUMeshModelStateData@@@@@@YAXAEAPEAU?$QMapData@HUMeshModelStateData@@@@0@Z
	??$qSwap@PEAU?$QMapData@HVMLRenderingData@@@@@@YAXAEAPEAU?$QMapData@HVMLRenderingData@@@@0@Z
	??$qSwap@PEAU?$QMapData@VQString@@PEAVIOPlugin@@@@@@YAXAEAPEAU?$QMapData@VQString@@PEAVIOPlugin@@@@0@Z
	??$qSwap@PEAU?$QMapData@VQString@@PEAVQAction@@@@@@YAXAEAPEAU?$QMapData@VQString@@PEAVQAction@@@@0@Z
	??$qSwap@PEAU?$QMapData@VQString@@U?$QPair@VQString@@V1@@@@@@@YAXAEAPEAU?$QMapData@VQString@@U?$QPair@VQString@@V1@@@@@0@Z
	??$qSwap@PEAUData@QListData@@@@YAXAEAPEAUData@QListData@@0@Z
	??$qobject_cast@PEAVDecoratePlugin@@@@YAPEAVDecoratePlugin@@PEAVQObject@@@Z
	??$qobject_cast@PEAVEditPlugin@@@@YAPEAVEditPlugin@@PEAVQObject@@@Z
	??$qobject_cast@PEAVFilterPlugin@@@@YAPEAVFilterPlugin@@PEAVQObject@@@Z
	??$qobject_cast@PEAVIOPlugin@@@@YAPEAVIOPlugin@@PEAVQObject@@@Z
	??$qobject_cast@PEAVRenderPlugin@@@@YAPEAVRenderPlugin@@PEAVQObject@@@Z
	??$ref@H@?$QAtomicOps@H@@SA_NAEAU?$atomic@H@std@@@Z
	??$reserveIfForwardIterator@V?$QList@VQString@@@@PEBVQString@@$00@QtPrivate@@YAXPEAV?$QList@VQString@@@@PEBVQString@@1@Z
	??$resizeLike@V?$Matrix@H$0?0$0?0$0A@$0?0$0?0@Eigen@@@?$PlainObjectBase@V?$Matrix@H$0?0$01$0A@$0?0$01@Eigen@@@Eigen@@QEAAXAEBU?$EigenBase@V?$Matrix@H$0?0$0?0$0A@$0?0$0?0@Eigen@@@1@@Z
	??$resizeLike@V?$Matrix@H$0?0$0?0$0A@$0?0$0?0@Eigen@@@?$PlainObjectBase@V?$Matrix@H$0?0$02$0A@$0?0$02@Eigen@@@Eigen@@QEAAXAEBU?$EigenBase@V?$Matrix@H$0?0$0?0$0A@$0?0$0?0@Eigen@@@1@@Z
	??$resize_if_allowed@V?$Matrix@H$0?0$01$0A@$0?0$01@Eigen@@V?$Matrix@H$0?0$0?0$0A@$0?0$0?0@2@HH@internal@Eigen@@YAXAEAV?$Matrix@H$0?0$01$0A@$0?0$01@1@AEBV?$Matrix@H$0?0$0?0$0A@$0?0$0?0@1@AEBU?$assign_op@HH@01@@Z
	??$resize_if_allowed@V?$Matrix@H$0?0$02$0A@$0?0$02@Eigen@@V?$Matrix@H$0?0$0?0$0A@$0?0$0?0@2@HH@internal@Eigen@@YAXAEAV?$Matrix@H$0?0$02$0A@$0?0$02@1@AEBV?$Matrix@H$0?0$0?0$0A@$0?0$0?0@1@AEBU?$assign_op@HH@01@@Z
	??$reverse@V?$_Vector_iterator@V?$_Vector_val@U?$_Simple_types@PEAVCVertexO@@@std@@@std@@@std@@@std@@YAXV?$_Vector_iterator@V?$_Vector_val@U?$_Simple_types@PEAVCVertexO@@@std@@@std@@@0@0@Z
	??$run@V?$generic_dense_assignment_kernel@U?$evaluator@V?$Matrix@H$0?0$01$0A@$0?0$01@Eigen@@@internal@Eigen@@U?$evaluator@V?$Matrix@H$0?0$0?0$0A@$0?0$0?0@Eigen@@@23@U?$assign_op@HH@23@$0A@@internal@Eigen@@@?$unaligned_dense_assignment_loop@$00@internal@Eigen@@SAXAEAV?$generic_dense_assignment_kernel@U?$evaluator@V?$Matrix@H$0?0$01$0A@$0?0$01@Eigen@@@internal@Eigen@@U?$evaluator@V?$Matrix@H$0?0$0?0$0A@$0?0$0?0@Eigen@@@23@U?$assign_op@HH@23@$0A@@12@_J1@Z
	??$run@V?$generic_dense_assignment_kernel@U?$evaluator@V?$Matrix@H$0?0$01$0A@$0?0$01@Eigen@@@internal@Eigen@@U?$evaluator@V?$Matrix@H$0?0$0?0$0A@$0?0$0?0@Eigen@@@23@U?$assign_op@HH@23@$0A@@internal@Eigen@@@?$unaligned_dense_assignment_loop@$0A@@internal@Eigen@@SAXAEAV?$generic_dense_assignment_kernel@U?$evaluator@V?$Matrix@H$0?0$01$0A@$0?0$01@Eigen@@@internal@Eigen@@U?$evaluator@V?$Matrix@H$0?0$0?0$0A@$0?0$0?0@Eigen@@@23@U?$assign_op@HH@23@$0A@@12@_J1@Z
	??$run@V?$generic_dense_assignment_kernel@U?$evaluator@V?$Matrix@H$0?0$02$0A@$0?0$02@Eigen@@@internal@Eigen@@U?$evaluator@V?$Matrix@H$0?0$0?0$0A@$0?0$0?0@Eigen@@@23@U?$assign_op@HH@23@$0A@@internal@Eigen@@@?$unaligned_dense_assignment_loop@$00@internal@Eigen@@SAXAEAV?$generic_dense_assignment_kernel@U?$evaluator@V?$Matrix@H$0?0$02$0A@$0?0$02@Eigen@@@internal@Eigen@@U?$evaluator@V?$Matrix@H$0?0$0?0$0A@$0?0$0?0@Eigen@@@23@U?$assign_op@HH@23@$0A@@12@_J1@Z
	??$run@V?$generic_dense_assignment_kernel@U?$evaluator@V?$Matrix@H$0?0$02$0A@$0?0$02@Eigen@@@internal@Eigen@@U?$evaluator@V?$Matrix@H$0?0$0?0$0A@$0?0$0?0@Eigen@@@23@U?$assign_op@HH@23@$0A@@internal@Eigen@@@?$unaligned_dense_assignment_loop@$0A@@internal@Eigen@@SAXAEAV?$generic_dense_assignment_kernel@U?$evaluator@V?$Matrix@H$0?0$02$0A@$0?0$02@Eigen@@@internal@Eigen@@U?$evaluator@V?$Matrix@H$0?0$0?0$0A@$0?0$0?0@Eigen@@@23@U?$assign_op@HH@23@$0A@@12@_J1@Z
	??$run@_J@?$check_rows_cols_for_overflow@$0?0@internal@Eigen@@SAX_J0@Z
	??$smart_copy@I@internal@Eigen@@YAXPEBI0PEAI@Z
	??$sort@V?$_Vector_iterator@V?$_Vector_val@U?$_Simple_types@PEAVQAction@@@std@@@std@@@std@@UActionComparator@ActionSearcher@@@std@@YAXV?$_Vector_iterator@V?$_Vector_val@U?$_Simple_types@PEAVQAction@@@std@@@std@@@0@0UActionComparator@ActionSearcher@@@Z
	??$sort@V?$_Vector_iterator@V?$_Vector_val@U?$_Simple_types@VEdgeVertInd@?$NotThreadSafeGLMeshAttributesMultiViewerBOManager@VCMeshO@@PEAVQGLContext@@UMLPerViewGLOptions@@@vcg@@@std@@@std@@@std@@@std@@YAXV?$_Vector_iterator@V?$_Vector_val@U?$_Simple_types@VEdgeVertInd@?$NotThreadSafeGLMeshAttributesMultiViewerBOManager@VCMeshO@@PEAVQGLContext@@UMLPerViewGLOptions@@@vcg@@@std@@@std@@@0@0@Z
	??$sort@V?$_Vector_iterator@V?$_Vector_val@U?$_Simple_types@VEdgeVertInd@?$NotThreadSafeGLMeshAttributesMultiViewerBOManager@VCMeshO@@PEAVQGLContext@@UMLPerViewGLOptions@@@vcg@@@std@@@std@@@std@@U?$less@X@2@@std@@YAXV?$_Vector_iterator@V?$_Vector_val@U?$_Simple_types@VEdgeVertInd@?$NotThreadSafeGLMeshAttributesMultiViewerBOManager@VCMeshO@@PEAVQGLContext@@UMLPerViewGLOptions@@@vcg@@@std@@@std@@@0@0U?$less@X@0@@Z
	??$sort@V?$_Vector_iterator@V?$_Vector_val@U?$_Simple_types@VPEdge@?$UpdateTopology@VCMeshO@@@tri@vcg@@@std@@@std@@@std@@@std@@YAXV?$_Vector_iterator@V?$_Vector_val@U?$_Simple_types@VPEdge@?$UpdateTopology@VCMeshO@@@tri@vcg@@@std@@@std@@@0@0@Z
	??$sort@V?$_Vector_iterator@V?$_Vector_val@U?$_Simple_types@VPEdge@?$UpdateTopology@VCMeshO@@@tri@vcg@@@std@@@std@@@std@@U?$less@X@2@@std@@YAXV?$_Vector_iterator@V?$_Vector_val@U?$_Simple_types@VPEdge@?$UpdateTopology@VCMeshO@@@tri@vcg@@@std@@@std@@@0@0U?$less@X@0@@Z
	??$staticMetaObject@$1?staticMetaObject@QGLWidget@@2UQMetaObject@@B@QMetaObject@@SAPEBU0@XZ
	??$staticMetaObject@$1?staticMetaObject@QObject@@2UQMetaObject@@B@QMetaObject@@SAPEBU0@XZ
	??$swap@D$0A@@std@@YAXAEAD0@Z
	??$swap@H$0A@@std@@YAXAEAH0@Z
	??$swap@I$0A@@std@@YAXAEAI0@Z
	??$swap@M$0A@@std@@YAXAEAM0@Z
	??$swap@PEAU?$QMapData@HUMeshModelStateData@@@@$0A@@std@@YAXAEAPEAU?$QMapData@HUMeshModelStateData@@@@0@Z
	??$swap@PEAU?$QMapData@HVMLRenderingData@@@@$0A@@std@@YAXAEAPEAU?$QMapData@HVMLRenderingData@@@@0@Z
	??$swap@PEAU?$QMapData@VQString@@PEAVIOPlugin@@@@$0A@@std@@YAXAEAPEAU?$QMapData@VQString@@PEAVIOPlugin@@@@0@Z
	??$swap@PEAU?$QMapData@VQString@@PEAVQAction@@@@$0A@@std@@YAXAEAPEAU?$QMapData@VQString@@PEAVQAction@@@@0@Z
	??$swap@PEAU?$QMapData@VQString@@U?$QPair@VQString@@V1@@@@@$0A@@std@@YAXAEAPEAU?$QMapData@VQString@@U?$QPair@VQString@@V1@@@@@0@Z
	??$swap@PEAU?$_List_node@PEAVMeshModel@@PEAX@std@@$0A@@std@@YAXAEAPEAU?$_List_node@PEAVMeshModel@@PEAX@0@0@Z
	??$swap@PEAU?$_List_node@PEAVRichParameter@@PEAX@std@@$0A@@std@@YAXAEAPEAU?$_List_node@PEAVRichParameter@@PEAX@0@0@Z
	??$swap@PEAU?$_List_node@V?$Matrix@I$0?0$00$0A@$0?0$00@Eigen@@PEAX@std@@$0A@@std@@YAXAEAPEAU?$_List_node@V?$Matrix@I$0?0$00$0A@$0?0$00@Eigen@@PEAX@0@0@Z
	??$swap@PEAU?$_List_node@V?$basic_string@DU?$char_traits@D@std@@V?$allocator@D@2@@std@@PEAX@std@@$0A@@std@@YAXAEAPEAU?$_List_node@V?$basic_string@DU?$char_traits@D@std@@V?$allocator@D@2@@std@@PEAX@0@0@Z
	??$swap@PEAU?$_Tree_node@VPointerToAttribute@vcg@@PEAX@std@@$0A@@std@@YAXAEAPEAU?$_Tree_node@VPointerToAttribute@vcg@@PEAX@0@0@Z
	??$swap@PEAUData@QListData@@$0A@@std@@YAXAEAPEAUData@QListData@@0@Z
	??$swap@PEAV?$HEdge@V?$UsedTypes@UAsVertexType@?$Use@VCVertexO@@@vcg@@UAsEdgeType@?$Use@VCEdgeO@@@3@UAsFaceType@?$Use@VCFaceO@@@3@VDefaultDeriver@3@V83@V83@V83@V83@@vcg@@VDefaultDeriver@2@V32@V32@V32@V32@V32@V32@V32@V32@V32@V32@@vcg@@$0A@@std@@YAXAEAPEAV?$HEdge@V?$UsedTypes@UAsVertexType@?$Use@VCVertexO@@@vcg@@UAsEdgeType@?$Use@VCEdgeO@@@3@UAsFaceType@?$Use@VCFaceO@@@3@VDefaultDeriver@3@V83@V83@V83@V83@@vcg@@VDefaultDeriver@2@V32@V32@V32@V32@V32@V32@V32@V32@V32@V32@@vcg@@0@Z
